   1              		.syntax unified
   2              		.cpu cortex-m3
   3              		.fpu softvfp
   4              		.eabi_attribute 20, 1
   5              		.eabi_attribute 21, 1
   6              		.eabi_attribute 23, 3
   7              		.eabi_attribute 24, 1
   8              		.eabi_attribute 25, 1
   9              		.eabi_attribute 26, 1
  10              		.eabi_attribute 30, 6
  11              		.eabi_attribute 34, 1
  12              		.eabi_attribute 18, 4
  13              		.thumb
  14              		.file	"porttimer_m.c"
  15              		.text
  16              	.Ltext0:
  17              		.cfi_sections	.debug_frame
  18              		.section	.bss.usT35TimeOut50us,"aw",%nobits
  19              		.align	1
  22              	usT35TimeOut50us:
  23 0000 0000     		.space	2
  24              		.section	.bss.usPrescalerValue,"aw",%nobits
  25              		.align	1
  28              	usPrescalerValue:
  29 0000 0000     		.space	2
  30              		.section	.text.xMBMasterPortTimersInit,"ax",%progbits
  31              		.align	2
  32              		.global	xMBMasterPortTimersInit
  33              		.thumb
  34              		.thumb_func
  36              	xMBMasterPortTimersInit:
  37              	.LFB29:
  38              		.file 1 "../FreeModbus/stm32/porttimer_m.c"
   1:../FreeModbus/stm32/porttimer_m.c **** /*
   2:../FreeModbus/stm32/porttimer_m.c ****  * FreeModbus Libary: STM32 Port
   3:../FreeModbus/stm32/porttimer_m.c ****  * Copyright (C) 2013 Armink <armink.ztl@gmail.com>
   4:../FreeModbus/stm32/porttimer_m.c ****  *
   5:../FreeModbus/stm32/porttimer_m.c ****  * This library is free software; you can redistribute it and/or
   6:../FreeModbus/stm32/porttimer_m.c ****  * modify it under the terms of the GNU Lesser General Public
   7:../FreeModbus/stm32/porttimer_m.c ****  * License as published by the Free Software Foundation; either
   8:../FreeModbus/stm32/porttimer_m.c ****  * version 2.1 of the License, or (at your option) any later version.
   9:../FreeModbus/stm32/porttimer_m.c ****  *
  10:../FreeModbus/stm32/porttimer_m.c ****  * This library is distributed in the hope that it will be useful,
  11:../FreeModbus/stm32/porttimer_m.c ****  * but WITHOUT ANY WARRANTY; without even the implied warranty of
  12:../FreeModbus/stm32/porttimer_m.c ****  * MERCHANTABILITY or FITNESS FOR A PARTICULAR PURPOSE.  See the GNU
  13:../FreeModbus/stm32/porttimer_m.c ****  * Lesser General Public License for more details.
  14:../FreeModbus/stm32/porttimer_m.c ****  *
  15:../FreeModbus/stm32/porttimer_m.c ****  * You should have received a copy of the GNU Lesser General Public
  16:../FreeModbus/stm32/porttimer_m.c ****  * License along with this library; if not, write to the Free Software
  17:../FreeModbus/stm32/porttimer_m.c ****  * Foundation, Inc., 51 Franklin St, Fifth Floor, Boston, MA  02110-1301  USA
  18:../FreeModbus/stm32/porttimer_m.c ****  *
  19:../FreeModbus/stm32/porttimer_m.c ****  * File: $Id: porttimer_m.c,v 1.60 2013/08/13 15:07:05 Armink add Master Functions$
  20:../FreeModbus/stm32/porttimer_m.c ****  */
  21:../FreeModbus/stm32/porttimer_m.c **** 
  22:../FreeModbus/stm32/porttimer_m.c **** /* ----------------------- Platform includes --------------------------------*/
  23:../FreeModbus/stm32/porttimer_m.c **** #include "port.h"
  24:../FreeModbus/stm32/porttimer_m.c **** 
  25:../FreeModbus/stm32/porttimer_m.c **** /* ----------------------- Modbus includes ----------------------------------*/
  26:../FreeModbus/stm32/porttimer_m.c **** #include "mb.h"
  27:../FreeModbus/stm32/porttimer_m.c **** #include "mb_m.h"
  28:../FreeModbus/stm32/porttimer_m.c **** #include "mbport.h"
  29:../FreeModbus/stm32/porttimer_m.c **** 
  30:../FreeModbus/stm32/porttimer_m.c **** #include "stm32f10x_tim.h"
  31:../FreeModbus/stm32/porttimer_m.c **** #include "misc.h"
  32:../FreeModbus/stm32/porttimer_m.c **** 
  33:../FreeModbus/stm32/porttimer_m.c **** #include "led.h"
  34:../FreeModbus/stm32/porttimer_m.c **** 
  35:../FreeModbus/stm32/porttimer_m.c **** 
  36:../FreeModbus/stm32/porttimer_m.c **** #if MB_MASTER_RTU_ENABLED > 0 || MB_MASTER_ASCII_ENABLED > 0
  37:../FreeModbus/stm32/porttimer_m.c **** /* ----------------------- Variables ----------------------------------------*/
  38:../FreeModbus/stm32/porttimer_m.c **** static USHORT usT35TimeOut50us;
  39:../FreeModbus/stm32/porttimer_m.c **** static USHORT usPrescalerValue = 0;
  40:../FreeModbus/stm32/porttimer_m.c **** 
  41:../FreeModbus/stm32/porttimer_m.c **** /* ----------------------- static functions ---------------------------------*/
  42:../FreeModbus/stm32/porttimer_m.c **** static void prvvTIMERExpiredISR(void);
  43:../FreeModbus/stm32/porttimer_m.c **** 
  44:../FreeModbus/stm32/porttimer_m.c **** /* ----------------------- Start implementation -----------------------------*/
  45:../FreeModbus/stm32/porttimer_m.c **** BOOL xMBMasterPortTimersInit(USHORT usTimeOut50us)
  46:../FreeModbus/stm32/porttimer_m.c **** {
  39              		.loc 1 46 0
  40              		.cfi_startproc
  41              		@ args = 0, pretend = 0, frame = 16
  42              		@ frame_needed = 1, uses_anonymous_args = 0
  43 0000 80B5     		push	{r7, lr}
  44              		.cfi_def_cfa_offset 8
  45              		.cfi_offset 7, -8
  46              		.cfi_offset 14, -4
  47 0002 84B0     		sub	sp, sp, #16
  48              		.cfi_def_cfa_offset 24
  49 0004 00AF     		add	r7, sp, #0
  50              		.cfi_def_cfa_register 7
  51 0006 0346     		mov	r3, r0
  52 0008 FB80     		strh	r3, [r7, #6]	@ movhi
  47:../FreeModbus/stm32/porttimer_m.c **** 	NVIC_InitTypeDef NVIC_InitStructure;
  48:../FreeModbus/stm32/porttimer_m.c **** 	//====================================–ö¬±–¶–£—ñ—Ö–ö—ò¬ª–á===========================
  49:../FreeModbus/stm32/porttimer_m.c **** 	//–ö‚Ññ–î–¨¬∂–Å–ö¬±–ñ—á2–ö¬±–¶–£
  50:../FreeModbus/stm32/porttimer_m.c **** 	RCC_APB1PeriphClockCmd(RCC_APB1Periph_TIM2, ENABLE);
  53              		.loc 1 50 0
  54 000a 0120     		movs	r0, #1
  55 000c 0121     		movs	r1, #1
  56 000e FFF7FEFF 		bl	RCC_APB1PeriphClockCmd
  51:../FreeModbus/stm32/porttimer_m.c **** 	//====================================¬∂–Å–ö¬±–ñ—á—ñ—Ö–ö—ò¬ª–á===========================
  52:../FreeModbus/stm32/porttimer_m.c **** 	//¬∂–Å–ö¬±–ñ—á–ö¬±—ò–¥¬ª—â–ï–¥–¶–ì–õ¬µ–ì—á
  53:../FreeModbus/stm32/porttimer_m.c **** 	//HCLK–û–Ñ72MHz–à¬¨APB1—ï¬≠‚Ññ—ç2¬∑–¶–ñ¬µ–û–Ñ36MHz
  54:../FreeModbus/stm32/porttimer_m.c **** 	//TIM2¬µ–î–ö¬±–¶–£¬±¬∂–ñ¬µ—î—É–û–Ñ72MHz–à–Å–£–Ü—ò—é–ß–§¬∂–á¬±¬∂–ñ¬µ,“ë–ø¬µ–Ö–ß–æ“ë—É–à¬©
  55:../FreeModbus/stm32/porttimer_m.c **** 	//TIM2¬µ–î¬∑–¶–ñ¬µ–ü¬µ–ö—ç–û–Ñ3599–à¬¨–ö¬±—ò–¥¬ª—â–ñ¬µ–í–ö–û–Ñ72 / (1 + Prescaler) = 20KHz,¬ª—â–ß—
  56:../FreeModbus/stm32/porttimer_m.c **** 	//TIM–ß–æ“ë—É—ò–ñ–ö—ç–¶¬µ–û–ÑusTim1Timerout50u	
  57:../FreeModbus/stm32/porttimer_m.c **** 	usPrescalerValue = (uint16_t) (SystemCoreClock / 20000) - 1;
  57              		.loc 1 57 0
  58 0012 40F20003 		movw	r3, #:lower16:SystemCoreClock
  59 0016 C0F20003 		movt	r3, #:upper16:SystemCoreClock
  60 001a 1A68     		ldr	r2, [r3]
  61 001c 41F25973 		movw	r3, #5977
  62 0020 CDF2B713 		movt	r3, 53687
  63 0024 A3FB0213 		umull	r1, r3, r3, r2
  64 0028 9B0B     		lsrs	r3, r3, #14
  65 002a 9BB2     		uxth	r3, r3
  66 002c 013B     		subs	r3, r3, #1
  67 002e 9AB2     		uxth	r2, r3
  68 0030 40F20003 		movw	r3, #:lower16:usPrescalerValue
  69 0034 C0F20003 		movt	r3, #:upper16:usPrescalerValue
  70 0038 1A80     		strh	r2, [r3]	@ movhi
  58:../FreeModbus/stm32/porttimer_m.c **** 	//¬±–à“ë–∂T35¬∂–Å–ö¬±–ñ—á—ò–ñ–ö—ç–¶¬µ
  59:../FreeModbus/stm32/porttimer_m.c **** 	usT35TimeOut50us = usTimeOut50us;
  71              		.loc 1 59 0
  72 003a 40F20003 		movw	r3, #:lower16:usT35TimeOut50us
  73 003e C0F20003 		movt	r3, #:upper16:usT35TimeOut50us
  74 0042 FA88     		ldrh	r2, [r7, #6]	@ movhi
  75 0044 1A80     		strh	r2, [r3]	@ movhi
  60:../FreeModbus/stm32/porttimer_m.c **** 
  61:../FreeModbus/stm32/porttimer_m.c **** 	//–§¬§–ß¬∞–§–®–ö‚Ññ–î–¨
  62:../FreeModbus/stm32/porttimer_m.c **** 	TIM_ARRPreloadConfig(TIM2, ENABLE);
  76              		.loc 1 62 0
  77 0046 4FF08040 		mov	r0, #1073741824
  78 004a 0121     		movs	r1, #1
  79 004c FFF7FEFF 		bl	TIM_ARRPreloadConfig
  63:../FreeModbus/stm32/porttimer_m.c **** 	//====================================–¶–†¬∂–ü—ñ—Ö–ö—ò¬ª–á===========================
  64:../FreeModbus/stm32/porttimer_m.c **** 	//–ô–∏–¶–ìNVIC–£–ï–ü–ò—ò¬∂¬∑–¶–ß–π–û–ÑGroup2–à—î0-3–ó–ê–•—ò–ö–Ö–£–ï–ü–ò—ò¬∂–à¬¨0-3¬µ–î–ü–º–£¬¶–ö–Ö
  65:../FreeModbus/stm32/porttimer_m.c **** 	NVIC_PriorityGroupConfig(NVIC_PriorityGroup_2);
  80              		.loc 1 65 0
  81 0050 4FF4A060 		mov	r0, #1280
  82 0054 FFF7FEFF 		bl	NVIC_PriorityGroupConfig
  66:../FreeModbus/stm32/porttimer_m.c **** 	NVIC_InitStructure.NVIC_IRQChannel = TIM2_IRQn;
  83              		.loc 1 66 0
  84 0058 1C23     		movs	r3, #28
  85 005a 3B73     		strb	r3, [r7, #12]
  67:../FreeModbus/stm32/porttimer_m.c **** 	NVIC_InitStructure.NVIC_IRQChannelPreemptionPriority = 1;
  86              		.loc 1 67 0
  87 005c 0123     		movs	r3, #1
  88 005e 7B73     		strb	r3, [r7, #13]
  68:../FreeModbus/stm32/porttimer_m.c **** 	NVIC_InitStructure.NVIC_IRQChannelSubPriority = 0;
  89              		.loc 1 68 0
  90 0060 0023     		movs	r3, #0
  91 0062 BB73     		strb	r3, [r7, #14]
  69:../FreeModbus/stm32/porttimer_m.c **** 	NVIC_InitStructure.NVIC_IRQChannelCmd = ENABLE;
  92              		.loc 1 69 0
  93 0064 0123     		movs	r3, #1
  94 0066 FB73     		strb	r3, [r7, #15]
  70:../FreeModbus/stm32/porttimer_m.c **** 	NVIC_Init(&NVIC_InitStructure);
  95              		.loc 1 70 0
  96 0068 07F10C03 		add	r3, r7, #12
  97 006c 1846     		mov	r0, r3
  98 006e FFF7FEFF 		bl	NVIC_Init
  71:../FreeModbus/stm32/porttimer_m.c **** 	//–ó–µ—ñ—ç–¢–∑—ñ—Ü–¶–†¬∂–ü¬±–∫–¶—ï–û¬ª
  72:../FreeModbus/stm32/porttimer_m.c **** 	TIM_ClearITPendingBit(TIM2, TIM_IT_Update);
  99              		.loc 1 72 0
 100 0072 4FF08040 		mov	r0, #1073741824
 101 0076 0121     		movs	r1, #1
 102 0078 FFF7FEFF 		bl	TIM_ClearITPendingBit
  73:../FreeModbus/stm32/porttimer_m.c **** 	//¬∂–Å–ö¬±–ñ—á3–¢–∑—ñ—Ü–¶–†¬∂–ü‚Ññ–®¬±–•
  74:../FreeModbus/stm32/porttimer_m.c **** 	TIM_ITConfig(TIM2, TIM_IT_Update, DISABLE);
 103              		.loc 1 74 0
 104 007c 4FF08040 		mov	r0, #1073741824
 105 0080 0121     		movs	r1, #1
 106 0082 0022     		movs	r2, #0
 107 0084 FFF7FEFF 		bl	TIM_ITConfig
  75:../FreeModbus/stm32/porttimer_m.c **** 	//¬∂–Å–ö¬±–ñ—á3–Ö—ã–î–¨
  76:../FreeModbus/stm32/porttimer_m.c **** 	TIM_Cmd(TIM2, DISABLE);
 108              		.loc 1 76 0
 109 0088 4FF08040 		mov	r0, #1073741824
 110 008c 0021     		movs	r1, #0
 111 008e FFF7FEFF 		bl	TIM_Cmd
  77:../FreeModbus/stm32/porttimer_m.c **** 	return TRUE;
 112              		.loc 1 77 0
 113 0092 0123     		movs	r3, #1
  78:../FreeModbus/stm32/porttimer_m.c **** }
 114              		.loc 1 78 0
 115 0094 1846     		mov	r0, r3
 116 0096 1037     		adds	r7, r7, #16
 117 0098 BD46     		mov	sp, r7
 118              		@ sp needed
 119 009a 80BD     		pop	{r7, pc}
 120              		.cfi_endproc
 121              	.LFE29:
 123              		.section	.text.vMBMasterPortTimersT35Enable,"ax",%progbits
 124              		.align	2
 125              		.global	vMBMasterPortTimersT35Enable
 126              		.thumb
 127              		.thumb_func
 129              	vMBMasterPortTimersT35Enable:
 130              	.LFB30:
  79:../FreeModbus/stm32/porttimer_m.c **** 
  80:../FreeModbus/stm32/porttimer_m.c **** void vMBMasterPortTimersT35Enable()
  81:../FreeModbus/stm32/porttimer_m.c **** {
 131              		.loc 1 81 0
 132              		.cfi_startproc
 133              		@ args = 0, pretend = 0, frame = 16
 134              		@ frame_needed = 1, uses_anonymous_args = 0
 135 0000 80B5     		push	{r7, lr}
 136              		.cfi_def_cfa_offset 8
 137              		.cfi_offset 7, -8
 138              		.cfi_offset 14, -4
 139 0002 84B0     		sub	sp, sp, #16
 140              		.cfi_def_cfa_offset 24
 141 0004 00AF     		add	r7, sp, #0
 142              		.cfi_def_cfa_register 7
  82:../FreeModbus/stm32/porttimer_m.c **** 	TIM_TimeBaseInitTypeDef TIM_TimeBaseStructure;
  83:../FreeModbus/stm32/porttimer_m.c **** 
  84:../FreeModbus/stm32/porttimer_m.c **** 	/* Set current timer mode,don't change it.*/
  85:../FreeModbus/stm32/porttimer_m.c **** 	vMBMasterSetCurTimerMode(MB_TMODE_T35);
 143              		.loc 1 85 0
 144 0006 0020     		movs	r0, #0
 145 0008 FFF7FEFF 		bl	vMBMasterSetCurTimerMode
  86:../FreeModbus/stm32/porttimer_m.c **** 
  87:../FreeModbus/stm32/porttimer_m.c **** 	TIM_TimeBaseStructure.TIM_Prescaler = usPrescalerValue;
 146              		.loc 1 87 0
 147 000c 40F20003 		movw	r3, #:lower16:usPrescalerValue
 148 0010 C0F20003 		movt	r3, #:upper16:usPrescalerValue
 149 0014 1B88     		ldrh	r3, [r3]
 150 0016 BB80     		strh	r3, [r7, #4]	@ movhi
  88:../FreeModbus/stm32/porttimer_m.c **** 	TIM_TimeBaseStructure.TIM_ClockDivision = 0;
 151              		.loc 1 88 0
 152 0018 0023     		movs	r3, #0
 153 001a 7B81     		strh	r3, [r7, #10]	@ movhi
  89:../FreeModbus/stm32/porttimer_m.c **** 	TIM_TimeBaseStructure.TIM_CounterMode = TIM_CounterMode_Up;
 154              		.loc 1 89 0
 155 001c 0023     		movs	r3, #0
 156 001e FB80     		strh	r3, [r7, #6]	@ movhi
  90:../FreeModbus/stm32/porttimer_m.c **** 	TIM_TimeBaseStructure.TIM_Period = (uint16_t) usT35TimeOut50us;
 157              		.loc 1 90 0
 158 0020 40F20003 		movw	r3, #:lower16:usT35TimeOut50us
 159 0024 C0F20003 		movt	r3, #:upper16:usT35TimeOut50us
 160 0028 1B88     		ldrh	r3, [r3]
 161 002a 3B81     		strh	r3, [r7, #8]	@ movhi
  91:../FreeModbus/stm32/porttimer_m.c **** 	TIM_TimeBaseInit(TIM2, &TIM_TimeBaseStructure);
 162              		.loc 1 91 0
 163 002c 3B1D     		adds	r3, r7, #4
 164 002e 4FF08040 		mov	r0, #1073741824
 165 0032 1946     		mov	r1, r3
 166 0034 FFF7FEFF 		bl	TIM_TimeBaseInit
  92:../FreeModbus/stm32/porttimer_m.c **** 
  93:../FreeModbus/stm32/porttimer_m.c **** 	TIM_ClearITPendingBit(TIM2, TIM_IT_Update);
 167              		.loc 1 93 0
 168 0038 4FF08040 		mov	r0, #1073741824
 169 003c 0121     		movs	r1, #1
 170 003e FFF7FEFF 		bl	TIM_ClearITPendingBit
  94:../FreeModbus/stm32/porttimer_m.c **** 	TIM_ITConfig(TIM2, TIM_IT_Update, ENABLE);
 171              		.loc 1 94 0
 172 0042 4FF08040 		mov	r0, #1073741824
 173 0046 0121     		movs	r1, #1
 174 0048 0122     		movs	r2, #1
 175 004a FFF7FEFF 		bl	TIM_ITConfig
  95:../FreeModbus/stm32/porttimer_m.c **** 	TIM_SetCounter(TIM2, 0);
 176              		.loc 1 95 0
 177 004e 4FF08040 		mov	r0, #1073741824
 178 0052 0021     		movs	r1, #0
 179 0054 FFF7FEFF 		bl	TIM_SetCounter
  96:../FreeModbus/stm32/porttimer_m.c **** 	TIM_Cmd(TIM2, ENABLE);
 180              		.loc 1 96 0
 181 0058 4FF08040 		mov	r0, #1073741824
 182 005c 0121     		movs	r1, #1
 183 005e FFF7FEFF 		bl	TIM_Cmd
  97:../FreeModbus/stm32/porttimer_m.c **** }
 184              		.loc 1 97 0
 185 0062 1037     		adds	r7, r7, #16
 186 0064 BD46     		mov	sp, r7
 187              		@ sp needed
 188 0066 80BD     		pop	{r7, pc}
 189              		.cfi_endproc
 190              	.LFE30:
 192              		.section	.text.vMBMasterPortTimersConvertDelayEnable,"ax",%progbits
 193              		.align	2
 194              		.global	vMBMasterPortTimersConvertDelayEnable
 195              		.thumb
 196              		.thumb_func
 198              	vMBMasterPortTimersConvertDelayEnable:
 199              	.LFB31:
  98:../FreeModbus/stm32/porttimer_m.c **** 
  99:../FreeModbus/stm32/porttimer_m.c **** void vMBMasterPortTimersConvertDelayEnable()
 100:../FreeModbus/stm32/porttimer_m.c **** {
 200              		.loc 1 100 0
 201              		.cfi_startproc
 202              		@ args = 0, pretend = 0, frame = 16
 203              		@ frame_needed = 1, uses_anonymous_args = 0
 204 0000 80B5     		push	{r7, lr}
 205              		.cfi_def_cfa_offset 8
 206              		.cfi_offset 7, -8
 207              		.cfi_offset 14, -4
 208 0002 84B0     		sub	sp, sp, #16
 209              		.cfi_def_cfa_offset 24
 210 0004 00AF     		add	r7, sp, #0
 211              		.cfi_def_cfa_register 7
 101:../FreeModbus/stm32/porttimer_m.c **** 	TIM_TimeBaseInitTypeDef TIM_TimeBaseStructure;
 102:../FreeModbus/stm32/porttimer_m.c **** 
 103:../FreeModbus/stm32/porttimer_m.c **** 	/* Set current timer mode,don't change it.*/
 104:../FreeModbus/stm32/porttimer_m.c **** 	vMBMasterSetCurTimerMode(MB_TMODE_CONVERT_DELAY);
 212              		.loc 1 104 0
 213 0006 0220     		movs	r0, #2
 214 0008 FFF7FEFF 		bl	vMBMasterSetCurTimerMode
 105:../FreeModbus/stm32/porttimer_m.c **** 
 106:../FreeModbus/stm32/porttimer_m.c **** 	TIM_TimeBaseStructure.TIM_Prescaler = usPrescalerValue;
 215              		.loc 1 106 0
 216 000c 40F20003 		movw	r3, #:lower16:usPrescalerValue
 217 0010 C0F20003 		movt	r3, #:upper16:usPrescalerValue
 218 0014 1B88     		ldrh	r3, [r3]
 219 0016 BB80     		strh	r3, [r7, #4]	@ movhi
 107:../FreeModbus/stm32/porttimer_m.c **** 	TIM_TimeBaseStructure.TIM_ClockDivision = 0;
 220              		.loc 1 107 0
 221 0018 0023     		movs	r3, #0
 222 001a 7B81     		strh	r3, [r7, #10]	@ movhi
 108:../FreeModbus/stm32/porttimer_m.c **** 	TIM_TimeBaseStructure.TIM_CounterMode = TIM_CounterMode_Up;
 223              		.loc 1 108 0
 224 001c 0023     		movs	r3, #0
 225 001e FB80     		strh	r3, [r7, #6]	@ movhi
 109:../FreeModbus/stm32/porttimer_m.c **** 	TIM_TimeBaseStructure.TIM_Period = (uint16_t)(MB_MASTER_DELAY_MS_CONVERT * 1000 / 50);
 226              		.loc 1 109 0
 227 0020 4FF47A63 		mov	r3, #4000
 228 0024 3B81     		strh	r3, [r7, #8]	@ movhi
 110:../FreeModbus/stm32/porttimer_m.c **** 	TIM_TimeBaseInit(TIM2, &TIM_TimeBaseStructure);
 229              		.loc 1 110 0
 230 0026 3B1D     		adds	r3, r7, #4
 231 0028 4FF08040 		mov	r0, #1073741824
 232 002c 1946     		mov	r1, r3
 233 002e FFF7FEFF 		bl	TIM_TimeBaseInit
 111:../FreeModbus/stm32/porttimer_m.c **** 
 112:../FreeModbus/stm32/porttimer_m.c **** 	TIM_ClearITPendingBit(TIM2, TIM_IT_Update);
 234              		.loc 1 112 0
 235 0032 4FF08040 		mov	r0, #1073741824
 236 0036 0121     		movs	r1, #1
 237 0038 FFF7FEFF 		bl	TIM_ClearITPendingBit
 113:../FreeModbus/stm32/porttimer_m.c **** 	TIM_ITConfig(TIM2, TIM_IT_Update, ENABLE);
 238              		.loc 1 113 0
 239 003c 4FF08040 		mov	r0, #1073741824
 240 0040 0121     		movs	r1, #1
 241 0042 0122     		movs	r2, #1
 242 0044 FFF7FEFF 		bl	TIM_ITConfig
 114:../FreeModbus/stm32/porttimer_m.c **** 	TIM_SetCounter(TIM2, 0);
 243              		.loc 1 114 0
 244 0048 4FF08040 		mov	r0, #1073741824
 245 004c 0021     		movs	r1, #0
 246 004e FFF7FEFF 		bl	TIM_SetCounter
 115:../FreeModbus/stm32/porttimer_m.c **** 	TIM_Cmd(TIM2, ENABLE);
 247              		.loc 1 115 0
 248 0052 4FF08040 		mov	r0, #1073741824
 249 0056 0121     		movs	r1, #1
 250 0058 FFF7FEFF 		bl	TIM_Cmd
 116:../FreeModbus/stm32/porttimer_m.c **** }
 251              		.loc 1 116 0
 252 005c 1037     		adds	r7, r7, #16
 253 005e BD46     		mov	sp, r7
 254              		@ sp needed
 255 0060 80BD     		pop	{r7, pc}
 256              		.cfi_endproc
 257              	.LFE31:
 259 0062 00BF     		.section	.text.vMBMasterPortTimersRespondTimeoutEnable,"ax",%progbits
 260              		.align	2
 261              		.global	vMBMasterPortTimersRespondTimeoutEnable
 262              		.thumb
 263              		.thumb_func
 265              	vMBMasterPortTimersRespondTimeoutEnable:
 266              	.LFB32:
 117:../FreeModbus/stm32/porttimer_m.c **** 
 118:../FreeModbus/stm32/porttimer_m.c **** void vMBMasterPortTimersRespondTimeoutEnable()
 119:../FreeModbus/stm32/porttimer_m.c **** {
 267              		.loc 1 119 0
 268              		.cfi_startproc
 269              		@ args = 0, pretend = 0, frame = 16
 270              		@ frame_needed = 1, uses_anonymous_args = 0
 271 0000 80B5     		push	{r7, lr}
 272              		.cfi_def_cfa_offset 8
 273              		.cfi_offset 7, -8
 274              		.cfi_offset 14, -4
 275 0002 84B0     		sub	sp, sp, #16
 276              		.cfi_def_cfa_offset 24
 277 0004 00AF     		add	r7, sp, #0
 278              		.cfi_def_cfa_register 7
 120:../FreeModbus/stm32/porttimer_m.c **** 	TIM_TimeBaseInitTypeDef TIM_TimeBaseStructure;
 121:../FreeModbus/stm32/porttimer_m.c **** 
 122:../FreeModbus/stm32/porttimer_m.c **** 	/* Set current timer mode,don't change it.*/
 123:../FreeModbus/stm32/porttimer_m.c **** 	vMBMasterSetCurTimerMode(MB_TMODE_RESPOND_TIMEOUT);
 279              		.loc 1 123 0
 280 0006 0120     		movs	r0, #1
 281 0008 FFF7FEFF 		bl	vMBMasterSetCurTimerMode
 124:../FreeModbus/stm32/porttimer_m.c **** 
 125:../FreeModbus/stm32/porttimer_m.c **** 	TIM_TimeBaseStructure.TIM_Prescaler = usPrescalerValue;
 282              		.loc 1 125 0
 283 000c 40F20003 		movw	r3, #:lower16:usPrescalerValue
 284 0010 C0F20003 		movt	r3, #:upper16:usPrescalerValue
 285 0014 1B88     		ldrh	r3, [r3]
 286 0016 BB80     		strh	r3, [r7, #4]	@ movhi
 126:../FreeModbus/stm32/porttimer_m.c **** 	TIM_TimeBaseStructure.TIM_ClockDivision = 0;
 287              		.loc 1 126 0
 288 0018 0023     		movs	r3, #0
 289 001a 7B81     		strh	r3, [r7, #10]	@ movhi
 127:../FreeModbus/stm32/porttimer_m.c **** 	TIM_TimeBaseStructure.TIM_CounterMode = TIM_CounterMode_Up;
 290              		.loc 1 127 0
 291 001c 0023     		movs	r3, #0
 292 001e FB80     		strh	r3, [r7, #6]	@ movhi
 128:../FreeModbus/stm32/porttimer_m.c **** 	TIM_TimeBaseStructure.TIM_Period = (uint16_t)(MB_MASTER_TIMEOUT_MS_RESPOND * 1000 / 50);
 293              		.loc 1 128 0
 294 0020 4FF4FA63 		mov	r3, #2000
 295 0024 3B81     		strh	r3, [r7, #8]	@ movhi
 129:../FreeModbus/stm32/porttimer_m.c **** 	TIM_TimeBaseInit(TIM2, &TIM_TimeBaseStructure);
 296              		.loc 1 129 0
 297 0026 3B1D     		adds	r3, r7, #4
 298 0028 4FF08040 		mov	r0, #1073741824
 299 002c 1946     		mov	r1, r3
 300 002e FFF7FEFF 		bl	TIM_TimeBaseInit
 130:../FreeModbus/stm32/porttimer_m.c **** 
 131:../FreeModbus/stm32/porttimer_m.c **** 	TIM_ClearITPendingBit(TIM2, TIM_IT_Update);
 301              		.loc 1 131 0
 302 0032 4FF08040 		mov	r0, #1073741824
 303 0036 0121     		movs	r1, #1
 304 0038 FFF7FEFF 		bl	TIM_ClearITPendingBit
 132:../FreeModbus/stm32/porttimer_m.c **** 	TIM_ITConfig(TIM2, TIM_IT_Update, ENABLE);
 305              		.loc 1 132 0
 306 003c 4FF08040 		mov	r0, #1073741824
 307 0040 0121     		movs	r1, #1
 308 0042 0122     		movs	r2, #1
 309 0044 FFF7FEFF 		bl	TIM_ITConfig
 133:../FreeModbus/stm32/porttimer_m.c **** 	TIM_SetCounter(TIM2, 0);
 310              		.loc 1 133 0
 311 0048 4FF08040 		mov	r0, #1073741824
 312 004c 0021     		movs	r1, #0
 313 004e FFF7FEFF 		bl	TIM_SetCounter
 134:../FreeModbus/stm32/porttimer_m.c **** 	TIM_Cmd(TIM2, ENABLE);
 314              		.loc 1 134 0
 315 0052 4FF08040 		mov	r0, #1073741824
 316 0056 0121     		movs	r1, #1
 317 0058 FFF7FEFF 		bl	TIM_Cmd
 135:../FreeModbus/stm32/porttimer_m.c **** }
 318              		.loc 1 135 0
 319 005c 1037     		adds	r7, r7, #16
 320 005e BD46     		mov	sp, r7
 321              		@ sp needed
 322 0060 80BD     		pop	{r7, pc}
 323              		.cfi_endproc
 324              	.LFE32:
 326 0062 00BF     		.section	.text.vMBMasterPortTimersDisable,"ax",%progbits
 327              		.align	2
 328              		.global	vMBMasterPortTimersDisable
 329              		.thumb
 330              		.thumb_func
 332              	vMBMasterPortTimersDisable:
 333              	.LFB33:
 136:../FreeModbus/stm32/porttimer_m.c **** 
 137:../FreeModbus/stm32/porttimer_m.c **** void vMBMasterPortTimersDisable()
 138:../FreeModbus/stm32/porttimer_m.c **** {
 334              		.loc 1 138 0
 335              		.cfi_startproc
 336              		@ args = 0, pretend = 0, frame = 0
 337              		@ frame_needed = 1, uses_anonymous_args = 0
 338 0000 80B5     		push	{r7, lr}
 339              		.cfi_def_cfa_offset 8
 340              		.cfi_offset 7, -8
 341              		.cfi_offset 14, -4
 342 0002 00AF     		add	r7, sp, #0
 343              		.cfi_def_cfa_register 7
 139:../FreeModbus/stm32/porttimer_m.c **** 	TIM_ClearITPendingBit(TIM2, TIM_IT_Update);
 344              		.loc 1 139 0
 345 0004 4FF08040 		mov	r0, #1073741824
 346 0008 0121     		movs	r1, #1
 347 000a FFF7FEFF 		bl	TIM_ClearITPendingBit
 140:../FreeModbus/stm32/porttimer_m.c **** 	TIM_ITConfig(TIM2, TIM_IT_Update, DISABLE);
 348              		.loc 1 140 0
 349 000e 4FF08040 		mov	r0, #1073741824
 350 0012 0121     		movs	r1, #1
 351 0014 0022     		movs	r2, #0
 352 0016 FFF7FEFF 		bl	TIM_ITConfig
 141:../FreeModbus/stm32/porttimer_m.c **** 	TIM_SetCounter(TIM2, 0);
 353              		.loc 1 141 0
 354 001a 4FF08040 		mov	r0, #1073741824
 355 001e 0021     		movs	r1, #0
 356 0020 FFF7FEFF 		bl	TIM_SetCounter
 142:../FreeModbus/stm32/porttimer_m.c **** 	TIM_Cmd(TIM2, DISABLE);
 357              		.loc 1 142 0
 358 0024 4FF08040 		mov	r0, #1073741824
 359 0028 0021     		movs	r1, #0
 360 002a FFF7FEFF 		bl	TIM_Cmd
 143:../FreeModbus/stm32/porttimer_m.c **** }
 361              		.loc 1 143 0
 362 002e 80BD     		pop	{r7, pc}
 363              		.cfi_endproc
 364              	.LFE33:
 366              		.section	.text.prvvTIMERExpiredISR,"ax",%progbits
 367              		.align	2
 368              		.thumb
 369              		.thumb_func
 371              	prvvTIMERExpiredISR:
 372              	.LFB34:
 144:../FreeModbus/stm32/porttimer_m.c **** 
 145:../FreeModbus/stm32/porttimer_m.c **** void prvvTIMERExpiredISR(void)
 146:../FreeModbus/stm32/porttimer_m.c **** {
 373              		.loc 1 146 0
 374              		.cfi_startproc
 375              		@ args = 0, pretend = 0, frame = 0
 376              		@ frame_needed = 1, uses_anonymous_args = 0
 377 0000 80B5     		push	{r7, lr}
 378              		.cfi_def_cfa_offset 8
 379              		.cfi_offset 7, -8
 380              		.cfi_offset 14, -4
 381 0002 00AF     		add	r7, sp, #0
 382              		.cfi_def_cfa_register 7
 147:../FreeModbus/stm32/porttimer_m.c **** 	(void) pxMBMasterPortCBTimerExpired();
 383              		.loc 1 147 0
 384 0004 40F20003 		movw	r3, #:lower16:pxMBMasterPortCBTimerExpired
 385 0008 C0F20003 		movt	r3, #:upper16:pxMBMasterPortCBTimerExpired
 386 000c 1B68     		ldr	r3, [r3]
 387 000e 9847     		blx	r3
 148:../FreeModbus/stm32/porttimer_m.c **** }
 388              		.loc 1 148 0
 389 0010 80BD     		pop	{r7, pc}
 390              		.cfi_endproc
 391              	.LFE34:
 393 0012 00BF     		.section	.text.TIM2_IRQHandler,"ax",%progbits
 394              		.align	2
 395              		.global	TIM2_IRQHandler
 396              		.thumb
 397              		.thumb_func
 399              	TIM2_IRQHandler:
 400              	.LFB35:
 149:../FreeModbus/stm32/porttimer_m.c **** 
 150:../FreeModbus/stm32/porttimer_m.c **** void TIM2_IRQHandler(void)
 151:../FreeModbus/stm32/porttimer_m.c **** {
 401              		.loc 1 151 0
 402              		.cfi_startproc
 403              		@ args = 0, pretend = 0, frame = 0
 404              		@ frame_needed = 1, uses_anonymous_args = 0
 405 0000 80B5     		push	{r7, lr}
 406              		.cfi_def_cfa_offset 8
 407              		.cfi_offset 7, -8
 408              		.cfi_offset 14, -4
 409 0002 00AF     		add	r7, sp, #0
 410              		.cfi_def_cfa_register 7
 152:../FreeModbus/stm32/porttimer_m.c **** 	LedToggle(LED_BUTTON1);
 411              		.loc 1 152 0
 412 0004 4FF48050 		mov	r0, #4096
 413 0008 C4F20100 		movt	r0, 16385
 414 000c 4FF48071 		mov	r1, #256
 415 0010 FFF7FEFF 		bl	LedToggle
 153:../FreeModbus/stm32/porttimer_m.c **** 
 154:../FreeModbus/stm32/porttimer_m.c **** 	if (TIM_GetITStatus(TIM2, TIM_IT_Update) != RESET)
 416              		.loc 1 154 0
 417 0014 4FF08040 		mov	r0, #1073741824
 418 0018 0121     		movs	r1, #1
 419 001a FFF7FEFF 		bl	TIM_GetITStatus
 420 001e 0346     		mov	r3, r0
 421 0020 002B     		cmp	r3, #0
 422 0022 0BD0     		beq	.L8
 155:../FreeModbus/stm32/porttimer_m.c **** 	{
 156:../FreeModbus/stm32/porttimer_m.c **** 
 157:../FreeModbus/stm32/porttimer_m.c **** 		TIM_ClearFlag(TIM2, TIM_FLAG_Update);	     //ÔøΩÔøΩÔøΩ–∂œ±ÔøΩÔøΩÔøΩ
 423              		.loc 1 157 0
 424 0024 4FF08040 		mov	r0, #1073741824
 425 0028 0121     		movs	r1, #1
 426 002a FFF7FEFF 		bl	TIM_ClearFlag
 158:../FreeModbus/stm32/porttimer_m.c **** 		TIM_ClearITPendingBit(TIM2, TIM_IT_Update);	 //ÔøΩÔøΩÔøΩÔøΩÔøΩÔøΩ ±ÔøΩÔøΩTIM2ÔøΩÔøΩÔøΩÔøΩÔøΩ–∂œ±Ô
 427              		.loc 1 158 0
 428 002e 4FF08040 		mov	r0, #1073741824
 429 0032 0121     		movs	r1, #1
 430 0034 FFF7FEFF 		bl	TIM_ClearITPendingBit
 159:../FreeModbus/stm32/porttimer_m.c **** 		prvvTIMERExpiredISR();
 431              		.loc 1 159 0
 432 0038 FFF7FEFF 		bl	prvvTIMERExpiredISR
 433              	.L8:
 160:../FreeModbus/stm32/porttimer_m.c **** 	}
 161:../FreeModbus/stm32/porttimer_m.c **** }
 434              		.loc 1 161 0
 435 003c 80BD     		pop	{r7, pc}
 436              		.cfi_endproc
 437              	.LFE35:
 439 003e 00BF     		.text
 440              	.Letext0:
 441              		.file 2 "c:\\tools\\arm-none-eabi\\include\\stdint.h"
 442              		.file 3 "D:\\pall\\workspace\\Snack_stm32_drv_modbus\\Libraries\\CMSIS/stm32f10x.h"
 443              		.file 4 "../FreeModbus/stm32/port.h"
 444              		.file 5 "D:\\pall\\workspace\\Snack_stm32_drv_modbus\\FreeModbus\\include/mb_m.h"
 445              		.file 6 "D:\\pall\\workspace\\Snack_stm32_drv_modbus\\Libraries\\StdPeripheralDriver\\inc/stm32f10
 446              		.file 7 "D:\\pall\\workspace\\Snack_stm32_drv_modbus\\Libraries\\StdPeripheralDriver\\inc/misc.h"
 447              		.file 8 "D:\\pall\\workspace\\Snack_stm32_drv_modbus\\Libraries\\CMSIS/core_cm3.h"
 448              		.file 9 "D:\\pall\\workspace\\Snack_stm32_drv_modbus\\Libraries\\CMSIS/system_stm32f10x.h"
 449              		.file 10 "D:\\pall\\workspace\\Snack_stm32_drv_modbus\\FreeModbus\\include/mbport.h"