   1              		.syntax unified
   2              		.cpu cortex-m3
   3              		.fpu softvfp
   4              		.eabi_attribute 20, 1
   5              		.eabi_attribute 21, 1
   6              		.eabi_attribute 23, 3
   7              		.eabi_attribute 24, 1
   8              		.eabi_attribute 25, 1
   9              		.eabi_attribute 26, 1
  10              		.eabi_attribute 30, 6
  11              		.eabi_attribute 34, 1
  12              		.eabi_attribute 18, 4
  13              		.thumb
  14              		.file	"stm32f10x_tim.c"
  15              		.text
  16              	.Ltext0:
  17              		.cfi_sections	.debug_frame
  18              		.section	.text.TIM_DeInit,"ax",%progbits
  19              		.align	2
  20              		.global	TIM_DeInit
  21              		.thumb
  22              		.thumb_func
  24              	TIM_DeInit:
  25              	.LFB29:
  26              		.file 1 "../Libraries/StdPeripheralDriver/src/stm32f10x_tim.c"
   1:../Libraries/StdPeripheralDriver/src/stm32f10x_tim.c **** /**
   2:../Libraries/StdPeripheralDriver/src/stm32f10x_tim.c ****   ******************************************************************************
   3:../Libraries/StdPeripheralDriver/src/stm32f10x_tim.c ****   * @file    stm32f10x_tim.c
   4:../Libraries/StdPeripheralDriver/src/stm32f10x_tim.c ****   * @author  MCD Application Team
   5:../Libraries/StdPeripheralDriver/src/stm32f10x_tim.c ****   * @version V3.5.0
   6:../Libraries/StdPeripheralDriver/src/stm32f10x_tim.c ****   * @date    11-March-2011
   7:../Libraries/StdPeripheralDriver/src/stm32f10x_tim.c ****   * @brief   This file provides all the TIM firmware functions.
   8:../Libraries/StdPeripheralDriver/src/stm32f10x_tim.c ****   ******************************************************************************
   9:../Libraries/StdPeripheralDriver/src/stm32f10x_tim.c ****   * @attention
  10:../Libraries/StdPeripheralDriver/src/stm32f10x_tim.c ****   *
  11:../Libraries/StdPeripheralDriver/src/stm32f10x_tim.c ****   * THE PRESENT FIRMWARE WHICH IS FOR GUIDANCE ONLY AIMS AT PROVIDING CUSTOMERS
  12:../Libraries/StdPeripheralDriver/src/stm32f10x_tim.c ****   * WITH CODING INFORMATION REGARDING THEIR PRODUCTS IN ORDER FOR THEM TO SAVE
  13:../Libraries/StdPeripheralDriver/src/stm32f10x_tim.c ****   * TIME. AS A RESULT, STMICROELECTRONICS SHALL NOT BE HELD LIABLE FOR ANY
  14:../Libraries/StdPeripheralDriver/src/stm32f10x_tim.c ****   * DIRECT, INDIRECT OR CONSEQUENTIAL DAMAGES WITH RESPECT TO ANY CLAIMS ARISING
  15:../Libraries/StdPeripheralDriver/src/stm32f10x_tim.c ****   * FROM THE CONTENT OF SUCH FIRMWARE AND/OR THE USE MADE BY CUSTOMERS OF THE
  16:../Libraries/StdPeripheralDriver/src/stm32f10x_tim.c ****   * CODING INFORMATION CONTAINED HEREIN IN CONNECTION WITH THEIR PRODUCTS.
  17:../Libraries/StdPeripheralDriver/src/stm32f10x_tim.c ****   *
  18:../Libraries/StdPeripheralDriver/src/stm32f10x_tim.c ****   * <h2><center>&copy; COPYRIGHT 2011 STMicroelectronics</center></h2>
  19:../Libraries/StdPeripheralDriver/src/stm32f10x_tim.c ****   ******************************************************************************
  20:../Libraries/StdPeripheralDriver/src/stm32f10x_tim.c ****   */
  21:../Libraries/StdPeripheralDriver/src/stm32f10x_tim.c **** 
  22:../Libraries/StdPeripheralDriver/src/stm32f10x_tim.c **** /* Includes ------------------------------------------------------------------*/
  23:../Libraries/StdPeripheralDriver/src/stm32f10x_tim.c **** #include "stm32f10x_tim.h"
  24:../Libraries/StdPeripheralDriver/src/stm32f10x_tim.c **** #include "stm32f10x_rcc.h"
  25:../Libraries/StdPeripheralDriver/src/stm32f10x_tim.c **** 
  26:../Libraries/StdPeripheralDriver/src/stm32f10x_tim.c **** /** @addtogroup STM32F10x_StdPeriph_Driver
  27:../Libraries/StdPeripheralDriver/src/stm32f10x_tim.c ****   * @{
  28:../Libraries/StdPeripheralDriver/src/stm32f10x_tim.c ****   */
  29:../Libraries/StdPeripheralDriver/src/stm32f10x_tim.c **** 
  30:../Libraries/StdPeripheralDriver/src/stm32f10x_tim.c **** /** @defgroup TIM 
  31:../Libraries/StdPeripheralDriver/src/stm32f10x_tim.c ****   * @brief TIM driver modules
  32:../Libraries/StdPeripheralDriver/src/stm32f10x_tim.c ****   * @{
  33:../Libraries/StdPeripheralDriver/src/stm32f10x_tim.c ****   */
  34:../Libraries/StdPeripheralDriver/src/stm32f10x_tim.c **** 
  35:../Libraries/StdPeripheralDriver/src/stm32f10x_tim.c **** /** @defgroup TIM_Private_TypesDefinitions
  36:../Libraries/StdPeripheralDriver/src/stm32f10x_tim.c ****   * @{
  37:../Libraries/StdPeripheralDriver/src/stm32f10x_tim.c ****   */
  38:../Libraries/StdPeripheralDriver/src/stm32f10x_tim.c **** 
  39:../Libraries/StdPeripheralDriver/src/stm32f10x_tim.c **** /**
  40:../Libraries/StdPeripheralDriver/src/stm32f10x_tim.c ****   * @}
  41:../Libraries/StdPeripheralDriver/src/stm32f10x_tim.c ****   */
  42:../Libraries/StdPeripheralDriver/src/stm32f10x_tim.c **** 
  43:../Libraries/StdPeripheralDriver/src/stm32f10x_tim.c **** /** @defgroup TIM_Private_Defines
  44:../Libraries/StdPeripheralDriver/src/stm32f10x_tim.c ****   * @{
  45:../Libraries/StdPeripheralDriver/src/stm32f10x_tim.c ****   */
  46:../Libraries/StdPeripheralDriver/src/stm32f10x_tim.c **** 
  47:../Libraries/StdPeripheralDriver/src/stm32f10x_tim.c **** /* ---------------------- TIM registers bit mask ------------------------ */
  48:../Libraries/StdPeripheralDriver/src/stm32f10x_tim.c **** #define SMCR_ETR_Mask               ((uint16_t)0x00FF) 
  49:../Libraries/StdPeripheralDriver/src/stm32f10x_tim.c **** #define CCMR_Offset                 ((uint16_t)0x0018)
  50:../Libraries/StdPeripheralDriver/src/stm32f10x_tim.c **** #define CCER_CCE_Set                ((uint16_t)0x0001)  
  51:../Libraries/StdPeripheralDriver/src/stm32f10x_tim.c **** #define	CCER_CCNE_Set               ((uint16_t)0x0004) 
  52:../Libraries/StdPeripheralDriver/src/stm32f10x_tim.c **** 
  53:../Libraries/StdPeripheralDriver/src/stm32f10x_tim.c **** /**
  54:../Libraries/StdPeripheralDriver/src/stm32f10x_tim.c ****   * @}
  55:../Libraries/StdPeripheralDriver/src/stm32f10x_tim.c ****   */
  56:../Libraries/StdPeripheralDriver/src/stm32f10x_tim.c **** 
  57:../Libraries/StdPeripheralDriver/src/stm32f10x_tim.c **** /** @defgroup TIM_Private_Macros
  58:../Libraries/StdPeripheralDriver/src/stm32f10x_tim.c ****   * @{
  59:../Libraries/StdPeripheralDriver/src/stm32f10x_tim.c ****   */
  60:../Libraries/StdPeripheralDriver/src/stm32f10x_tim.c **** 
  61:../Libraries/StdPeripheralDriver/src/stm32f10x_tim.c **** /**
  62:../Libraries/StdPeripheralDriver/src/stm32f10x_tim.c ****   * @}
  63:../Libraries/StdPeripheralDriver/src/stm32f10x_tim.c ****   */
  64:../Libraries/StdPeripheralDriver/src/stm32f10x_tim.c **** 
  65:../Libraries/StdPeripheralDriver/src/stm32f10x_tim.c **** /** @defgroup TIM_Private_Variables
  66:../Libraries/StdPeripheralDriver/src/stm32f10x_tim.c ****   * @{
  67:../Libraries/StdPeripheralDriver/src/stm32f10x_tim.c ****   */
  68:../Libraries/StdPeripheralDriver/src/stm32f10x_tim.c **** 
  69:../Libraries/StdPeripheralDriver/src/stm32f10x_tim.c **** /**
  70:../Libraries/StdPeripheralDriver/src/stm32f10x_tim.c ****   * @}
  71:../Libraries/StdPeripheralDriver/src/stm32f10x_tim.c ****   */
  72:../Libraries/StdPeripheralDriver/src/stm32f10x_tim.c **** 
  73:../Libraries/StdPeripheralDriver/src/stm32f10x_tim.c **** /** @defgroup TIM_Private_FunctionPrototypes
  74:../Libraries/StdPeripheralDriver/src/stm32f10x_tim.c ****   * @{
  75:../Libraries/StdPeripheralDriver/src/stm32f10x_tim.c ****   */
  76:../Libraries/StdPeripheralDriver/src/stm32f10x_tim.c **** 
  77:../Libraries/StdPeripheralDriver/src/stm32f10x_tim.c **** static void TI1_Config(TIM_TypeDef* TIMx, uint16_t TIM_ICPolarity, uint16_t TIM_ICSelection,
  78:../Libraries/StdPeripheralDriver/src/stm32f10x_tim.c ****                        uint16_t TIM_ICFilter);
  79:../Libraries/StdPeripheralDriver/src/stm32f10x_tim.c **** static void TI2_Config(TIM_TypeDef* TIMx, uint16_t TIM_ICPolarity, uint16_t TIM_ICSelection,
  80:../Libraries/StdPeripheralDriver/src/stm32f10x_tim.c ****                        uint16_t TIM_ICFilter);
  81:../Libraries/StdPeripheralDriver/src/stm32f10x_tim.c **** static void TI3_Config(TIM_TypeDef* TIMx, uint16_t TIM_ICPolarity, uint16_t TIM_ICSelection,
  82:../Libraries/StdPeripheralDriver/src/stm32f10x_tim.c ****                        uint16_t TIM_ICFilter);
  83:../Libraries/StdPeripheralDriver/src/stm32f10x_tim.c **** static void TI4_Config(TIM_TypeDef* TIMx, uint16_t TIM_ICPolarity, uint16_t TIM_ICSelection,
  84:../Libraries/StdPeripheralDriver/src/stm32f10x_tim.c ****                        uint16_t TIM_ICFilter);
  85:../Libraries/StdPeripheralDriver/src/stm32f10x_tim.c **** /**
  86:../Libraries/StdPeripheralDriver/src/stm32f10x_tim.c ****   * @}
  87:../Libraries/StdPeripheralDriver/src/stm32f10x_tim.c ****   */
  88:../Libraries/StdPeripheralDriver/src/stm32f10x_tim.c **** 
  89:../Libraries/StdPeripheralDriver/src/stm32f10x_tim.c **** /** @defgroup TIM_Private_Macros
  90:../Libraries/StdPeripheralDriver/src/stm32f10x_tim.c ****   * @{
  91:../Libraries/StdPeripheralDriver/src/stm32f10x_tim.c ****   */
  92:../Libraries/StdPeripheralDriver/src/stm32f10x_tim.c **** 
  93:../Libraries/StdPeripheralDriver/src/stm32f10x_tim.c **** /**
  94:../Libraries/StdPeripheralDriver/src/stm32f10x_tim.c ****   * @}
  95:../Libraries/StdPeripheralDriver/src/stm32f10x_tim.c ****   */
  96:../Libraries/StdPeripheralDriver/src/stm32f10x_tim.c **** 
  97:../Libraries/StdPeripheralDriver/src/stm32f10x_tim.c **** /** @defgroup TIM_Private_Variables
  98:../Libraries/StdPeripheralDriver/src/stm32f10x_tim.c ****   * @{
  99:../Libraries/StdPeripheralDriver/src/stm32f10x_tim.c ****   */
 100:../Libraries/StdPeripheralDriver/src/stm32f10x_tim.c **** 
 101:../Libraries/StdPeripheralDriver/src/stm32f10x_tim.c **** /**
 102:../Libraries/StdPeripheralDriver/src/stm32f10x_tim.c ****   * @}
 103:../Libraries/StdPeripheralDriver/src/stm32f10x_tim.c ****   */
 104:../Libraries/StdPeripheralDriver/src/stm32f10x_tim.c **** 
 105:../Libraries/StdPeripheralDriver/src/stm32f10x_tim.c **** /** @defgroup TIM_Private_FunctionPrototypes
 106:../Libraries/StdPeripheralDriver/src/stm32f10x_tim.c ****   * @{
 107:../Libraries/StdPeripheralDriver/src/stm32f10x_tim.c ****   */
 108:../Libraries/StdPeripheralDriver/src/stm32f10x_tim.c **** 
 109:../Libraries/StdPeripheralDriver/src/stm32f10x_tim.c **** /**
 110:../Libraries/StdPeripheralDriver/src/stm32f10x_tim.c ****   * @}
 111:../Libraries/StdPeripheralDriver/src/stm32f10x_tim.c ****   */
 112:../Libraries/StdPeripheralDriver/src/stm32f10x_tim.c **** 
 113:../Libraries/StdPeripheralDriver/src/stm32f10x_tim.c **** /** @defgroup TIM_Private_Functions
 114:../Libraries/StdPeripheralDriver/src/stm32f10x_tim.c ****   * @{
 115:../Libraries/StdPeripheralDriver/src/stm32f10x_tim.c ****   */
 116:../Libraries/StdPeripheralDriver/src/stm32f10x_tim.c **** 
 117:../Libraries/StdPeripheralDriver/src/stm32f10x_tim.c **** /**
 118:../Libraries/StdPeripheralDriver/src/stm32f10x_tim.c ****   * @brief  Deinitializes the TIMx peripheral registers to their default reset values.
 119:../Libraries/StdPeripheralDriver/src/stm32f10x_tim.c ****   * @param  TIMx: where x can be 1 to 17 to select the TIM peripheral.
 120:../Libraries/StdPeripheralDriver/src/stm32f10x_tim.c ****   * @retval None
 121:../Libraries/StdPeripheralDriver/src/stm32f10x_tim.c ****   */
 122:../Libraries/StdPeripheralDriver/src/stm32f10x_tim.c **** void TIM_DeInit(TIM_TypeDef* TIMx)
 123:../Libraries/StdPeripheralDriver/src/stm32f10x_tim.c **** {
  27              		.loc 1 123 0
  28              		.cfi_startproc
  29              		@ args = 0, pretend = 0, frame = 8
  30              		@ frame_needed = 1, uses_anonymous_args = 0
  31 0000 80B5     		push	{r7, lr}
  32              		.cfi_def_cfa_offset 8
  33              		.cfi_offset 7, -8
  34              		.cfi_offset 14, -4
  35 0002 82B0     		sub	sp, sp, #8
  36              		.cfi_def_cfa_offset 16
  37 0004 00AF     		add	r7, sp, #0
  38              		.cfi_def_cfa_register 7
  39 0006 7860     		str	r0, [r7, #4]
 124:../Libraries/StdPeripheralDriver/src/stm32f10x_tim.c ****   /* Check the parameters */
 125:../Libraries/StdPeripheralDriver/src/stm32f10x_tim.c ****   assert_param(IS_TIM_ALL_PERIPH(TIMx)); 
 126:../Libraries/StdPeripheralDriver/src/stm32f10x_tim.c ****  
 127:../Libraries/StdPeripheralDriver/src/stm32f10x_tim.c ****   if (TIMx == TIM1)
  40              		.loc 1 127 0
  41 0008 7A68     		ldr	r2, [r7, #4]
  42 000a 4FF43053 		mov	r3, #11264
  43 000e C4F20103 		movt	r3, 16385
  44 0012 9A42     		cmp	r2, r3
  45 0014 0AD1     		bne	.L2
 128:../Libraries/StdPeripheralDriver/src/stm32f10x_tim.c ****   {
 129:../Libraries/StdPeripheralDriver/src/stm32f10x_tim.c ****     RCC_APB2PeriphResetCmd(RCC_APB2Periph_TIM1, ENABLE);
  46              		.loc 1 129 0
  47 0016 4FF40060 		mov	r0, #2048
  48 001a 0121     		movs	r1, #1
  49 001c FFF7FEFF 		bl	RCC_APB2PeriphResetCmd
 130:../Libraries/StdPeripheralDriver/src/stm32f10x_tim.c ****     RCC_APB2PeriphResetCmd(RCC_APB2Periph_TIM1, DISABLE);  
  50              		.loc 1 130 0
  51 0020 4FF40060 		mov	r0, #2048
  52 0024 0021     		movs	r1, #0
  53 0026 FFF7FEFF 		bl	RCC_APB2PeriphResetCmd
  54 002a 0BE1     		b	.L1
  55              	.L2:
 131:../Libraries/StdPeripheralDriver/src/stm32f10x_tim.c ****   }     
 132:../Libraries/StdPeripheralDriver/src/stm32f10x_tim.c ****   else if (TIMx == TIM2)
  56              		.loc 1 132 0
  57 002c 7B68     		ldr	r3, [r7, #4]
  58 002e B3F1804F 		cmp	r3, #1073741824
  59 0032 08D1     		bne	.L4
 133:../Libraries/StdPeripheralDriver/src/stm32f10x_tim.c ****   {
 134:../Libraries/StdPeripheralDriver/src/stm32f10x_tim.c ****     RCC_APB1PeriphResetCmd(RCC_APB1Periph_TIM2, ENABLE);
  60              		.loc 1 134 0
  61 0034 0120     		movs	r0, #1
  62 0036 0121     		movs	r1, #1
  63 0038 FFF7FEFF 		bl	RCC_APB1PeriphResetCmd
 135:../Libraries/StdPeripheralDriver/src/stm32f10x_tim.c ****     RCC_APB1PeriphResetCmd(RCC_APB1Periph_TIM2, DISABLE);
  64              		.loc 1 135 0
  65 003c 0120     		movs	r0, #1
  66 003e 0021     		movs	r1, #0
  67 0040 FFF7FEFF 		bl	RCC_APB1PeriphResetCmd
  68 0044 FEE0     		b	.L1
  69              	.L4:
 136:../Libraries/StdPeripheralDriver/src/stm32f10x_tim.c ****   }
 137:../Libraries/StdPeripheralDriver/src/stm32f10x_tim.c ****   else if (TIMx == TIM3)
  70              		.loc 1 137 0
  71 0046 7A68     		ldr	r2, [r7, #4]
  72 0048 4FF48063 		mov	r3, #1024
  73 004c C4F20003 		movt	r3, 16384
  74 0050 9A42     		cmp	r2, r3
  75 0052 08D1     		bne	.L5
 138:../Libraries/StdPeripheralDriver/src/stm32f10x_tim.c ****   {
 139:../Libraries/StdPeripheralDriver/src/stm32f10x_tim.c ****     RCC_APB1PeriphResetCmd(RCC_APB1Periph_TIM3, ENABLE);
  76              		.loc 1 139 0
  77 0054 0220     		movs	r0, #2
  78 0056 0121     		movs	r1, #1
  79 0058 FFF7FEFF 		bl	RCC_APB1PeriphResetCmd
 140:../Libraries/StdPeripheralDriver/src/stm32f10x_tim.c ****     RCC_APB1PeriphResetCmd(RCC_APB1Periph_TIM3, DISABLE);
  80              		.loc 1 140 0
  81 005c 0220     		movs	r0, #2
  82 005e 0021     		movs	r1, #0
  83 0060 FFF7FEFF 		bl	RCC_APB1PeriphResetCmd
  84 0064 EEE0     		b	.L1
  85              	.L5:
 141:../Libraries/StdPeripheralDriver/src/stm32f10x_tim.c ****   }
 142:../Libraries/StdPeripheralDriver/src/stm32f10x_tim.c ****   else if (TIMx == TIM4)
  86              		.loc 1 142 0
  87 0066 7A68     		ldr	r2, [r7, #4]
  88 0068 4FF40063 		mov	r3, #2048
  89 006c C4F20003 		movt	r3, 16384
  90 0070 9A42     		cmp	r2, r3
  91 0072 08D1     		bne	.L6
 143:../Libraries/StdPeripheralDriver/src/stm32f10x_tim.c ****   {
 144:../Libraries/StdPeripheralDriver/src/stm32f10x_tim.c ****     RCC_APB1PeriphResetCmd(RCC_APB1Periph_TIM4, ENABLE);
  92              		.loc 1 144 0
  93 0074 0420     		movs	r0, #4
  94 0076 0121     		movs	r1, #1
  95 0078 FFF7FEFF 		bl	RCC_APB1PeriphResetCmd
 145:../Libraries/StdPeripheralDriver/src/stm32f10x_tim.c ****     RCC_APB1PeriphResetCmd(RCC_APB1Periph_TIM4, DISABLE);
  96              		.loc 1 145 0
  97 007c 0420     		movs	r0, #4
  98 007e 0021     		movs	r1, #0
  99 0080 FFF7FEFF 		bl	RCC_APB1PeriphResetCmd
 100 0084 DEE0     		b	.L1
 101              	.L6:
 146:../Libraries/StdPeripheralDriver/src/stm32f10x_tim.c ****   } 
 147:../Libraries/StdPeripheralDriver/src/stm32f10x_tim.c ****   else if (TIMx == TIM5)
 102              		.loc 1 147 0
 103 0086 7A68     		ldr	r2, [r7, #4]
 104 0088 4FF44063 		mov	r3, #3072
 105 008c C4F20003 		movt	r3, 16384
 106 0090 9A42     		cmp	r2, r3
 107 0092 08D1     		bne	.L7
 148:../Libraries/StdPeripheralDriver/src/stm32f10x_tim.c ****   {
 149:../Libraries/StdPeripheralDriver/src/stm32f10x_tim.c ****     RCC_APB1PeriphResetCmd(RCC_APB1Periph_TIM5, ENABLE);
 108              		.loc 1 149 0
 109 0094 0820     		movs	r0, #8
 110 0096 0121     		movs	r1, #1
 111 0098 FFF7FEFF 		bl	RCC_APB1PeriphResetCmd
 150:../Libraries/StdPeripheralDriver/src/stm32f10x_tim.c ****     RCC_APB1PeriphResetCmd(RCC_APB1Periph_TIM5, DISABLE);
 112              		.loc 1 150 0
 113 009c 0820     		movs	r0, #8
 114 009e 0021     		movs	r1, #0
 115 00a0 FFF7FEFF 		bl	RCC_APB1PeriphResetCmd
 116 00a4 CEE0     		b	.L1
 117              	.L7:
 151:../Libraries/StdPeripheralDriver/src/stm32f10x_tim.c ****   } 
 152:../Libraries/StdPeripheralDriver/src/stm32f10x_tim.c ****   else if (TIMx == TIM6)
 118              		.loc 1 152 0
 119 00a6 7A68     		ldr	r2, [r7, #4]
 120 00a8 4FF48053 		mov	r3, #4096
 121 00ac C4F20003 		movt	r3, 16384
 122 00b0 9A42     		cmp	r2, r3
 123 00b2 08D1     		bne	.L8
 153:../Libraries/StdPeripheralDriver/src/stm32f10x_tim.c ****   {
 154:../Libraries/StdPeripheralDriver/src/stm32f10x_tim.c ****     RCC_APB1PeriphResetCmd(RCC_APB1Periph_TIM6, ENABLE);
 124              		.loc 1 154 0
 125 00b4 1020     		movs	r0, #16
 126 00b6 0121     		movs	r1, #1
 127 00b8 FFF7FEFF 		bl	RCC_APB1PeriphResetCmd
 155:../Libraries/StdPeripheralDriver/src/stm32f10x_tim.c ****     RCC_APB1PeriphResetCmd(RCC_APB1Periph_TIM6, DISABLE);
 128              		.loc 1 155 0
 129 00bc 1020     		movs	r0, #16
 130 00be 0021     		movs	r1, #0
 131 00c0 FFF7FEFF 		bl	RCC_APB1PeriphResetCmd
 132 00c4 BEE0     		b	.L1
 133              	.L8:
 156:../Libraries/StdPeripheralDriver/src/stm32f10x_tim.c ****   } 
 157:../Libraries/StdPeripheralDriver/src/stm32f10x_tim.c ****   else if (TIMx == TIM7)
 134              		.loc 1 157 0
 135 00c6 7A68     		ldr	r2, [r7, #4]
 136 00c8 4FF4A053 		mov	r3, #5120
 137 00cc C4F20003 		movt	r3, 16384
 138 00d0 9A42     		cmp	r2, r3
 139 00d2 08D1     		bne	.L9
 158:../Libraries/StdPeripheralDriver/src/stm32f10x_tim.c ****   {
 159:../Libraries/StdPeripheralDriver/src/stm32f10x_tim.c ****     RCC_APB1PeriphResetCmd(RCC_APB1Periph_TIM7, ENABLE);
 140              		.loc 1 159 0
 141 00d4 2020     		movs	r0, #32
 142 00d6 0121     		movs	r1, #1
 143 00d8 FFF7FEFF 		bl	RCC_APB1PeriphResetCmd
 160:../Libraries/StdPeripheralDriver/src/stm32f10x_tim.c ****     RCC_APB1PeriphResetCmd(RCC_APB1Periph_TIM7, DISABLE);
 144              		.loc 1 160 0
 145 00dc 2020     		movs	r0, #32
 146 00de 0021     		movs	r1, #0
 147 00e0 FFF7FEFF 		bl	RCC_APB1PeriphResetCmd
 148 00e4 AEE0     		b	.L1
 149              	.L9:
 161:../Libraries/StdPeripheralDriver/src/stm32f10x_tim.c ****   } 
 162:../Libraries/StdPeripheralDriver/src/stm32f10x_tim.c ****   else if (TIMx == TIM8)
 150              		.loc 1 162 0
 151 00e6 7A68     		ldr	r2, [r7, #4]
 152 00e8 4FF45053 		mov	r3, #13312
 153 00ec C4F20103 		movt	r3, 16385
 154 00f0 9A42     		cmp	r2, r3
 155 00f2 0AD1     		bne	.L10
 163:../Libraries/StdPeripheralDriver/src/stm32f10x_tim.c ****   {
 164:../Libraries/StdPeripheralDriver/src/stm32f10x_tim.c ****     RCC_APB2PeriphResetCmd(RCC_APB2Periph_TIM8, ENABLE);
 156              		.loc 1 164 0
 157 00f4 4FF40050 		mov	r0, #8192
 158 00f8 0121     		movs	r1, #1
 159 00fa FFF7FEFF 		bl	RCC_APB2PeriphResetCmd
 165:../Libraries/StdPeripheralDriver/src/stm32f10x_tim.c ****     RCC_APB2PeriphResetCmd(RCC_APB2Periph_TIM8, DISABLE);
 160              		.loc 1 165 0
 161 00fe 4FF40050 		mov	r0, #8192
 162 0102 0021     		movs	r1, #0
 163 0104 FFF7FEFF 		bl	RCC_APB2PeriphResetCmd
 164 0108 9CE0     		b	.L1
 165              	.L10:
 166:../Libraries/StdPeripheralDriver/src/stm32f10x_tim.c ****   }
 167:../Libraries/StdPeripheralDriver/src/stm32f10x_tim.c ****   else if (TIMx == TIM9)
 166              		.loc 1 167 0
 167 010a 7A68     		ldr	r2, [r7, #4]
 168 010c 4FF49843 		mov	r3, #19456
 169 0110 C4F20103 		movt	r3, 16385
 170 0114 9A42     		cmp	r2, r3
 171 0116 0AD1     		bne	.L11
 168:../Libraries/StdPeripheralDriver/src/stm32f10x_tim.c ****   {      
 169:../Libraries/StdPeripheralDriver/src/stm32f10x_tim.c ****     RCC_APB2PeriphResetCmd(RCC_APB2Periph_TIM9, ENABLE);
 172              		.loc 1 169 0
 173 0118 4FF40020 		mov	r0, #524288
 174 011c 0121     		movs	r1, #1
 175 011e FFF7FEFF 		bl	RCC_APB2PeriphResetCmd
 170:../Libraries/StdPeripheralDriver/src/stm32f10x_tim.c ****     RCC_APB2PeriphResetCmd(RCC_APB2Periph_TIM9, DISABLE);  
 176              		.loc 1 170 0
 177 0122 4FF40020 		mov	r0, #524288
 178 0126 0021     		movs	r1, #0
 179 0128 FFF7FEFF 		bl	RCC_APB2PeriphResetCmd
 180 012c 8AE0     		b	.L1
 181              	.L11:
 171:../Libraries/StdPeripheralDriver/src/stm32f10x_tim.c ****    }  
 172:../Libraries/StdPeripheralDriver/src/stm32f10x_tim.c ****   else if (TIMx == TIM10)
 182              		.loc 1 172 0
 183 012e 7A68     		ldr	r2, [r7, #4]
 184 0130 4FF4A043 		mov	r3, #20480
 185 0134 C4F20103 		movt	r3, 16385
 186 0138 9A42     		cmp	r2, r3
 187 013a 0AD1     		bne	.L12
 173:../Libraries/StdPeripheralDriver/src/stm32f10x_tim.c ****   {      
 174:../Libraries/StdPeripheralDriver/src/stm32f10x_tim.c ****     RCC_APB2PeriphResetCmd(RCC_APB2Periph_TIM10, ENABLE);
 188              		.loc 1 174 0
 189 013c 4FF48010 		mov	r0, #1048576
 190 0140 0121     		movs	r1, #1
 191 0142 FFF7FEFF 		bl	RCC_APB2PeriphResetCmd
 175:../Libraries/StdPeripheralDriver/src/stm32f10x_tim.c ****     RCC_APB2PeriphResetCmd(RCC_APB2Periph_TIM10, DISABLE);  
 192              		.loc 1 175 0
 193 0146 4FF48010 		mov	r0, #1048576
 194 014a 0021     		movs	r1, #0
 195 014c FFF7FEFF 		bl	RCC_APB2PeriphResetCmd
 196 0150 78E0     		b	.L1
 197              	.L12:
 176:../Libraries/StdPeripheralDriver/src/stm32f10x_tim.c ****   }  
 177:../Libraries/StdPeripheralDriver/src/stm32f10x_tim.c ****   else if (TIMx == TIM11) 
 198              		.loc 1 177 0
 199 0152 7A68     		ldr	r2, [r7, #4]
 200 0154 4FF4A843 		mov	r3, #21504
 201 0158 C4F20103 		movt	r3, 16385
 202 015c 9A42     		cmp	r2, r3
 203 015e 0AD1     		bne	.L13
 178:../Libraries/StdPeripheralDriver/src/stm32f10x_tim.c ****   {     
 179:../Libraries/StdPeripheralDriver/src/stm32f10x_tim.c ****     RCC_APB2PeriphResetCmd(RCC_APB2Periph_TIM11, ENABLE);
 204              		.loc 1 179 0
 205 0160 4FF40010 		mov	r0, #2097152
 206 0164 0121     		movs	r1, #1
 207 0166 FFF7FEFF 		bl	RCC_APB2PeriphResetCmd
 180:../Libraries/StdPeripheralDriver/src/stm32f10x_tim.c ****     RCC_APB2PeriphResetCmd(RCC_APB2Periph_TIM11, DISABLE);  
 208              		.loc 1 180 0
 209 016a 4FF40010 		mov	r0, #2097152
 210 016e 0021     		movs	r1, #0
 211 0170 FFF7FEFF 		bl	RCC_APB2PeriphResetCmd
 212 0174 66E0     		b	.L1
 213              	.L13:
 181:../Libraries/StdPeripheralDriver/src/stm32f10x_tim.c ****   }  
 182:../Libraries/StdPeripheralDriver/src/stm32f10x_tim.c ****   else if (TIMx == TIM12)
 214              		.loc 1 182 0
 215 0176 7A68     		ldr	r2, [r7, #4]
 216 0178 4FF4C053 		mov	r3, #6144
 217 017c C4F20003 		movt	r3, 16384
 218 0180 9A42     		cmp	r2, r3
 219 0182 08D1     		bne	.L14
 183:../Libraries/StdPeripheralDriver/src/stm32f10x_tim.c ****   {      
 184:../Libraries/StdPeripheralDriver/src/stm32f10x_tim.c ****     RCC_APB1PeriphResetCmd(RCC_APB1Periph_TIM12, ENABLE);
 220              		.loc 1 184 0
 221 0184 4020     		movs	r0, #64
 222 0186 0121     		movs	r1, #1
 223 0188 FFF7FEFF 		bl	RCC_APB1PeriphResetCmd
 185:../Libraries/StdPeripheralDriver/src/stm32f10x_tim.c ****     RCC_APB1PeriphResetCmd(RCC_APB1Periph_TIM12, DISABLE);  
 224              		.loc 1 185 0
 225 018c 4020     		movs	r0, #64
 226 018e 0021     		movs	r1, #0
 227 0190 FFF7FEFF 		bl	RCC_APB1PeriphResetCmd
 228 0194 56E0     		b	.L1
 229              	.L14:
 186:../Libraries/StdPeripheralDriver/src/stm32f10x_tim.c ****   }  
 187:../Libraries/StdPeripheralDriver/src/stm32f10x_tim.c ****   else if (TIMx == TIM13) 
 230              		.loc 1 187 0
 231 0196 7A68     		ldr	r2, [r7, #4]
 232 0198 4FF4E053 		mov	r3, #7168
 233 019c C4F20003 		movt	r3, 16384
 234 01a0 9A42     		cmp	r2, r3
 235 01a2 08D1     		bne	.L15
 188:../Libraries/StdPeripheralDriver/src/stm32f10x_tim.c ****   {       
 189:../Libraries/StdPeripheralDriver/src/stm32f10x_tim.c ****     RCC_APB1PeriphResetCmd(RCC_APB1Periph_TIM13, ENABLE);
 236              		.loc 1 189 0
 237 01a4 8020     		movs	r0, #128
 238 01a6 0121     		movs	r1, #1
 239 01a8 FFF7FEFF 		bl	RCC_APB1PeriphResetCmd
 190:../Libraries/StdPeripheralDriver/src/stm32f10x_tim.c ****     RCC_APB1PeriphResetCmd(RCC_APB1Periph_TIM13, DISABLE);  
 240              		.loc 1 190 0
 241 01ac 8020     		movs	r0, #128
 242 01ae 0021     		movs	r1, #0
 243 01b0 FFF7FEFF 		bl	RCC_APB1PeriphResetCmd
 244 01b4 46E0     		b	.L1
 245              	.L15:
 191:../Libraries/StdPeripheralDriver/src/stm32f10x_tim.c ****   }
 192:../Libraries/StdPeripheralDriver/src/stm32f10x_tim.c ****   else if (TIMx == TIM14) 
 246              		.loc 1 192 0
 247 01b6 7A68     		ldr	r2, [r7, #4]
 248 01b8 4FF40053 		mov	r3, #8192
 249 01bc C4F20003 		movt	r3, 16384
 250 01c0 9A42     		cmp	r2, r3
 251 01c2 0AD1     		bne	.L16
 193:../Libraries/StdPeripheralDriver/src/stm32f10x_tim.c ****   {       
 194:../Libraries/StdPeripheralDriver/src/stm32f10x_tim.c ****     RCC_APB1PeriphResetCmd(RCC_APB1Periph_TIM14, ENABLE);
 252              		.loc 1 194 0
 253 01c4 4FF48070 		mov	r0, #256
 254 01c8 0121     		movs	r1, #1
 255 01ca FFF7FEFF 		bl	RCC_APB1PeriphResetCmd
 195:../Libraries/StdPeripheralDriver/src/stm32f10x_tim.c ****     RCC_APB1PeriphResetCmd(RCC_APB1Periph_TIM14, DISABLE);  
 256              		.loc 1 195 0
 257 01ce 4FF48070 		mov	r0, #256
 258 01d2 0021     		movs	r1, #0
 259 01d4 FFF7FEFF 		bl	RCC_APB1PeriphResetCmd
 260 01d8 34E0     		b	.L1
 261              	.L16:
 196:../Libraries/StdPeripheralDriver/src/stm32f10x_tim.c ****   }        
 197:../Libraries/StdPeripheralDriver/src/stm32f10x_tim.c ****   else if (TIMx == TIM15)
 262              		.loc 1 197 0
 263 01da 7A68     		ldr	r2, [r7, #4]
 264 01dc 4FF48043 		mov	r3, #16384
 265 01e0 C4F20103 		movt	r3, 16385
 266 01e4 9A42     		cmp	r2, r3
 267 01e6 0AD1     		bne	.L17
 198:../Libraries/StdPeripheralDriver/src/stm32f10x_tim.c ****   {
 199:../Libraries/StdPeripheralDriver/src/stm32f10x_tim.c ****     RCC_APB2PeriphResetCmd(RCC_APB2Periph_TIM15, ENABLE);
 268              		.loc 1 199 0
 269 01e8 4FF48030 		mov	r0, #65536
 270 01ec 0121     		movs	r1, #1
 271 01ee FFF7FEFF 		bl	RCC_APB2PeriphResetCmd
 200:../Libraries/StdPeripheralDriver/src/stm32f10x_tim.c ****     RCC_APB2PeriphResetCmd(RCC_APB2Periph_TIM15, DISABLE);
 272              		.loc 1 200 0
 273 01f2 4FF48030 		mov	r0, #65536
 274 01f6 0021     		movs	r1, #0
 275 01f8 FFF7FEFF 		bl	RCC_APB2PeriphResetCmd
 276 01fc 22E0     		b	.L1
 277              	.L17:
 201:../Libraries/StdPeripheralDriver/src/stm32f10x_tim.c ****   } 
 202:../Libraries/StdPeripheralDriver/src/stm32f10x_tim.c ****   else if (TIMx == TIM16)
 278              		.loc 1 202 0
 279 01fe 7A68     		ldr	r2, [r7, #4]
 280 0200 4FF48843 		mov	r3, #17408
 281 0204 C4F20103 		movt	r3, 16385
 282 0208 9A42     		cmp	r2, r3
 283 020a 0AD1     		bne	.L18
 203:../Libraries/StdPeripheralDriver/src/stm32f10x_tim.c ****   {
 204:../Libraries/StdPeripheralDriver/src/stm32f10x_tim.c ****     RCC_APB2PeriphResetCmd(RCC_APB2Periph_TIM16, ENABLE);
 284              		.loc 1 204 0
 285 020c 4FF40030 		mov	r0, #131072
 286 0210 0121     		movs	r1, #1
 287 0212 FFF7FEFF 		bl	RCC_APB2PeriphResetCmd
 205:../Libraries/StdPeripheralDriver/src/stm32f10x_tim.c ****     RCC_APB2PeriphResetCmd(RCC_APB2Periph_TIM16, DISABLE);
 288              		.loc 1 205 0
 289 0216 4FF40030 		mov	r0, #131072
 290 021a 0021     		movs	r1, #0
 291 021c FFF7FEFF 		bl	RCC_APB2PeriphResetCmd
 292 0220 10E0     		b	.L1
 293              	.L18:
 206:../Libraries/StdPeripheralDriver/src/stm32f10x_tim.c ****   } 
 207:../Libraries/StdPeripheralDriver/src/stm32f10x_tim.c ****   else
 208:../Libraries/StdPeripheralDriver/src/stm32f10x_tim.c ****   {
 209:../Libraries/StdPeripheralDriver/src/stm32f10x_tim.c ****     if (TIMx == TIM17)
 294              		.loc 1 209 0
 295 0222 7A68     		ldr	r2, [r7, #4]
 296 0224 4FF49043 		mov	r3, #18432
 297 0228 C4F20103 		movt	r3, 16385
 298 022c 9A42     		cmp	r2, r3
 299 022e 09D1     		bne	.L1
 210:../Libraries/StdPeripheralDriver/src/stm32f10x_tim.c ****     {
 211:../Libraries/StdPeripheralDriver/src/stm32f10x_tim.c ****       RCC_APB2PeriphResetCmd(RCC_APB2Periph_TIM17, ENABLE);
 300              		.loc 1 211 0
 301 0230 4FF48020 		mov	r0, #262144
 302 0234 0121     		movs	r1, #1
 303 0236 FFF7FEFF 		bl	RCC_APB2PeriphResetCmd
 212:../Libraries/StdPeripheralDriver/src/stm32f10x_tim.c ****       RCC_APB2PeriphResetCmd(RCC_APB2Periph_TIM17, DISABLE);
 304              		.loc 1 212 0
 305 023a 4FF48020 		mov	r0, #262144
 306 023e 0021     		movs	r1, #0
 307 0240 FFF7FEFF 		bl	RCC_APB2PeriphResetCmd
 308              	.L1:
 213:../Libraries/StdPeripheralDriver/src/stm32f10x_tim.c ****     }  
 214:../Libraries/StdPeripheralDriver/src/stm32f10x_tim.c ****   }
 215:../Libraries/StdPeripheralDriver/src/stm32f10x_tim.c **** }
 309              		.loc 1 215 0
 310 0244 0837     		adds	r7, r7, #8
 311 0246 BD46     		mov	sp, r7
 312              		@ sp needed
 313 0248 80BD     		pop	{r7, pc}
 314              		.cfi_endproc
 315              	.LFE29:
 317 024a 00BF     		.section	.text.TIM_TimeBaseInit,"ax",%progbits
 318              		.align	2
 319              		.global	TIM_TimeBaseInit
 320              		.thumb
 321              		.thumb_func
 323              	TIM_TimeBaseInit:
 324              	.LFB30:
 216:../Libraries/StdPeripheralDriver/src/stm32f10x_tim.c **** 
 217:../Libraries/StdPeripheralDriver/src/stm32f10x_tim.c **** /**
 218:../Libraries/StdPeripheralDriver/src/stm32f10x_tim.c ****   * @brief  Initializes the TIMx Time Base Unit peripheral according to 
 219:../Libraries/StdPeripheralDriver/src/stm32f10x_tim.c ****   *         the specified parameters in the TIM_TimeBaseInitStruct.
 220:../Libraries/StdPeripheralDriver/src/stm32f10x_tim.c ****   * @param  TIMx: where x can be 1 to 17 to select the TIM peripheral.
 221:../Libraries/StdPeripheralDriver/src/stm32f10x_tim.c ****   * @param  TIM_TimeBaseInitStruct: pointer to a TIM_TimeBaseInitTypeDef
 222:../Libraries/StdPeripheralDriver/src/stm32f10x_tim.c ****   *         structure that contains the configuration information for the 
 223:../Libraries/StdPeripheralDriver/src/stm32f10x_tim.c ****   *         specified TIM peripheral.
 224:../Libraries/StdPeripheralDriver/src/stm32f10x_tim.c ****   * @retval None
 225:../Libraries/StdPeripheralDriver/src/stm32f10x_tim.c ****   */
 226:../Libraries/StdPeripheralDriver/src/stm32f10x_tim.c **** void TIM_TimeBaseInit(TIM_TypeDef* TIMx, TIM_TimeBaseInitTypeDef* TIM_TimeBaseInitStruct)
 227:../Libraries/StdPeripheralDriver/src/stm32f10x_tim.c **** {
 325              		.loc 1 227 0
 326              		.cfi_startproc
 327              		@ args = 0, pretend = 0, frame = 16
 328              		@ frame_needed = 1, uses_anonymous_args = 0
 329              		@ link register save eliminated.
 330 0000 80B4     		push	{r7}
 331              		.cfi_def_cfa_offset 4
 332              		.cfi_offset 7, -4
 333 0002 85B0     		sub	sp, sp, #20
 334              		.cfi_def_cfa_offset 24
 335 0004 00AF     		add	r7, sp, #0
 336              		.cfi_def_cfa_register 7
 337 0006 7860     		str	r0, [r7, #4]
 338 0008 3960     		str	r1, [r7]
 228:../Libraries/StdPeripheralDriver/src/stm32f10x_tim.c ****   uint16_t tmpcr1 = 0;
 339              		.loc 1 228 0
 340 000a 0023     		movs	r3, #0
 341 000c FB81     		strh	r3, [r7, #14]	@ movhi
 229:../Libraries/StdPeripheralDriver/src/stm32f10x_tim.c **** 
 230:../Libraries/StdPeripheralDriver/src/stm32f10x_tim.c ****   /* Check the parameters */
 231:../Libraries/StdPeripheralDriver/src/stm32f10x_tim.c ****   assert_param(IS_TIM_ALL_PERIPH(TIMx)); 
 232:../Libraries/StdPeripheralDriver/src/stm32f10x_tim.c ****   assert_param(IS_TIM_COUNTER_MODE(TIM_TimeBaseInitStruct->TIM_CounterMode));
 233:../Libraries/StdPeripheralDriver/src/stm32f10x_tim.c ****   assert_param(IS_TIM_CKD_DIV(TIM_TimeBaseInitStruct->TIM_ClockDivision));
 234:../Libraries/StdPeripheralDriver/src/stm32f10x_tim.c **** 
 235:../Libraries/StdPeripheralDriver/src/stm32f10x_tim.c ****   tmpcr1 = TIMx->CR1;  
 342              		.loc 1 235 0
 343 000e 7B68     		ldr	r3, [r7, #4]
 344 0010 1B88     		ldrh	r3, [r3]	@ movhi
 345 0012 FB81     		strh	r3, [r7, #14]	@ movhi
 236:../Libraries/StdPeripheralDriver/src/stm32f10x_tim.c **** 
 237:../Libraries/StdPeripheralDriver/src/stm32f10x_tim.c ****   if((TIMx == TIM1) || (TIMx == TIM8)|| (TIMx == TIM2) || (TIMx == TIM3)||
 346              		.loc 1 237 0
 347 0014 7A68     		ldr	r2, [r7, #4]
 348 0016 4FF43053 		mov	r3, #11264
 349 001a C4F20103 		movt	r3, 16385
 350 001e 9A42     		cmp	r2, r3
 351 0020 1FD0     		beq	.L20
 352              		.loc 1 237 0 is_stmt 0 discriminator 1
 353 0022 7A68     		ldr	r2, [r7, #4]
 354 0024 4FF45053 		mov	r3, #13312
 355 0028 C4F20103 		movt	r3, 16385
 356 002c 9A42     		cmp	r2, r3
 357 002e 18D0     		beq	.L20
 358 0030 7B68     		ldr	r3, [r7, #4]
 359 0032 B3F1804F 		cmp	r3, #1073741824
 360 0036 14D0     		beq	.L20
 361 0038 7A68     		ldr	r2, [r7, #4]
 362 003a 4FF48063 		mov	r3, #1024
 363 003e C4F20003 		movt	r3, 16384
 364 0042 9A42     		cmp	r2, r3
 365 0044 0DD0     		beq	.L20
 366 0046 7A68     		ldr	r2, [r7, #4]
 367 0048 4FF40063 		mov	r3, #2048
 368 004c C4F20003 		movt	r3, 16384
 369 0050 9A42     		cmp	r2, r3
 370 0052 06D0     		beq	.L20
 238:../Libraries/StdPeripheralDriver/src/stm32f10x_tim.c ****      (TIMx == TIM4) || (TIMx == TIM5)) 
 371              		.loc 1 238 0 is_stmt 1
 372 0054 7A68     		ldr	r2, [r7, #4]
 373 0056 4FF44063 		mov	r3, #3072
 374 005a C4F20003 		movt	r3, 16384
 375 005e 9A42     		cmp	r2, r3
 376 0060 08D1     		bne	.L21
 377              	.L20:
 239:../Libraries/StdPeripheralDriver/src/stm32f10x_tim.c ****   {
 240:../Libraries/StdPeripheralDriver/src/stm32f10x_tim.c ****     /* Select the Counter Mode */
 241:../Libraries/StdPeripheralDriver/src/stm32f10x_tim.c ****     tmpcr1 &= (uint16_t)(~((uint16_t)(TIM_CR1_DIR | TIM_CR1_CMS)));
 378              		.loc 1 241 0
 379 0062 FB89     		ldrh	r3, [r7, #14]	@ movhi
 380 0064 23F07003 		bic	r3, r3, #112
 381 0068 FB81     		strh	r3, [r7, #14]	@ movhi
 242:../Libraries/StdPeripheralDriver/src/stm32f10x_tim.c ****     tmpcr1 |= (uint32_t)TIM_TimeBaseInitStruct->TIM_CounterMode;
 382              		.loc 1 242 0
 383 006a 3B68     		ldr	r3, [r7]
 384 006c 5A88     		ldrh	r2, [r3, #2]
 385 006e FB89     		ldrh	r3, [r7, #14]	@ movhi
 386 0070 1343     		orrs	r3, r3, r2
 387 0072 FB81     		strh	r3, [r7, #14]	@ movhi
 388              	.L21:
 243:../Libraries/StdPeripheralDriver/src/stm32f10x_tim.c ****   }
 244:../Libraries/StdPeripheralDriver/src/stm32f10x_tim.c ****  
 245:../Libraries/StdPeripheralDriver/src/stm32f10x_tim.c ****   if((TIMx != TIM6) && (TIMx != TIM7))
 389              		.loc 1 245 0
 390 0074 7A68     		ldr	r2, [r7, #4]
 391 0076 4FF48053 		mov	r3, #4096
 392 007a C4F20003 		movt	r3, 16384
 393 007e 9A42     		cmp	r2, r3
 394 0080 0FD0     		beq	.L22
 395              		.loc 1 245 0 is_stmt 0 discriminator 1
 396 0082 7A68     		ldr	r2, [r7, #4]
 397 0084 4FF4A053 		mov	r3, #5120
 398 0088 C4F20003 		movt	r3, 16384
 399 008c 9A42     		cmp	r2, r3
 400 008e 08D0     		beq	.L22
 246:../Libraries/StdPeripheralDriver/src/stm32f10x_tim.c ****   {
 247:../Libraries/StdPeripheralDriver/src/stm32f10x_tim.c ****     /* Set the clock division */
 248:../Libraries/StdPeripheralDriver/src/stm32f10x_tim.c ****     tmpcr1 &= (uint16_t)(~((uint16_t)TIM_CR1_CKD));
 401              		.loc 1 248 0 is_stmt 1
 402 0090 FB89     		ldrh	r3, [r7, #14]	@ movhi
 403 0092 23F44073 		bic	r3, r3, #768
 404 0096 FB81     		strh	r3, [r7, #14]	@ movhi
 249:../Libraries/StdPeripheralDriver/src/stm32f10x_tim.c ****     tmpcr1 |= (uint32_t)TIM_TimeBaseInitStruct->TIM_ClockDivision;
 405              		.loc 1 249 0
 406 0098 3B68     		ldr	r3, [r7]
 407 009a DA88     		ldrh	r2, [r3, #6]
 408 009c FB89     		ldrh	r3, [r7, #14]	@ movhi
 409 009e 1343     		orrs	r3, r3, r2
 410 00a0 FB81     		strh	r3, [r7, #14]	@ movhi
 411              	.L22:
 250:../Libraries/StdPeripheralDriver/src/stm32f10x_tim.c ****   }
 251:../Libraries/StdPeripheralDriver/src/stm32f10x_tim.c **** 
 252:../Libraries/StdPeripheralDriver/src/stm32f10x_tim.c ****   TIMx->CR1 = tmpcr1;
 412              		.loc 1 252 0
 413 00a2 7B68     		ldr	r3, [r7, #4]
 414 00a4 FA89     		ldrh	r2, [r7, #14]	@ movhi
 415 00a6 1A80     		strh	r2, [r3]	@ movhi
 253:../Libraries/StdPeripheralDriver/src/stm32f10x_tim.c **** 
 254:../Libraries/StdPeripheralDriver/src/stm32f10x_tim.c ****   /* Set the Autoreload value */
 255:../Libraries/StdPeripheralDriver/src/stm32f10x_tim.c ****   TIMx->ARR = TIM_TimeBaseInitStruct->TIM_Period ;
 416              		.loc 1 255 0
 417 00a8 3B68     		ldr	r3, [r7]
 418 00aa 9A88     		ldrh	r2, [r3, #4]
 419 00ac 7B68     		ldr	r3, [r7, #4]
 420 00ae 9A85     		strh	r2, [r3, #44]	@ movhi
 256:../Libraries/StdPeripheralDriver/src/stm32f10x_tim.c ****  
 257:../Libraries/StdPeripheralDriver/src/stm32f10x_tim.c ****   /* Set the Prescaler value */
 258:../Libraries/StdPeripheralDriver/src/stm32f10x_tim.c ****   TIMx->PSC = TIM_TimeBaseInitStruct->TIM_Prescaler;
 421              		.loc 1 258 0
 422 00b0 3B68     		ldr	r3, [r7]
 423 00b2 1A88     		ldrh	r2, [r3]
 424 00b4 7B68     		ldr	r3, [r7, #4]
 425 00b6 1A85     		strh	r2, [r3, #40]	@ movhi
 259:../Libraries/StdPeripheralDriver/src/stm32f10x_tim.c ****     
 260:../Libraries/StdPeripheralDriver/src/stm32f10x_tim.c ****   if ((TIMx == TIM1) || (TIMx == TIM8)|| (TIMx == TIM15)|| (TIMx == TIM16) || (TIMx == TIM17))  
 426              		.loc 1 260 0
 427 00b8 7A68     		ldr	r2, [r7, #4]
 428 00ba 4FF43053 		mov	r3, #11264
 429 00be C4F20103 		movt	r3, 16385
 430 00c2 9A42     		cmp	r2, r3
 431 00c4 1BD0     		beq	.L23
 432              		.loc 1 260 0 is_stmt 0 discriminator 1
 433 00c6 7A68     		ldr	r2, [r7, #4]
 434 00c8 4FF45053 		mov	r3, #13312
 435 00cc C4F20103 		movt	r3, 16385
 436 00d0 9A42     		cmp	r2, r3
 437 00d2 14D0     		beq	.L23
 438 00d4 7A68     		ldr	r2, [r7, #4]
 439 00d6 4FF48043 		mov	r3, #16384
 440 00da C4F20103 		movt	r3, 16385
 441 00de 9A42     		cmp	r2, r3
 442 00e0 0DD0     		beq	.L23
 443 00e2 7A68     		ldr	r2, [r7, #4]
 444 00e4 4FF48843 		mov	r3, #17408
 445 00e8 C4F20103 		movt	r3, 16385
 446 00ec 9A42     		cmp	r2, r3
 447 00ee 06D0     		beq	.L23
 448 00f0 7A68     		ldr	r2, [r7, #4]
 449 00f2 4FF49043 		mov	r3, #18432
 450 00f6 C4F20103 		movt	r3, 16385
 451 00fa 9A42     		cmp	r2, r3
 452 00fc 04D1     		bne	.L24
 453              	.L23:
 261:../Libraries/StdPeripheralDriver/src/stm32f10x_tim.c ****   {
 262:../Libraries/StdPeripheralDriver/src/stm32f10x_tim.c ****     /* Set the Repetition Counter value */
 263:../Libraries/StdPeripheralDriver/src/stm32f10x_tim.c ****     TIMx->RCR = TIM_TimeBaseInitStruct->TIM_RepetitionCounter;
 454              		.loc 1 263 0 is_stmt 1
 455 00fe 3B68     		ldr	r3, [r7]
 456 0100 1B7A     		ldrb	r3, [r3, #8]	@ zero_extendqisi2
 457 0102 1A46     		mov	r2, r3
 458 0104 7B68     		ldr	r3, [r7, #4]
 459 0106 1A86     		strh	r2, [r3, #48]	@ movhi
 460              	.L24:
 264:../Libraries/StdPeripheralDriver/src/stm32f10x_tim.c ****   }
 265:../Libraries/StdPeripheralDriver/src/stm32f10x_tim.c **** 
 266:../Libraries/StdPeripheralDriver/src/stm32f10x_tim.c ****   /* Generate an update event to reload the Prescaler and the Repetition counter
 267:../Libraries/StdPeripheralDriver/src/stm32f10x_tim.c ****      values immediately */
 268:../Libraries/StdPeripheralDriver/src/stm32f10x_tim.c ****   TIMx->EGR = TIM_PSCReloadMode_Immediate;           
 461              		.loc 1 268 0
 462 0108 7B68     		ldr	r3, [r7, #4]
 463 010a 0122     		movs	r2, #1
 464 010c 9A82     		strh	r2, [r3, #20]	@ movhi
 269:../Libraries/StdPeripheralDriver/src/stm32f10x_tim.c **** }
 465              		.loc 1 269 0
 466 010e 1437     		adds	r7, r7, #20
 467 0110 BD46     		mov	sp, r7
 468              		@ sp needed
 469 0112 5DF8047B 		ldr	r7, [sp], #4
 470 0116 7047     		bx	lr
 471              		.cfi_endproc
 472              	.LFE30:
 474              		.section	.text.TIM_OC1Init,"ax",%progbits
 475              		.align	2
 476              		.global	TIM_OC1Init
 477              		.thumb
 478              		.thumb_func
 480              	TIM_OC1Init:
 481              	.LFB31:
 270:../Libraries/StdPeripheralDriver/src/stm32f10x_tim.c **** 
 271:../Libraries/StdPeripheralDriver/src/stm32f10x_tim.c **** /**
 272:../Libraries/StdPeripheralDriver/src/stm32f10x_tim.c ****   * @brief  Initializes the TIMx Channel1 according to the specified
 273:../Libraries/StdPeripheralDriver/src/stm32f10x_tim.c ****   *         parameters in the TIM_OCInitStruct.
 274:../Libraries/StdPeripheralDriver/src/stm32f10x_tim.c ****   * @param  TIMx: where x can be  1 to 17 except 6 and 7 to select the TIM peripheral.
 275:../Libraries/StdPeripheralDriver/src/stm32f10x_tim.c ****   * @param  TIM_OCInitStruct: pointer to a TIM_OCInitTypeDef structure
 276:../Libraries/StdPeripheralDriver/src/stm32f10x_tim.c ****   *         that contains the configuration information for the specified TIM peripheral.
 277:../Libraries/StdPeripheralDriver/src/stm32f10x_tim.c ****   * @retval None
 278:../Libraries/StdPeripheralDriver/src/stm32f10x_tim.c ****   */
 279:../Libraries/StdPeripheralDriver/src/stm32f10x_tim.c **** void TIM_OC1Init(TIM_TypeDef* TIMx, TIM_OCInitTypeDef* TIM_OCInitStruct)
 280:../Libraries/StdPeripheralDriver/src/stm32f10x_tim.c **** {
 482              		.loc 1 280 0
 483              		.cfi_startproc
 484              		@ args = 0, pretend = 0, frame = 16
 485              		@ frame_needed = 1, uses_anonymous_args = 0
 486              		@ link register save eliminated.
 487 0000 80B4     		push	{r7}
 488              		.cfi_def_cfa_offset 4
 489              		.cfi_offset 7, -4
 490 0002 85B0     		sub	sp, sp, #20
 491              		.cfi_def_cfa_offset 24
 492 0004 00AF     		add	r7, sp, #0
 493              		.cfi_def_cfa_register 7
 494 0006 7860     		str	r0, [r7, #4]
 495 0008 3960     		str	r1, [r7]
 281:../Libraries/StdPeripheralDriver/src/stm32f10x_tim.c ****   uint16_t tmpccmrx = 0, tmpccer = 0, tmpcr2 = 0;
 496              		.loc 1 281 0
 497 000a 0023     		movs	r3, #0
 498 000c 7B81     		strh	r3, [r7, #10]	@ movhi
 499 000e 0023     		movs	r3, #0
 500 0010 FB81     		strh	r3, [r7, #14]	@ movhi
 501 0012 0023     		movs	r3, #0
 502 0014 BB81     		strh	r3, [r7, #12]	@ movhi
 282:../Libraries/StdPeripheralDriver/src/stm32f10x_tim.c ****    
 283:../Libraries/StdPeripheralDriver/src/stm32f10x_tim.c ****   /* Check the parameters */
 284:../Libraries/StdPeripheralDriver/src/stm32f10x_tim.c ****   assert_param(IS_TIM_LIST8_PERIPH(TIMx));
 285:../Libraries/StdPeripheralDriver/src/stm32f10x_tim.c ****   assert_param(IS_TIM_OC_MODE(TIM_OCInitStruct->TIM_OCMode));
 286:../Libraries/StdPeripheralDriver/src/stm32f10x_tim.c ****   assert_param(IS_TIM_OUTPUT_STATE(TIM_OCInitStruct->TIM_OutputState));
 287:../Libraries/StdPeripheralDriver/src/stm32f10x_tim.c ****   assert_param(IS_TIM_OC_POLARITY(TIM_OCInitStruct->TIM_OCPolarity));   
 288:../Libraries/StdPeripheralDriver/src/stm32f10x_tim.c ****  /* Disable the Channel 1: Reset the CC1E Bit */
 289:../Libraries/StdPeripheralDriver/src/stm32f10x_tim.c ****   TIMx->CCER &= (uint16_t)(~(uint16_t)TIM_CCER_CC1E);
 503              		.loc 1 289 0
 504 0016 7B68     		ldr	r3, [r7, #4]
 505 0018 1B8C     		ldrh	r3, [r3, #32]	@ movhi
 506 001a 9BB2     		uxth	r3, r3
 507 001c 23F00103 		bic	r3, r3, #1
 508 0020 9AB2     		uxth	r2, r3
 509 0022 7B68     		ldr	r3, [r7, #4]
 510 0024 1A84     		strh	r2, [r3, #32]	@ movhi
 290:../Libraries/StdPeripheralDriver/src/stm32f10x_tim.c ****   /* Get the TIMx CCER register value */
 291:../Libraries/StdPeripheralDriver/src/stm32f10x_tim.c ****   tmpccer = TIMx->CCER;
 511              		.loc 1 291 0
 512 0026 7B68     		ldr	r3, [r7, #4]
 513 0028 1B8C     		ldrh	r3, [r3, #32]	@ movhi
 514 002a FB81     		strh	r3, [r7, #14]	@ movhi
 292:../Libraries/StdPeripheralDriver/src/stm32f10x_tim.c ****   /* Get the TIMx CR2 register value */
 293:../Libraries/StdPeripheralDriver/src/stm32f10x_tim.c ****   tmpcr2 =  TIMx->CR2;
 515              		.loc 1 293 0
 516 002c 7B68     		ldr	r3, [r7, #4]
 517 002e 9B88     		ldrh	r3, [r3, #4]	@ movhi
 518 0030 BB81     		strh	r3, [r7, #12]	@ movhi
 294:../Libraries/StdPeripheralDriver/src/stm32f10x_tim.c ****   
 295:../Libraries/StdPeripheralDriver/src/stm32f10x_tim.c ****   /* Get the TIMx CCMR1 register value */
 296:../Libraries/StdPeripheralDriver/src/stm32f10x_tim.c ****   tmpccmrx = TIMx->CCMR1;
 519              		.loc 1 296 0
 520 0032 7B68     		ldr	r3, [r7, #4]
 521 0034 1B8B     		ldrh	r3, [r3, #24]	@ movhi
 522 0036 7B81     		strh	r3, [r7, #10]	@ movhi
 297:../Libraries/StdPeripheralDriver/src/stm32f10x_tim.c ****     
 298:../Libraries/StdPeripheralDriver/src/stm32f10x_tim.c ****   /* Reset the Output Compare Mode Bits */
 299:../Libraries/StdPeripheralDriver/src/stm32f10x_tim.c ****   tmpccmrx &= (uint16_t)(~((uint16_t)TIM_CCMR1_OC1M));
 523              		.loc 1 299 0
 524 0038 7B89     		ldrh	r3, [r7, #10]	@ movhi
 525 003a 23F07003 		bic	r3, r3, #112
 526 003e 7B81     		strh	r3, [r7, #10]	@ movhi
 300:../Libraries/StdPeripheralDriver/src/stm32f10x_tim.c ****   tmpccmrx &= (uint16_t)(~((uint16_t)TIM_CCMR1_CC1S));
 527              		.loc 1 300 0
 528 0040 7B89     		ldrh	r3, [r7, #10]	@ movhi
 529 0042 23F00303 		bic	r3, r3, #3
 530 0046 7B81     		strh	r3, [r7, #10]	@ movhi
 301:../Libraries/StdPeripheralDriver/src/stm32f10x_tim.c **** 
 302:../Libraries/StdPeripheralDriver/src/stm32f10x_tim.c ****   /* Select the Output Compare Mode */
 303:../Libraries/StdPeripheralDriver/src/stm32f10x_tim.c ****   tmpccmrx |= TIM_OCInitStruct->TIM_OCMode;
 531              		.loc 1 303 0
 532 0048 3B68     		ldr	r3, [r7]
 533 004a 1A88     		ldrh	r2, [r3]
 534 004c 7B89     		ldrh	r3, [r7, #10]	@ movhi
 535 004e 1343     		orrs	r3, r3, r2
 536 0050 7B81     		strh	r3, [r7, #10]	@ movhi
 304:../Libraries/StdPeripheralDriver/src/stm32f10x_tim.c ****   
 305:../Libraries/StdPeripheralDriver/src/stm32f10x_tim.c ****   /* Reset the Output Polarity level */
 306:../Libraries/StdPeripheralDriver/src/stm32f10x_tim.c ****   tmpccer &= (uint16_t)(~((uint16_t)TIM_CCER_CC1P));
 537              		.loc 1 306 0
 538 0052 FB89     		ldrh	r3, [r7, #14]	@ movhi
 539 0054 23F00203 		bic	r3, r3, #2
 540 0058 FB81     		strh	r3, [r7, #14]	@ movhi
 307:../Libraries/StdPeripheralDriver/src/stm32f10x_tim.c ****   /* Set the Output Compare Polarity */
 308:../Libraries/StdPeripheralDriver/src/stm32f10x_tim.c ****   tmpccer |= TIM_OCInitStruct->TIM_OCPolarity;
 541              		.loc 1 308 0
 542 005a 3B68     		ldr	r3, [r7]
 543 005c 1A89     		ldrh	r2, [r3, #8]
 544 005e FB89     		ldrh	r3, [r7, #14]	@ movhi
 545 0060 1343     		orrs	r3, r3, r2
 546 0062 FB81     		strh	r3, [r7, #14]	@ movhi
 309:../Libraries/StdPeripheralDriver/src/stm32f10x_tim.c ****   
 310:../Libraries/StdPeripheralDriver/src/stm32f10x_tim.c ****   /* Set the Output State */
 311:../Libraries/StdPeripheralDriver/src/stm32f10x_tim.c ****   tmpccer |= TIM_OCInitStruct->TIM_OutputState;
 547              		.loc 1 311 0
 548 0064 3B68     		ldr	r3, [r7]
 549 0066 5A88     		ldrh	r2, [r3, #2]
 550 0068 FB89     		ldrh	r3, [r7, #14]	@ movhi
 551 006a 1343     		orrs	r3, r3, r2
 552 006c FB81     		strh	r3, [r7, #14]	@ movhi
 312:../Libraries/StdPeripheralDriver/src/stm32f10x_tim.c ****     
 313:../Libraries/StdPeripheralDriver/src/stm32f10x_tim.c ****   if((TIMx == TIM1) || (TIMx == TIM8)|| (TIMx == TIM15)||
 553              		.loc 1 313 0
 554 006e 7A68     		ldr	r2, [r7, #4]
 555 0070 4FF43053 		mov	r3, #11264
 556 0074 C4F20103 		movt	r3, 16385
 557 0078 9A42     		cmp	r2, r3
 558 007a 1BD0     		beq	.L26
 559              		.loc 1 313 0 is_stmt 0 discriminator 1
 560 007c 7A68     		ldr	r2, [r7, #4]
 561 007e 4FF45053 		mov	r3, #13312
 562 0082 C4F20103 		movt	r3, 16385
 563 0086 9A42     		cmp	r2, r3
 564 0088 14D0     		beq	.L26
 565 008a 7A68     		ldr	r2, [r7, #4]
 566 008c 4FF48043 		mov	r3, #16384
 567 0090 C4F20103 		movt	r3, 16385
 568 0094 9A42     		cmp	r2, r3
 569 0096 0DD0     		beq	.L26
 570 0098 7A68     		ldr	r2, [r7, #4]
 571 009a 4FF48843 		mov	r3, #17408
 572 009e C4F20103 		movt	r3, 16385
 573 00a2 9A42     		cmp	r2, r3
 574 00a4 06D0     		beq	.L26
 314:../Libraries/StdPeripheralDriver/src/stm32f10x_tim.c ****      (TIMx == TIM16)|| (TIMx == TIM17))
 575              		.loc 1 314 0 is_stmt 1
 576 00a6 7A68     		ldr	r2, [r7, #4]
 577 00a8 4FF49043 		mov	r3, #18432
 578 00ac C4F20103 		movt	r3, 16385
 579 00b0 9A42     		cmp	r2, r3
 580 00b2 23D1     		bne	.L27
 581              	.L26:
 315:../Libraries/StdPeripheralDriver/src/stm32f10x_tim.c ****   {
 316:../Libraries/StdPeripheralDriver/src/stm32f10x_tim.c ****     assert_param(IS_TIM_OUTPUTN_STATE(TIM_OCInitStruct->TIM_OutputNState));
 317:../Libraries/StdPeripheralDriver/src/stm32f10x_tim.c ****     assert_param(IS_TIM_OCN_POLARITY(TIM_OCInitStruct->TIM_OCNPolarity));
 318:../Libraries/StdPeripheralDriver/src/stm32f10x_tim.c ****     assert_param(IS_TIM_OCNIDLE_STATE(TIM_OCInitStruct->TIM_OCNIdleState));
 319:../Libraries/StdPeripheralDriver/src/stm32f10x_tim.c ****     assert_param(IS_TIM_OCIDLE_STATE(TIM_OCInitStruct->TIM_OCIdleState));
 320:../Libraries/StdPeripheralDriver/src/stm32f10x_tim.c ****     
 321:../Libraries/StdPeripheralDriver/src/stm32f10x_tim.c ****     /* Reset the Output N Polarity level */
 322:../Libraries/StdPeripheralDriver/src/stm32f10x_tim.c ****     tmpccer &= (uint16_t)(~((uint16_t)TIM_CCER_CC1NP));
 582              		.loc 1 322 0
 583 00b4 FB89     		ldrh	r3, [r7, #14]	@ movhi
 584 00b6 23F00803 		bic	r3, r3, #8
 585 00ba FB81     		strh	r3, [r7, #14]	@ movhi
 323:../Libraries/StdPeripheralDriver/src/stm32f10x_tim.c ****     /* Set the Output N Polarity */
 324:../Libraries/StdPeripheralDriver/src/stm32f10x_tim.c ****     tmpccer |= TIM_OCInitStruct->TIM_OCNPolarity;
 586              		.loc 1 324 0
 587 00bc 3B68     		ldr	r3, [r7]
 588 00be 5A89     		ldrh	r2, [r3, #10]
 589 00c0 FB89     		ldrh	r3, [r7, #14]	@ movhi
 590 00c2 1343     		orrs	r3, r3, r2
 591 00c4 FB81     		strh	r3, [r7, #14]	@ movhi
 325:../Libraries/StdPeripheralDriver/src/stm32f10x_tim.c ****     
 326:../Libraries/StdPeripheralDriver/src/stm32f10x_tim.c ****     /* Reset the Output N State */
 327:../Libraries/StdPeripheralDriver/src/stm32f10x_tim.c ****     tmpccer &= (uint16_t)(~((uint16_t)TIM_CCER_CC1NE));    
 592              		.loc 1 327 0
 593 00c6 FB89     		ldrh	r3, [r7, #14]	@ movhi
 594 00c8 23F00403 		bic	r3, r3, #4
 595 00cc FB81     		strh	r3, [r7, #14]	@ movhi
 328:../Libraries/StdPeripheralDriver/src/stm32f10x_tim.c ****     /* Set the Output N State */
 329:../Libraries/StdPeripheralDriver/src/stm32f10x_tim.c ****     tmpccer |= TIM_OCInitStruct->TIM_OutputNState;
 596              		.loc 1 329 0
 597 00ce 3B68     		ldr	r3, [r7]
 598 00d0 9A88     		ldrh	r2, [r3, #4]
 599 00d2 FB89     		ldrh	r3, [r7, #14]	@ movhi
 600 00d4 1343     		orrs	r3, r3, r2
 601 00d6 FB81     		strh	r3, [r7, #14]	@ movhi
 330:../Libraries/StdPeripheralDriver/src/stm32f10x_tim.c ****     
 331:../Libraries/StdPeripheralDriver/src/stm32f10x_tim.c ****     /* Reset the Output Compare and Output Compare N IDLE State */
 332:../Libraries/StdPeripheralDriver/src/stm32f10x_tim.c ****     tmpcr2 &= (uint16_t)(~((uint16_t)TIM_CR2_OIS1));
 602              		.loc 1 332 0
 603 00d8 BB89     		ldrh	r3, [r7, #12]	@ movhi
 604 00da 23F48073 		bic	r3, r3, #256
 605 00de BB81     		strh	r3, [r7, #12]	@ movhi
 333:../Libraries/StdPeripheralDriver/src/stm32f10x_tim.c ****     tmpcr2 &= (uint16_t)(~((uint16_t)TIM_CR2_OIS1N));
 606              		.loc 1 333 0
 607 00e0 BB89     		ldrh	r3, [r7, #12]	@ movhi
 608 00e2 23F40073 		bic	r3, r3, #512
 609 00e6 BB81     		strh	r3, [r7, #12]	@ movhi
 334:../Libraries/StdPeripheralDriver/src/stm32f10x_tim.c ****     
 335:../Libraries/StdPeripheralDriver/src/stm32f10x_tim.c ****     /* Set the Output Idle state */
 336:../Libraries/StdPeripheralDriver/src/stm32f10x_tim.c ****     tmpcr2 |= TIM_OCInitStruct->TIM_OCIdleState;
 610              		.loc 1 336 0
 611 00e8 3B68     		ldr	r3, [r7]
 612 00ea 9A89     		ldrh	r2, [r3, #12]
 613 00ec BB89     		ldrh	r3, [r7, #12]	@ movhi
 614 00ee 1343     		orrs	r3, r3, r2
 615 00f0 BB81     		strh	r3, [r7, #12]	@ movhi
 337:../Libraries/StdPeripheralDriver/src/stm32f10x_tim.c ****     /* Set the Output N Idle state */
 338:../Libraries/StdPeripheralDriver/src/stm32f10x_tim.c ****     tmpcr2 |= TIM_OCInitStruct->TIM_OCNIdleState;
 616              		.loc 1 338 0
 617 00f2 3B68     		ldr	r3, [r7]
 618 00f4 DA89     		ldrh	r2, [r3, #14]
 619 00f6 BB89     		ldrh	r3, [r7, #12]	@ movhi
 620 00f8 1343     		orrs	r3, r3, r2
 621 00fa BB81     		strh	r3, [r7, #12]	@ movhi
 622              	.L27:
 339:../Libraries/StdPeripheralDriver/src/stm32f10x_tim.c ****   }
 340:../Libraries/StdPeripheralDriver/src/stm32f10x_tim.c ****   /* Write to TIMx CR2 */
 341:../Libraries/StdPeripheralDriver/src/stm32f10x_tim.c ****   TIMx->CR2 = tmpcr2;
 623              		.loc 1 341 0
 624 00fc 7B68     		ldr	r3, [r7, #4]
 625 00fe BA89     		ldrh	r2, [r7, #12]	@ movhi
 626 0100 9A80     		strh	r2, [r3, #4]	@ movhi
 342:../Libraries/StdPeripheralDriver/src/stm32f10x_tim.c ****   
 343:../Libraries/StdPeripheralDriver/src/stm32f10x_tim.c ****   /* Write to TIMx CCMR1 */
 344:../Libraries/StdPeripheralDriver/src/stm32f10x_tim.c ****   TIMx->CCMR1 = tmpccmrx;
 627              		.loc 1 344 0
 628 0102 7B68     		ldr	r3, [r7, #4]
 629 0104 7A89     		ldrh	r2, [r7, #10]	@ movhi
 630 0106 1A83     		strh	r2, [r3, #24]	@ movhi
 345:../Libraries/StdPeripheralDriver/src/stm32f10x_tim.c **** 
 346:../Libraries/StdPeripheralDriver/src/stm32f10x_tim.c ****   /* Set the Capture Compare Register value */
 347:../Libraries/StdPeripheralDriver/src/stm32f10x_tim.c ****   TIMx->CCR1 = TIM_OCInitStruct->TIM_Pulse; 
 631              		.loc 1 347 0
 632 0108 3B68     		ldr	r3, [r7]
 633 010a DA88     		ldrh	r2, [r3, #6]
 634 010c 7B68     		ldr	r3, [r7, #4]
 635 010e 9A86     		strh	r2, [r3, #52]	@ movhi
 348:../Libraries/StdPeripheralDriver/src/stm32f10x_tim.c ****  
 349:../Libraries/StdPeripheralDriver/src/stm32f10x_tim.c ****   /* Write to TIMx CCER */
 350:../Libraries/StdPeripheralDriver/src/stm32f10x_tim.c ****   TIMx->CCER = tmpccer;
 636              		.loc 1 350 0
 637 0110 7B68     		ldr	r3, [r7, #4]
 638 0112 FA89     		ldrh	r2, [r7, #14]	@ movhi
 639 0114 1A84     		strh	r2, [r3, #32]	@ movhi
 351:../Libraries/StdPeripheralDriver/src/stm32f10x_tim.c **** }
 640              		.loc 1 351 0
 641 0116 1437     		adds	r7, r7, #20
 642 0118 BD46     		mov	sp, r7
 643              		@ sp needed
 644 011a 5DF8047B 		ldr	r7, [sp], #4
 645 011e 7047     		bx	lr
 646              		.cfi_endproc
 647              	.LFE31:
 649              		.section	.text.TIM_OC2Init,"ax",%progbits
 650              		.align	2
 651              		.global	TIM_OC2Init
 652              		.thumb
 653              		.thumb_func
 655              	TIM_OC2Init:
 656              	.LFB32:
 352:../Libraries/StdPeripheralDriver/src/stm32f10x_tim.c **** 
 353:../Libraries/StdPeripheralDriver/src/stm32f10x_tim.c **** /**
 354:../Libraries/StdPeripheralDriver/src/stm32f10x_tim.c ****   * @brief  Initializes the TIMx Channel2 according to the specified
 355:../Libraries/StdPeripheralDriver/src/stm32f10x_tim.c ****   *         parameters in the TIM_OCInitStruct.
 356:../Libraries/StdPeripheralDriver/src/stm32f10x_tim.c ****   * @param  TIMx: where x can be  1, 2, 3, 4, 5, 8, 9, 12 or 15 to select 
 357:../Libraries/StdPeripheralDriver/src/stm32f10x_tim.c ****   *         the TIM peripheral.
 358:../Libraries/StdPeripheralDriver/src/stm32f10x_tim.c ****   * @param  TIM_OCInitStruct: pointer to a TIM_OCInitTypeDef structure
 359:../Libraries/StdPeripheralDriver/src/stm32f10x_tim.c ****   *         that contains the configuration information for the specified TIM peripheral.
 360:../Libraries/StdPeripheralDriver/src/stm32f10x_tim.c ****   * @retval None
 361:../Libraries/StdPeripheralDriver/src/stm32f10x_tim.c ****   */
 362:../Libraries/StdPeripheralDriver/src/stm32f10x_tim.c **** void TIM_OC2Init(TIM_TypeDef* TIMx, TIM_OCInitTypeDef* TIM_OCInitStruct)
 363:../Libraries/StdPeripheralDriver/src/stm32f10x_tim.c **** {
 657              		.loc 1 363 0
 658              		.cfi_startproc
 659              		@ args = 0, pretend = 0, frame = 16
 660              		@ frame_needed = 1, uses_anonymous_args = 0
 661              		@ link register save eliminated.
 662 0000 80B4     		push	{r7}
 663              		.cfi_def_cfa_offset 4
 664              		.cfi_offset 7, -4
 665 0002 85B0     		sub	sp, sp, #20
 666              		.cfi_def_cfa_offset 24
 667 0004 00AF     		add	r7, sp, #0
 668              		.cfi_def_cfa_register 7
 669 0006 7860     		str	r0, [r7, #4]
 670 0008 3960     		str	r1, [r7]
 364:../Libraries/StdPeripheralDriver/src/stm32f10x_tim.c ****   uint16_t tmpccmrx = 0, tmpccer = 0, tmpcr2 = 0;
 671              		.loc 1 364 0
 672 000a 0023     		movs	r3, #0
 673 000c 7B81     		strh	r3, [r7, #10]	@ movhi
 674 000e 0023     		movs	r3, #0
 675 0010 FB81     		strh	r3, [r7, #14]	@ movhi
 676 0012 0023     		movs	r3, #0
 677 0014 BB81     		strh	r3, [r7, #12]	@ movhi
 365:../Libraries/StdPeripheralDriver/src/stm32f10x_tim.c ****    
 366:../Libraries/StdPeripheralDriver/src/stm32f10x_tim.c ****   /* Check the parameters */
 367:../Libraries/StdPeripheralDriver/src/stm32f10x_tim.c ****   assert_param(IS_TIM_LIST6_PERIPH(TIMx)); 
 368:../Libraries/StdPeripheralDriver/src/stm32f10x_tim.c ****   assert_param(IS_TIM_OC_MODE(TIM_OCInitStruct->TIM_OCMode));
 369:../Libraries/StdPeripheralDriver/src/stm32f10x_tim.c ****   assert_param(IS_TIM_OUTPUT_STATE(TIM_OCInitStruct->TIM_OutputState));
 370:../Libraries/StdPeripheralDriver/src/stm32f10x_tim.c ****   assert_param(IS_TIM_OC_POLARITY(TIM_OCInitStruct->TIM_OCPolarity));   
 371:../Libraries/StdPeripheralDriver/src/stm32f10x_tim.c ****    /* Disable the Channel 2: Reset the CC2E Bit */
 372:../Libraries/StdPeripheralDriver/src/stm32f10x_tim.c ****   TIMx->CCER &= (uint16_t)(~((uint16_t)TIM_CCER_CC2E));
 678              		.loc 1 372 0
 679 0016 7B68     		ldr	r3, [r7, #4]
 680 0018 1B8C     		ldrh	r3, [r3, #32]	@ movhi
 681 001a 9BB2     		uxth	r3, r3
 682 001c 23F01003 		bic	r3, r3, #16
 683 0020 9AB2     		uxth	r2, r3
 684 0022 7B68     		ldr	r3, [r7, #4]
 685 0024 1A84     		strh	r2, [r3, #32]	@ movhi
 373:../Libraries/StdPeripheralDriver/src/stm32f10x_tim.c ****   
 374:../Libraries/StdPeripheralDriver/src/stm32f10x_tim.c ****   /* Get the TIMx CCER register value */  
 375:../Libraries/StdPeripheralDriver/src/stm32f10x_tim.c ****   tmpccer = TIMx->CCER;
 686              		.loc 1 375 0
 687 0026 7B68     		ldr	r3, [r7, #4]
 688 0028 1B8C     		ldrh	r3, [r3, #32]	@ movhi
 689 002a FB81     		strh	r3, [r7, #14]	@ movhi
 376:../Libraries/StdPeripheralDriver/src/stm32f10x_tim.c ****   /* Get the TIMx CR2 register value */
 377:../Libraries/StdPeripheralDriver/src/stm32f10x_tim.c ****   tmpcr2 =  TIMx->CR2;
 690              		.loc 1 377 0
 691 002c 7B68     		ldr	r3, [r7, #4]
 692 002e 9B88     		ldrh	r3, [r3, #4]	@ movhi
 693 0030 BB81     		strh	r3, [r7, #12]	@ movhi
 378:../Libraries/StdPeripheralDriver/src/stm32f10x_tim.c ****   
 379:../Libraries/StdPeripheralDriver/src/stm32f10x_tim.c ****   /* Get the TIMx CCMR1 register value */
 380:../Libraries/StdPeripheralDriver/src/stm32f10x_tim.c ****   tmpccmrx = TIMx->CCMR1;
 694              		.loc 1 380 0
 695 0032 7B68     		ldr	r3, [r7, #4]
 696 0034 1B8B     		ldrh	r3, [r3, #24]	@ movhi
 697 0036 7B81     		strh	r3, [r7, #10]	@ movhi
 381:../Libraries/StdPeripheralDriver/src/stm32f10x_tim.c ****     
 382:../Libraries/StdPeripheralDriver/src/stm32f10x_tim.c ****   /* Reset the Output Compare mode and Capture/Compare selection Bits */
 383:../Libraries/StdPeripheralDriver/src/stm32f10x_tim.c ****   tmpccmrx &= (uint16_t)(~((uint16_t)TIM_CCMR1_OC2M));
 698              		.loc 1 383 0
 699 0038 7B89     		ldrh	r3, [r7, #10]	@ movhi
 700 003a 23F4E043 		bic	r3, r3, #28672
 701 003e 7B81     		strh	r3, [r7, #10]	@ movhi
 384:../Libraries/StdPeripheralDriver/src/stm32f10x_tim.c ****   tmpccmrx &= (uint16_t)(~((uint16_t)TIM_CCMR1_CC2S));
 702              		.loc 1 384 0
 703 0040 7B89     		ldrh	r3, [r7, #10]	@ movhi
 704 0042 23F44073 		bic	r3, r3, #768
 705 0046 7B81     		strh	r3, [r7, #10]	@ movhi
 385:../Libraries/StdPeripheralDriver/src/stm32f10x_tim.c ****   
 386:../Libraries/StdPeripheralDriver/src/stm32f10x_tim.c ****   /* Select the Output Compare Mode */
 387:../Libraries/StdPeripheralDriver/src/stm32f10x_tim.c ****   tmpccmrx |= (uint16_t)(TIM_OCInitStruct->TIM_OCMode << 8);
 706              		.loc 1 387 0
 707 0048 3B68     		ldr	r3, [r7]
 708 004a 1B88     		ldrh	r3, [r3]
 709 004c 1B02     		lsls	r3, r3, #8
 710 004e 9AB2     		uxth	r2, r3
 711 0050 7B89     		ldrh	r3, [r7, #10]	@ movhi
 712 0052 1343     		orrs	r3, r3, r2
 713 0054 7B81     		strh	r3, [r7, #10]	@ movhi
 388:../Libraries/StdPeripheralDriver/src/stm32f10x_tim.c ****   
 389:../Libraries/StdPeripheralDriver/src/stm32f10x_tim.c ****   /* Reset the Output Polarity level */
 390:../Libraries/StdPeripheralDriver/src/stm32f10x_tim.c ****   tmpccer &= (uint16_t)(~((uint16_t)TIM_CCER_CC2P));
 714              		.loc 1 390 0
 715 0056 FB89     		ldrh	r3, [r7, #14]	@ movhi
 716 0058 23F02003 		bic	r3, r3, #32
 717 005c FB81     		strh	r3, [r7, #14]	@ movhi
 391:../Libraries/StdPeripheralDriver/src/stm32f10x_tim.c ****   /* Set the Output Compare Polarity */
 392:../Libraries/StdPeripheralDriver/src/stm32f10x_tim.c ****   tmpccer |= (uint16_t)(TIM_OCInitStruct->TIM_OCPolarity << 4);
 718              		.loc 1 392 0
 719 005e 3B68     		ldr	r3, [r7]
 720 0060 1B89     		ldrh	r3, [r3, #8]
 721 0062 1B01     		lsls	r3, r3, #4
 722 0064 9AB2     		uxth	r2, r3
 723 0066 FB89     		ldrh	r3, [r7, #14]	@ movhi
 724 0068 1343     		orrs	r3, r3, r2
 725 006a FB81     		strh	r3, [r7, #14]	@ movhi
 393:../Libraries/StdPeripheralDriver/src/stm32f10x_tim.c ****   
 394:../Libraries/StdPeripheralDriver/src/stm32f10x_tim.c ****   /* Set the Output State */
 395:../Libraries/StdPeripheralDriver/src/stm32f10x_tim.c ****   tmpccer |= (uint16_t)(TIM_OCInitStruct->TIM_OutputState << 4);
 726              		.loc 1 395 0
 727 006c 3B68     		ldr	r3, [r7]
 728 006e 5B88     		ldrh	r3, [r3, #2]
 729 0070 1B01     		lsls	r3, r3, #4
 730 0072 9AB2     		uxth	r2, r3
 731 0074 FB89     		ldrh	r3, [r7, #14]	@ movhi
 732 0076 1343     		orrs	r3, r3, r2
 733 0078 FB81     		strh	r3, [r7, #14]	@ movhi
 396:../Libraries/StdPeripheralDriver/src/stm32f10x_tim.c ****     
 397:../Libraries/StdPeripheralDriver/src/stm32f10x_tim.c ****   if((TIMx == TIM1) || (TIMx == TIM8))
 734              		.loc 1 397 0
 735 007a 7A68     		ldr	r2, [r7, #4]
 736 007c 4FF43053 		mov	r3, #11264
 737 0080 C4F20103 		movt	r3, 16385
 738 0084 9A42     		cmp	r2, r3
 739 0086 06D0     		beq	.L29
 740              		.loc 1 397 0 is_stmt 0 discriminator 1
 741 0088 7A68     		ldr	r2, [r7, #4]
 742 008a 4FF45053 		mov	r3, #13312
 743 008e C4F20103 		movt	r3, 16385
 744 0092 9A42     		cmp	r2, r3
 745 0094 2BD1     		bne	.L30
 746              	.L29:
 398:../Libraries/StdPeripheralDriver/src/stm32f10x_tim.c ****   {
 399:../Libraries/StdPeripheralDriver/src/stm32f10x_tim.c ****     assert_param(IS_TIM_OUTPUTN_STATE(TIM_OCInitStruct->TIM_OutputNState));
 400:../Libraries/StdPeripheralDriver/src/stm32f10x_tim.c ****     assert_param(IS_TIM_OCN_POLARITY(TIM_OCInitStruct->TIM_OCNPolarity));
 401:../Libraries/StdPeripheralDriver/src/stm32f10x_tim.c ****     assert_param(IS_TIM_OCNIDLE_STATE(TIM_OCInitStruct->TIM_OCNIdleState));
 402:../Libraries/StdPeripheralDriver/src/stm32f10x_tim.c ****     assert_param(IS_TIM_OCIDLE_STATE(TIM_OCInitStruct->TIM_OCIdleState));
 403:../Libraries/StdPeripheralDriver/src/stm32f10x_tim.c ****     
 404:../Libraries/StdPeripheralDriver/src/stm32f10x_tim.c ****     /* Reset the Output N Polarity level */
 405:../Libraries/StdPeripheralDriver/src/stm32f10x_tim.c ****     tmpccer &= (uint16_t)(~((uint16_t)TIM_CCER_CC2NP));
 747              		.loc 1 405 0 is_stmt 1
 748 0096 FB89     		ldrh	r3, [r7, #14]	@ movhi
 749 0098 23F08003 		bic	r3, r3, #128
 750 009c FB81     		strh	r3, [r7, #14]	@ movhi
 406:../Libraries/StdPeripheralDriver/src/stm32f10x_tim.c ****     /* Set the Output N Polarity */
 407:../Libraries/StdPeripheralDriver/src/stm32f10x_tim.c ****     tmpccer |= (uint16_t)(TIM_OCInitStruct->TIM_OCNPolarity << 4);
 751              		.loc 1 407 0
 752 009e 3B68     		ldr	r3, [r7]
 753 00a0 5B89     		ldrh	r3, [r3, #10]
 754 00a2 1B01     		lsls	r3, r3, #4
 755 00a4 9AB2     		uxth	r2, r3
 756 00a6 FB89     		ldrh	r3, [r7, #14]	@ movhi
 757 00a8 1343     		orrs	r3, r3, r2
 758 00aa FB81     		strh	r3, [r7, #14]	@ movhi
 408:../Libraries/StdPeripheralDriver/src/stm32f10x_tim.c ****     
 409:../Libraries/StdPeripheralDriver/src/stm32f10x_tim.c ****     /* Reset the Output N State */
 410:../Libraries/StdPeripheralDriver/src/stm32f10x_tim.c ****     tmpccer &= (uint16_t)(~((uint16_t)TIM_CCER_CC2NE));    
 759              		.loc 1 410 0
 760 00ac FB89     		ldrh	r3, [r7, #14]	@ movhi
 761 00ae 23F04003 		bic	r3, r3, #64
 762 00b2 FB81     		strh	r3, [r7, #14]	@ movhi
 411:../Libraries/StdPeripheralDriver/src/stm32f10x_tim.c ****     /* Set the Output N State */
 412:../Libraries/StdPeripheralDriver/src/stm32f10x_tim.c ****     tmpccer |= (uint16_t)(TIM_OCInitStruct->TIM_OutputNState << 4);
 763              		.loc 1 412 0
 764 00b4 3B68     		ldr	r3, [r7]
 765 00b6 9B88     		ldrh	r3, [r3, #4]
 766 00b8 1B01     		lsls	r3, r3, #4
 767 00ba 9AB2     		uxth	r2, r3
 768 00bc FB89     		ldrh	r3, [r7, #14]	@ movhi
 769 00be 1343     		orrs	r3, r3, r2
 770 00c0 FB81     		strh	r3, [r7, #14]	@ movhi
 413:../Libraries/StdPeripheralDriver/src/stm32f10x_tim.c ****     
 414:../Libraries/StdPeripheralDriver/src/stm32f10x_tim.c ****     /* Reset the Output Compare and Output Compare N IDLE State */
 415:../Libraries/StdPeripheralDriver/src/stm32f10x_tim.c ****     tmpcr2 &= (uint16_t)(~((uint16_t)TIM_CR2_OIS2));
 771              		.loc 1 415 0
 772 00c2 BB89     		ldrh	r3, [r7, #12]	@ movhi
 773 00c4 23F48063 		bic	r3, r3, #1024
 774 00c8 BB81     		strh	r3, [r7, #12]	@ movhi
 416:../Libraries/StdPeripheralDriver/src/stm32f10x_tim.c ****     tmpcr2 &= (uint16_t)(~((uint16_t)TIM_CR2_OIS2N));
 775              		.loc 1 416 0
 776 00ca BB89     		ldrh	r3, [r7, #12]	@ movhi
 777 00cc 23F40063 		bic	r3, r3, #2048
 778 00d0 BB81     		strh	r3, [r7, #12]	@ movhi
 417:../Libraries/StdPeripheralDriver/src/stm32f10x_tim.c ****     
 418:../Libraries/StdPeripheralDriver/src/stm32f10x_tim.c ****     /* Set the Output Idle state */
 419:../Libraries/StdPeripheralDriver/src/stm32f10x_tim.c ****     tmpcr2 |= (uint16_t)(TIM_OCInitStruct->TIM_OCIdleState << 2);
 779              		.loc 1 419 0
 780 00d2 3B68     		ldr	r3, [r7]
 781 00d4 9B89     		ldrh	r3, [r3, #12]
 782 00d6 9B00     		lsls	r3, r3, #2
 783 00d8 9AB2     		uxth	r2, r3
 784 00da BB89     		ldrh	r3, [r7, #12]	@ movhi
 785 00dc 1343     		orrs	r3, r3, r2
 786 00de BB81     		strh	r3, [r7, #12]	@ movhi
 420:../Libraries/StdPeripheralDriver/src/stm32f10x_tim.c ****     /* Set the Output N Idle state */
 421:../Libraries/StdPeripheralDriver/src/stm32f10x_tim.c ****     tmpcr2 |= (uint16_t)(TIM_OCInitStruct->TIM_OCNIdleState << 2);
 787              		.loc 1 421 0
 788 00e0 3B68     		ldr	r3, [r7]
 789 00e2 DB89     		ldrh	r3, [r3, #14]
 790 00e4 9B00     		lsls	r3, r3, #2
 791 00e6 9AB2     		uxth	r2, r3
 792 00e8 BB89     		ldrh	r3, [r7, #12]	@ movhi
 793 00ea 1343     		orrs	r3, r3, r2
 794 00ec BB81     		strh	r3, [r7, #12]	@ movhi
 795              	.L30:
 422:../Libraries/StdPeripheralDriver/src/stm32f10x_tim.c ****   }
 423:../Libraries/StdPeripheralDriver/src/stm32f10x_tim.c ****   /* Write to TIMx CR2 */
 424:../Libraries/StdPeripheralDriver/src/stm32f10x_tim.c ****   TIMx->CR2 = tmpcr2;
 796              		.loc 1 424 0
 797 00ee 7B68     		ldr	r3, [r7, #4]
 798 00f0 BA89     		ldrh	r2, [r7, #12]	@ movhi
 799 00f2 9A80     		strh	r2, [r3, #4]	@ movhi
 425:../Libraries/StdPeripheralDriver/src/stm32f10x_tim.c ****   
 426:../Libraries/StdPeripheralDriver/src/stm32f10x_tim.c ****   /* Write to TIMx CCMR1 */
 427:../Libraries/StdPeripheralDriver/src/stm32f10x_tim.c ****   TIMx->CCMR1 = tmpccmrx;
 800              		.loc 1 427 0
 801 00f4 7B68     		ldr	r3, [r7, #4]
 802 00f6 7A89     		ldrh	r2, [r7, #10]	@ movhi
 803 00f8 1A83     		strh	r2, [r3, #24]	@ movhi
 428:../Libraries/StdPeripheralDriver/src/stm32f10x_tim.c **** 
 429:../Libraries/StdPeripheralDriver/src/stm32f10x_tim.c ****   /* Set the Capture Compare Register value */
 430:../Libraries/StdPeripheralDriver/src/stm32f10x_tim.c ****   TIMx->CCR2 = TIM_OCInitStruct->TIM_Pulse;
 804              		.loc 1 430 0
 805 00fa 3B68     		ldr	r3, [r7]
 806 00fc DA88     		ldrh	r2, [r3, #6]
 807 00fe 7B68     		ldr	r3, [r7, #4]
 808 0100 1A87     		strh	r2, [r3, #56]	@ movhi
 431:../Libraries/StdPeripheralDriver/src/stm32f10x_tim.c ****   
 432:../Libraries/StdPeripheralDriver/src/stm32f10x_tim.c ****   /* Write to TIMx CCER */
 433:../Libraries/StdPeripheralDriver/src/stm32f10x_tim.c ****   TIMx->CCER = tmpccer;
 809              		.loc 1 433 0
 810 0102 7B68     		ldr	r3, [r7, #4]
 811 0104 FA89     		ldrh	r2, [r7, #14]	@ movhi
 812 0106 1A84     		strh	r2, [r3, #32]	@ movhi
 434:../Libraries/StdPeripheralDriver/src/stm32f10x_tim.c **** }
 813              		.loc 1 434 0
 814 0108 1437     		adds	r7, r7, #20
 815 010a BD46     		mov	sp, r7
 816              		@ sp needed
 817 010c 5DF8047B 		ldr	r7, [sp], #4
 818 0110 7047     		bx	lr
 819              		.cfi_endproc
 820              	.LFE32:
 822 0112 00BF     		.section	.text.TIM_OC3Init,"ax",%progbits
 823              		.align	2
 824              		.global	TIM_OC3Init
 825              		.thumb
 826              		.thumb_func
 828              	TIM_OC3Init:
 829              	.LFB33:
 435:../Libraries/StdPeripheralDriver/src/stm32f10x_tim.c **** 
 436:../Libraries/StdPeripheralDriver/src/stm32f10x_tim.c **** /**
 437:../Libraries/StdPeripheralDriver/src/stm32f10x_tim.c ****   * @brief  Initializes the TIMx Channel3 according to the specified
 438:../Libraries/StdPeripheralDriver/src/stm32f10x_tim.c ****   *         parameters in the TIM_OCInitStruct.
 439:../Libraries/StdPeripheralDriver/src/stm32f10x_tim.c ****   * @param  TIMx: where x can be  1, 2, 3, 4, 5 or 8 to select the TIM peripheral.
 440:../Libraries/StdPeripheralDriver/src/stm32f10x_tim.c ****   * @param  TIM_OCInitStruct: pointer to a TIM_OCInitTypeDef structure
 441:../Libraries/StdPeripheralDriver/src/stm32f10x_tim.c ****   *         that contains the configuration information for the specified TIM peripheral.
 442:../Libraries/StdPeripheralDriver/src/stm32f10x_tim.c ****   * @retval None
 443:../Libraries/StdPeripheralDriver/src/stm32f10x_tim.c ****   */
 444:../Libraries/StdPeripheralDriver/src/stm32f10x_tim.c **** void TIM_OC3Init(TIM_TypeDef* TIMx, TIM_OCInitTypeDef* TIM_OCInitStruct)
 445:../Libraries/StdPeripheralDriver/src/stm32f10x_tim.c **** {
 830              		.loc 1 445 0
 831              		.cfi_startproc
 832              		@ args = 0, pretend = 0, frame = 16
 833              		@ frame_needed = 1, uses_anonymous_args = 0
 834              		@ link register save eliminated.
 835 0000 80B4     		push	{r7}
 836              		.cfi_def_cfa_offset 4
 837              		.cfi_offset 7, -4
 838 0002 85B0     		sub	sp, sp, #20
 839              		.cfi_def_cfa_offset 24
 840 0004 00AF     		add	r7, sp, #0
 841              		.cfi_def_cfa_register 7
 842 0006 7860     		str	r0, [r7, #4]
 843 0008 3960     		str	r1, [r7]
 446:../Libraries/StdPeripheralDriver/src/stm32f10x_tim.c ****   uint16_t tmpccmrx = 0, tmpccer = 0, tmpcr2 = 0;
 844              		.loc 1 446 0
 845 000a 0023     		movs	r3, #0
 846 000c 7B81     		strh	r3, [r7, #10]	@ movhi
 847 000e 0023     		movs	r3, #0
 848 0010 FB81     		strh	r3, [r7, #14]	@ movhi
 849 0012 0023     		movs	r3, #0
 850 0014 BB81     		strh	r3, [r7, #12]	@ movhi
 447:../Libraries/StdPeripheralDriver/src/stm32f10x_tim.c ****    
 448:../Libraries/StdPeripheralDriver/src/stm32f10x_tim.c ****   /* Check the parameters */
 449:../Libraries/StdPeripheralDriver/src/stm32f10x_tim.c ****   assert_param(IS_TIM_LIST3_PERIPH(TIMx)); 
 450:../Libraries/StdPeripheralDriver/src/stm32f10x_tim.c ****   assert_param(IS_TIM_OC_MODE(TIM_OCInitStruct->TIM_OCMode));
 451:../Libraries/StdPeripheralDriver/src/stm32f10x_tim.c ****   assert_param(IS_TIM_OUTPUT_STATE(TIM_OCInitStruct->TIM_OutputState));
 452:../Libraries/StdPeripheralDriver/src/stm32f10x_tim.c ****   assert_param(IS_TIM_OC_POLARITY(TIM_OCInitStruct->TIM_OCPolarity));   
 453:../Libraries/StdPeripheralDriver/src/stm32f10x_tim.c ****   /* Disable the Channel 2: Reset the CC2E Bit */
 454:../Libraries/StdPeripheralDriver/src/stm32f10x_tim.c ****   TIMx->CCER &= (uint16_t)(~((uint16_t)TIM_CCER_CC3E));
 851              		.loc 1 454 0
 852 0016 7B68     		ldr	r3, [r7, #4]
 853 0018 1B8C     		ldrh	r3, [r3, #32]	@ movhi
 854 001a 9BB2     		uxth	r3, r3
 855 001c 23F48073 		bic	r3, r3, #256
 856 0020 9AB2     		uxth	r2, r3
 857 0022 7B68     		ldr	r3, [r7, #4]
 858 0024 1A84     		strh	r2, [r3, #32]	@ movhi
 455:../Libraries/StdPeripheralDriver/src/stm32f10x_tim.c ****   
 456:../Libraries/StdPeripheralDriver/src/stm32f10x_tim.c ****   /* Get the TIMx CCER register value */
 457:../Libraries/StdPeripheralDriver/src/stm32f10x_tim.c ****   tmpccer = TIMx->CCER;
 859              		.loc 1 457 0
 860 0026 7B68     		ldr	r3, [r7, #4]
 861 0028 1B8C     		ldrh	r3, [r3, #32]	@ movhi
 862 002a FB81     		strh	r3, [r7, #14]	@ movhi
 458:../Libraries/StdPeripheralDriver/src/stm32f10x_tim.c ****   /* Get the TIMx CR2 register value */
 459:../Libraries/StdPeripheralDriver/src/stm32f10x_tim.c ****   tmpcr2 =  TIMx->CR2;
 863              		.loc 1 459 0
 864 002c 7B68     		ldr	r3, [r7, #4]
 865 002e 9B88     		ldrh	r3, [r3, #4]	@ movhi
 866 0030 BB81     		strh	r3, [r7, #12]	@ movhi
 460:../Libraries/StdPeripheralDriver/src/stm32f10x_tim.c ****   
 461:../Libraries/StdPeripheralDriver/src/stm32f10x_tim.c ****   /* Get the TIMx CCMR2 register value */
 462:../Libraries/StdPeripheralDriver/src/stm32f10x_tim.c ****   tmpccmrx = TIMx->CCMR2;
 867              		.loc 1 462 0
 868 0032 7B68     		ldr	r3, [r7, #4]
 869 0034 9B8B     		ldrh	r3, [r3, #28]	@ movhi
 870 0036 7B81     		strh	r3, [r7, #10]	@ movhi
 463:../Libraries/StdPeripheralDriver/src/stm32f10x_tim.c ****     
 464:../Libraries/StdPeripheralDriver/src/stm32f10x_tim.c ****   /* Reset the Output Compare mode and Capture/Compare selection Bits */
 465:../Libraries/StdPeripheralDriver/src/stm32f10x_tim.c ****   tmpccmrx &= (uint16_t)(~((uint16_t)TIM_CCMR2_OC3M));
 871              		.loc 1 465 0
 872 0038 7B89     		ldrh	r3, [r7, #10]	@ movhi
 873 003a 23F07003 		bic	r3, r3, #112
 874 003e 7B81     		strh	r3, [r7, #10]	@ movhi
 466:../Libraries/StdPeripheralDriver/src/stm32f10x_tim.c ****   tmpccmrx &= (uint16_t)(~((uint16_t)TIM_CCMR2_CC3S));  
 875              		.loc 1 466 0
 876 0040 7B89     		ldrh	r3, [r7, #10]	@ movhi
 877 0042 23F00303 		bic	r3, r3, #3
 878 0046 7B81     		strh	r3, [r7, #10]	@ movhi
 467:../Libraries/StdPeripheralDriver/src/stm32f10x_tim.c ****   /* Select the Output Compare Mode */
 468:../Libraries/StdPeripheralDriver/src/stm32f10x_tim.c ****   tmpccmrx |= TIM_OCInitStruct->TIM_OCMode;
 879              		.loc 1 468 0
 880 0048 3B68     		ldr	r3, [r7]
 881 004a 1A88     		ldrh	r2, [r3]
 882 004c 7B89     		ldrh	r3, [r7, #10]	@ movhi
 883 004e 1343     		orrs	r3, r3, r2
 884 0050 7B81     		strh	r3, [r7, #10]	@ movhi
 469:../Libraries/StdPeripheralDriver/src/stm32f10x_tim.c ****   
 470:../Libraries/StdPeripheralDriver/src/stm32f10x_tim.c ****   /* Reset the Output Polarity level */
 471:../Libraries/StdPeripheralDriver/src/stm32f10x_tim.c ****   tmpccer &= (uint16_t)(~((uint16_t)TIM_CCER_CC3P));
 885              		.loc 1 471 0
 886 0052 FB89     		ldrh	r3, [r7, #14]	@ movhi
 887 0054 23F40073 		bic	r3, r3, #512
 888 0058 FB81     		strh	r3, [r7, #14]	@ movhi
 472:../Libraries/StdPeripheralDriver/src/stm32f10x_tim.c ****   /* Set the Output Compare Polarity */
 473:../Libraries/StdPeripheralDriver/src/stm32f10x_tim.c ****   tmpccer |= (uint16_t)(TIM_OCInitStruct->TIM_OCPolarity << 8);
 889              		.loc 1 473 0
 890 005a 3B68     		ldr	r3, [r7]
 891 005c 1B89     		ldrh	r3, [r3, #8]
 892 005e 1B02     		lsls	r3, r3, #8
 893 0060 9AB2     		uxth	r2, r3
 894 0062 FB89     		ldrh	r3, [r7, #14]	@ movhi
 895 0064 1343     		orrs	r3, r3, r2
 896 0066 FB81     		strh	r3, [r7, #14]	@ movhi
 474:../Libraries/StdPeripheralDriver/src/stm32f10x_tim.c ****   
 475:../Libraries/StdPeripheralDriver/src/stm32f10x_tim.c ****   /* Set the Output State */
 476:../Libraries/StdPeripheralDriver/src/stm32f10x_tim.c ****   tmpccer |= (uint16_t)(TIM_OCInitStruct->TIM_OutputState << 8);
 897              		.loc 1 476 0
 898 0068 3B68     		ldr	r3, [r7]
 899 006a 5B88     		ldrh	r3, [r3, #2]
 900 006c 1B02     		lsls	r3, r3, #8
 901 006e 9AB2     		uxth	r2, r3
 902 0070 FB89     		ldrh	r3, [r7, #14]	@ movhi
 903 0072 1343     		orrs	r3, r3, r2
 904 0074 FB81     		strh	r3, [r7, #14]	@ movhi
 477:../Libraries/StdPeripheralDriver/src/stm32f10x_tim.c ****     
 478:../Libraries/StdPeripheralDriver/src/stm32f10x_tim.c ****   if((TIMx == TIM1) || (TIMx == TIM8))
 905              		.loc 1 478 0
 906 0076 7A68     		ldr	r2, [r7, #4]
 907 0078 4FF43053 		mov	r3, #11264
 908 007c C4F20103 		movt	r3, 16385
 909 0080 9A42     		cmp	r2, r3
 910 0082 06D0     		beq	.L32
 911              		.loc 1 478 0 is_stmt 0 discriminator 1
 912 0084 7A68     		ldr	r2, [r7, #4]
 913 0086 4FF45053 		mov	r3, #13312
 914 008a C4F20103 		movt	r3, 16385
 915 008e 9A42     		cmp	r2, r3
 916 0090 2BD1     		bne	.L33
 917              	.L32:
 479:../Libraries/StdPeripheralDriver/src/stm32f10x_tim.c ****   {
 480:../Libraries/StdPeripheralDriver/src/stm32f10x_tim.c ****     assert_param(IS_TIM_OUTPUTN_STATE(TIM_OCInitStruct->TIM_OutputNState));
 481:../Libraries/StdPeripheralDriver/src/stm32f10x_tim.c ****     assert_param(IS_TIM_OCN_POLARITY(TIM_OCInitStruct->TIM_OCNPolarity));
 482:../Libraries/StdPeripheralDriver/src/stm32f10x_tim.c ****     assert_param(IS_TIM_OCNIDLE_STATE(TIM_OCInitStruct->TIM_OCNIdleState));
 483:../Libraries/StdPeripheralDriver/src/stm32f10x_tim.c ****     assert_param(IS_TIM_OCIDLE_STATE(TIM_OCInitStruct->TIM_OCIdleState));
 484:../Libraries/StdPeripheralDriver/src/stm32f10x_tim.c ****     
 485:../Libraries/StdPeripheralDriver/src/stm32f10x_tim.c ****     /* Reset the Output N Polarity level */
 486:../Libraries/StdPeripheralDriver/src/stm32f10x_tim.c ****     tmpccer &= (uint16_t)(~((uint16_t)TIM_CCER_CC3NP));
 918              		.loc 1 486 0 is_stmt 1
 919 0092 FB89     		ldrh	r3, [r7, #14]	@ movhi
 920 0094 23F40063 		bic	r3, r3, #2048
 921 0098 FB81     		strh	r3, [r7, #14]	@ movhi
 487:../Libraries/StdPeripheralDriver/src/stm32f10x_tim.c ****     /* Set the Output N Polarity */
 488:../Libraries/StdPeripheralDriver/src/stm32f10x_tim.c ****     tmpccer |= (uint16_t)(TIM_OCInitStruct->TIM_OCNPolarity << 8);
 922              		.loc 1 488 0
 923 009a 3B68     		ldr	r3, [r7]
 924 009c 5B89     		ldrh	r3, [r3, #10]
 925 009e 1B02     		lsls	r3, r3, #8
 926 00a0 9AB2     		uxth	r2, r3
 927 00a2 FB89     		ldrh	r3, [r7, #14]	@ movhi
 928 00a4 1343     		orrs	r3, r3, r2
 929 00a6 FB81     		strh	r3, [r7, #14]	@ movhi
 489:../Libraries/StdPeripheralDriver/src/stm32f10x_tim.c ****     /* Reset the Output N State */
 490:../Libraries/StdPeripheralDriver/src/stm32f10x_tim.c ****     tmpccer &= (uint16_t)(~((uint16_t)TIM_CCER_CC3NE));
 930              		.loc 1 490 0
 931 00a8 FB89     		ldrh	r3, [r7, #14]	@ movhi
 932 00aa 23F48063 		bic	r3, r3, #1024
 933 00ae FB81     		strh	r3, [r7, #14]	@ movhi
 491:../Libraries/StdPeripheralDriver/src/stm32f10x_tim.c ****     
 492:../Libraries/StdPeripheralDriver/src/stm32f10x_tim.c ****     /* Set the Output N State */
 493:../Libraries/StdPeripheralDriver/src/stm32f10x_tim.c ****     tmpccer |= (uint16_t)(TIM_OCInitStruct->TIM_OutputNState << 8);
 934              		.loc 1 493 0
 935 00b0 3B68     		ldr	r3, [r7]
 936 00b2 9B88     		ldrh	r3, [r3, #4]
 937 00b4 1B02     		lsls	r3, r3, #8
 938 00b6 9AB2     		uxth	r2, r3
 939 00b8 FB89     		ldrh	r3, [r7, #14]	@ movhi
 940 00ba 1343     		orrs	r3, r3, r2
 941 00bc FB81     		strh	r3, [r7, #14]	@ movhi
 494:../Libraries/StdPeripheralDriver/src/stm32f10x_tim.c ****     /* Reset the Output Compare and Output Compare N IDLE State */
 495:../Libraries/StdPeripheralDriver/src/stm32f10x_tim.c ****     tmpcr2 &= (uint16_t)(~((uint16_t)TIM_CR2_OIS3));
 942              		.loc 1 495 0
 943 00be BB89     		ldrh	r3, [r7, #12]	@ movhi
 944 00c0 23F48053 		bic	r3, r3, #4096
 945 00c4 BB81     		strh	r3, [r7, #12]	@ movhi
 496:../Libraries/StdPeripheralDriver/src/stm32f10x_tim.c ****     tmpcr2 &= (uint16_t)(~((uint16_t)TIM_CR2_OIS3N));
 946              		.loc 1 496 0
 947 00c6 BB89     		ldrh	r3, [r7, #12]	@ movhi
 948 00c8 23F40053 		bic	r3, r3, #8192
 949 00cc BB81     		strh	r3, [r7, #12]	@ movhi
 497:../Libraries/StdPeripheralDriver/src/stm32f10x_tim.c ****     /* Set the Output Idle state */
 498:../Libraries/StdPeripheralDriver/src/stm32f10x_tim.c ****     tmpcr2 |= (uint16_t)(TIM_OCInitStruct->TIM_OCIdleState << 4);
 950              		.loc 1 498 0
 951 00ce 3B68     		ldr	r3, [r7]
 952 00d0 9B89     		ldrh	r3, [r3, #12]
 953 00d2 1B01     		lsls	r3, r3, #4
 954 00d4 9AB2     		uxth	r2, r3
 955 00d6 BB89     		ldrh	r3, [r7, #12]	@ movhi
 956 00d8 1343     		orrs	r3, r3, r2
 957 00da BB81     		strh	r3, [r7, #12]	@ movhi
 499:../Libraries/StdPeripheralDriver/src/stm32f10x_tim.c ****     /* Set the Output N Idle state */
 500:../Libraries/StdPeripheralDriver/src/stm32f10x_tim.c ****     tmpcr2 |= (uint16_t)(TIM_OCInitStruct->TIM_OCNIdleState << 4);
 958              		.loc 1 500 0
 959 00dc 3B68     		ldr	r3, [r7]
 960 00de DB89     		ldrh	r3, [r3, #14]
 961 00e0 1B01     		lsls	r3, r3, #4
 962 00e2 9AB2     		uxth	r2, r3
 963 00e4 BB89     		ldrh	r3, [r7, #12]	@ movhi
 964 00e6 1343     		orrs	r3, r3, r2
 965 00e8 BB81     		strh	r3, [r7, #12]	@ movhi
 966              	.L33:
 501:../Libraries/StdPeripheralDriver/src/stm32f10x_tim.c ****   }
 502:../Libraries/StdPeripheralDriver/src/stm32f10x_tim.c ****   /* Write to TIMx CR2 */
 503:../Libraries/StdPeripheralDriver/src/stm32f10x_tim.c ****   TIMx->CR2 = tmpcr2;
 967              		.loc 1 503 0
 968 00ea 7B68     		ldr	r3, [r7, #4]
 969 00ec BA89     		ldrh	r2, [r7, #12]	@ movhi
 970 00ee 9A80     		strh	r2, [r3, #4]	@ movhi
 504:../Libraries/StdPeripheralDriver/src/stm32f10x_tim.c ****   
 505:../Libraries/StdPeripheralDriver/src/stm32f10x_tim.c ****   /* Write to TIMx CCMR2 */
 506:../Libraries/StdPeripheralDriver/src/stm32f10x_tim.c ****   TIMx->CCMR2 = tmpccmrx;
 971              		.loc 1 506 0
 972 00f0 7B68     		ldr	r3, [r7, #4]
 973 00f2 7A89     		ldrh	r2, [r7, #10]	@ movhi
 974 00f4 9A83     		strh	r2, [r3, #28]	@ movhi
 507:../Libraries/StdPeripheralDriver/src/stm32f10x_tim.c **** 
 508:../Libraries/StdPeripheralDriver/src/stm32f10x_tim.c ****   /* Set the Capture Compare Register value */
 509:../Libraries/StdPeripheralDriver/src/stm32f10x_tim.c ****   TIMx->CCR3 = TIM_OCInitStruct->TIM_Pulse;
 975              		.loc 1 509 0
 976 00f6 3B68     		ldr	r3, [r7]
 977 00f8 DA88     		ldrh	r2, [r3, #6]
 978 00fa 7B68     		ldr	r3, [r7, #4]
 979 00fc 9A87     		strh	r2, [r3, #60]	@ movhi
 510:../Libraries/StdPeripheralDriver/src/stm32f10x_tim.c ****   
 511:../Libraries/StdPeripheralDriver/src/stm32f10x_tim.c ****   /* Write to TIMx CCER */
 512:../Libraries/StdPeripheralDriver/src/stm32f10x_tim.c ****   TIMx->CCER = tmpccer;
 980              		.loc 1 512 0
 981 00fe 7B68     		ldr	r3, [r7, #4]
 982 0100 FA89     		ldrh	r2, [r7, #14]	@ movhi
 983 0102 1A84     		strh	r2, [r3, #32]	@ movhi
 513:../Libraries/StdPeripheralDriver/src/stm32f10x_tim.c **** }
 984              		.loc 1 513 0
 985 0104 1437     		adds	r7, r7, #20
 986 0106 BD46     		mov	sp, r7
 987              		@ sp needed
 988 0108 5DF8047B 		ldr	r7, [sp], #4
 989 010c 7047     		bx	lr
 990              		.cfi_endproc
 991              	.LFE33:
 993 010e 00BF     		.section	.text.TIM_OC4Init,"ax",%progbits
 994              		.align	2
 995              		.global	TIM_OC4Init
 996              		.thumb
 997              		.thumb_func
 999              	TIM_OC4Init:
 1000              	.LFB34:
 514:../Libraries/StdPeripheralDriver/src/stm32f10x_tim.c **** 
 515:../Libraries/StdPeripheralDriver/src/stm32f10x_tim.c **** /**
 516:../Libraries/StdPeripheralDriver/src/stm32f10x_tim.c ****   * @brief  Initializes the TIMx Channel4 according to the specified
 517:../Libraries/StdPeripheralDriver/src/stm32f10x_tim.c ****   *         parameters in the TIM_OCInitStruct.
 518:../Libraries/StdPeripheralDriver/src/stm32f10x_tim.c ****   * @param  TIMx: where x can be  1, 2, 3, 4, 5 or 8 to select the TIM peripheral.
 519:../Libraries/StdPeripheralDriver/src/stm32f10x_tim.c ****   * @param  TIM_OCInitStruct: pointer to a TIM_OCInitTypeDef structure
 520:../Libraries/StdPeripheralDriver/src/stm32f10x_tim.c ****   *         that contains the configuration information for the specified TIM peripheral.
 521:../Libraries/StdPeripheralDriver/src/stm32f10x_tim.c ****   * @retval None
 522:../Libraries/StdPeripheralDriver/src/stm32f10x_tim.c ****   */
 523:../Libraries/StdPeripheralDriver/src/stm32f10x_tim.c **** void TIM_OC4Init(TIM_TypeDef* TIMx, TIM_OCInitTypeDef* TIM_OCInitStruct)
 524:../Libraries/StdPeripheralDriver/src/stm32f10x_tim.c **** {
 1001              		.loc 1 524 0
 1002              		.cfi_startproc
 1003              		@ args = 0, pretend = 0, frame = 16
 1004              		@ frame_needed = 1, uses_anonymous_args = 0
 1005              		@ link register save eliminated.
 1006 0000 80B4     		push	{r7}
 1007              		.cfi_def_cfa_offset 4
 1008              		.cfi_offset 7, -4
 1009 0002 85B0     		sub	sp, sp, #20
 1010              		.cfi_def_cfa_offset 24
 1011 0004 00AF     		add	r7, sp, #0
 1012              		.cfi_def_cfa_register 7
 1013 0006 7860     		str	r0, [r7, #4]
 1014 0008 3960     		str	r1, [r7]
 525:../Libraries/StdPeripheralDriver/src/stm32f10x_tim.c ****   uint16_t tmpccmrx = 0, tmpccer = 0, tmpcr2 = 0;
 1015              		.loc 1 525 0
 1016 000a 0023     		movs	r3, #0
 1017 000c BB81     		strh	r3, [r7, #12]	@ movhi
 1018 000e 0023     		movs	r3, #0
 1019 0010 7B81     		strh	r3, [r7, #10]	@ movhi
 1020 0012 0023     		movs	r3, #0
 1021 0014 FB81     		strh	r3, [r7, #14]	@ movhi
 526:../Libraries/StdPeripheralDriver/src/stm32f10x_tim.c ****    
 527:../Libraries/StdPeripheralDriver/src/stm32f10x_tim.c ****   /* Check the parameters */
 528:../Libraries/StdPeripheralDriver/src/stm32f10x_tim.c ****   assert_param(IS_TIM_LIST3_PERIPH(TIMx)); 
 529:../Libraries/StdPeripheralDriver/src/stm32f10x_tim.c ****   assert_param(IS_TIM_OC_MODE(TIM_OCInitStruct->TIM_OCMode));
 530:../Libraries/StdPeripheralDriver/src/stm32f10x_tim.c ****   assert_param(IS_TIM_OUTPUT_STATE(TIM_OCInitStruct->TIM_OutputState));
 531:../Libraries/StdPeripheralDriver/src/stm32f10x_tim.c ****   assert_param(IS_TIM_OC_POLARITY(TIM_OCInitStruct->TIM_OCPolarity));   
 532:../Libraries/StdPeripheralDriver/src/stm32f10x_tim.c ****   /* Disable the Channel 2: Reset the CC4E Bit */
 533:../Libraries/StdPeripheralDriver/src/stm32f10x_tim.c ****   TIMx->CCER &= (uint16_t)(~((uint16_t)TIM_CCER_CC4E));
 1022              		.loc 1 533 0
 1023 0016 7B68     		ldr	r3, [r7, #4]
 1024 0018 1B8C     		ldrh	r3, [r3, #32]	@ movhi
 1025 001a 9BB2     		uxth	r3, r3
 1026 001c 23F48053 		bic	r3, r3, #4096
 1027 0020 9AB2     		uxth	r2, r3
 1028 0022 7B68     		ldr	r3, [r7, #4]
 1029 0024 1A84     		strh	r2, [r3, #32]	@ movhi
 534:../Libraries/StdPeripheralDriver/src/stm32f10x_tim.c ****   
 535:../Libraries/StdPeripheralDriver/src/stm32f10x_tim.c ****   /* Get the TIMx CCER register value */
 536:../Libraries/StdPeripheralDriver/src/stm32f10x_tim.c ****   tmpccer = TIMx->CCER;
 1030              		.loc 1 536 0
 1031 0026 7B68     		ldr	r3, [r7, #4]
 1032 0028 1B8C     		ldrh	r3, [r3, #32]	@ movhi
 1033 002a 7B81     		strh	r3, [r7, #10]	@ movhi
 537:../Libraries/StdPeripheralDriver/src/stm32f10x_tim.c ****   /* Get the TIMx CR2 register value */
 538:../Libraries/StdPeripheralDriver/src/stm32f10x_tim.c ****   tmpcr2 =  TIMx->CR2;
 1034              		.loc 1 538 0
 1035 002c 7B68     		ldr	r3, [r7, #4]
 1036 002e 9B88     		ldrh	r3, [r3, #4]	@ movhi
 1037 0030 FB81     		strh	r3, [r7, #14]	@ movhi
 539:../Libraries/StdPeripheralDriver/src/stm32f10x_tim.c ****   
 540:../Libraries/StdPeripheralDriver/src/stm32f10x_tim.c ****   /* Get the TIMx CCMR2 register value */
 541:../Libraries/StdPeripheralDriver/src/stm32f10x_tim.c ****   tmpccmrx = TIMx->CCMR2;
 1038              		.loc 1 541 0
 1039 0032 7B68     		ldr	r3, [r7, #4]
 1040 0034 9B8B     		ldrh	r3, [r3, #28]	@ movhi
 1041 0036 BB81     		strh	r3, [r7, #12]	@ movhi
 542:../Libraries/StdPeripheralDriver/src/stm32f10x_tim.c ****     
 543:../Libraries/StdPeripheralDriver/src/stm32f10x_tim.c ****   /* Reset the Output Compare mode and Capture/Compare selection Bits */
 544:../Libraries/StdPeripheralDriver/src/stm32f10x_tim.c ****   tmpccmrx &= (uint16_t)(~((uint16_t)TIM_CCMR2_OC4M));
 1042              		.loc 1 544 0
 1043 0038 BB89     		ldrh	r3, [r7, #12]	@ movhi
 1044 003a 23F4E043 		bic	r3, r3, #28672
 1045 003e BB81     		strh	r3, [r7, #12]	@ movhi
 545:../Libraries/StdPeripheralDriver/src/stm32f10x_tim.c ****   tmpccmrx &= (uint16_t)(~((uint16_t)TIM_CCMR2_CC4S));
 1046              		.loc 1 545 0
 1047 0040 BB89     		ldrh	r3, [r7, #12]	@ movhi
 1048 0042 23F44073 		bic	r3, r3, #768
 1049 0046 BB81     		strh	r3, [r7, #12]	@ movhi
 546:../Libraries/StdPeripheralDriver/src/stm32f10x_tim.c ****   
 547:../Libraries/StdPeripheralDriver/src/stm32f10x_tim.c ****   /* Select the Output Compare Mode */
 548:../Libraries/StdPeripheralDriver/src/stm32f10x_tim.c ****   tmpccmrx |= (uint16_t)(TIM_OCInitStruct->TIM_OCMode << 8);
 1050              		.loc 1 548 0
 1051 0048 3B68     		ldr	r3, [r7]
 1052 004a 1B88     		ldrh	r3, [r3]
 1053 004c 1B02     		lsls	r3, r3, #8
 1054 004e 9AB2     		uxth	r2, r3
 1055 0050 BB89     		ldrh	r3, [r7, #12]	@ movhi
 1056 0052 1343     		orrs	r3, r3, r2
 1057 0054 BB81     		strh	r3, [r7, #12]	@ movhi
 549:../Libraries/StdPeripheralDriver/src/stm32f10x_tim.c ****   
 550:../Libraries/StdPeripheralDriver/src/stm32f10x_tim.c ****   /* Reset the Output Polarity level */
 551:../Libraries/StdPeripheralDriver/src/stm32f10x_tim.c ****   tmpccer &= (uint16_t)(~((uint16_t)TIM_CCER_CC4P));
 1058              		.loc 1 551 0
 1059 0056 7B89     		ldrh	r3, [r7, #10]	@ movhi
 1060 0058 23F40053 		bic	r3, r3, #8192
 1061 005c 7B81     		strh	r3, [r7, #10]	@ movhi
 552:../Libraries/StdPeripheralDriver/src/stm32f10x_tim.c ****   /* Set the Output Compare Polarity */
 553:../Libraries/StdPeripheralDriver/src/stm32f10x_tim.c ****   tmpccer |= (uint16_t)(TIM_OCInitStruct->TIM_OCPolarity << 12);
 1062              		.loc 1 553 0
 1063 005e 3B68     		ldr	r3, [r7]
 1064 0060 1B89     		ldrh	r3, [r3, #8]
 1065 0062 1B03     		lsls	r3, r3, #12
 1066 0064 9AB2     		uxth	r2, r3
 1067 0066 7B89     		ldrh	r3, [r7, #10]	@ movhi
 1068 0068 1343     		orrs	r3, r3, r2
 1069 006a 7B81     		strh	r3, [r7, #10]	@ movhi
 554:../Libraries/StdPeripheralDriver/src/stm32f10x_tim.c ****   
 555:../Libraries/StdPeripheralDriver/src/stm32f10x_tim.c ****   /* Set the Output State */
 556:../Libraries/StdPeripheralDriver/src/stm32f10x_tim.c ****   tmpccer |= (uint16_t)(TIM_OCInitStruct->TIM_OutputState << 12);
 1070              		.loc 1 556 0
 1071 006c 3B68     		ldr	r3, [r7]
 1072 006e 5B88     		ldrh	r3, [r3, #2]
 1073 0070 1B03     		lsls	r3, r3, #12
 1074 0072 9AB2     		uxth	r2, r3
 1075 0074 7B89     		ldrh	r3, [r7, #10]	@ movhi
 1076 0076 1343     		orrs	r3, r3, r2
 1077 0078 7B81     		strh	r3, [r7, #10]	@ movhi
 557:../Libraries/StdPeripheralDriver/src/stm32f10x_tim.c ****     
 558:../Libraries/StdPeripheralDriver/src/stm32f10x_tim.c ****   if((TIMx == TIM1) || (TIMx == TIM8))
 1078              		.loc 1 558 0
 1079 007a 7A68     		ldr	r2, [r7, #4]
 1080 007c 4FF43053 		mov	r3, #11264
 1081 0080 C4F20103 		movt	r3, 16385
 1082 0084 9A42     		cmp	r2, r3
 1083 0086 06D0     		beq	.L35
 1084              		.loc 1 558 0 is_stmt 0 discriminator 1
 1085 0088 7A68     		ldr	r2, [r7, #4]
 1086 008a 4FF45053 		mov	r3, #13312
 1087 008e C4F20103 		movt	r3, 16385
 1088 0092 9A42     		cmp	r2, r3
 1089 0094 0AD1     		bne	.L36
 1090              	.L35:
 559:../Libraries/StdPeripheralDriver/src/stm32f10x_tim.c ****   {
 560:../Libraries/StdPeripheralDriver/src/stm32f10x_tim.c ****     assert_param(IS_TIM_OCIDLE_STATE(TIM_OCInitStruct->TIM_OCIdleState));
 561:../Libraries/StdPeripheralDriver/src/stm32f10x_tim.c ****     /* Reset the Output Compare IDLE State */
 562:../Libraries/StdPeripheralDriver/src/stm32f10x_tim.c ****     tmpcr2 &= (uint16_t)(~((uint16_t)TIM_CR2_OIS4));
 1091              		.loc 1 562 0 is_stmt 1
 1092 0096 FB89     		ldrh	r3, [r7, #14]	@ movhi
 1093 0098 23F48043 		bic	r3, r3, #16384
 1094 009c FB81     		strh	r3, [r7, #14]	@ movhi
 563:../Libraries/StdPeripheralDriver/src/stm32f10x_tim.c ****     /* Set the Output Idle state */
 564:../Libraries/StdPeripheralDriver/src/stm32f10x_tim.c ****     tmpcr2 |= (uint16_t)(TIM_OCInitStruct->TIM_OCIdleState << 6);
 1095              		.loc 1 564 0
 1096 009e 3B68     		ldr	r3, [r7]
 1097 00a0 9B89     		ldrh	r3, [r3, #12]
 1098 00a2 9B01     		lsls	r3, r3, #6
 1099 00a4 9AB2     		uxth	r2, r3
 1100 00a6 FB89     		ldrh	r3, [r7, #14]	@ movhi
 1101 00a8 1343     		orrs	r3, r3, r2
 1102 00aa FB81     		strh	r3, [r7, #14]	@ movhi
 1103              	.L36:
 565:../Libraries/StdPeripheralDriver/src/stm32f10x_tim.c ****   }
 566:../Libraries/StdPeripheralDriver/src/stm32f10x_tim.c ****   /* Write to TIMx CR2 */
 567:../Libraries/StdPeripheralDriver/src/stm32f10x_tim.c ****   TIMx->CR2 = tmpcr2;
 1104              		.loc 1 567 0
 1105 00ac 7B68     		ldr	r3, [r7, #4]
 1106 00ae FA89     		ldrh	r2, [r7, #14]	@ movhi
 1107 00b0 9A80     		strh	r2, [r3, #4]	@ movhi
 568:../Libraries/StdPeripheralDriver/src/stm32f10x_tim.c ****   
 569:../Libraries/StdPeripheralDriver/src/stm32f10x_tim.c ****   /* Write to TIMx CCMR2 */  
 570:../Libraries/StdPeripheralDriver/src/stm32f10x_tim.c ****   TIMx->CCMR2 = tmpccmrx;
 1108              		.loc 1 570 0
 1109 00b2 7B68     		ldr	r3, [r7, #4]
 1110 00b4 BA89     		ldrh	r2, [r7, #12]	@ movhi
 1111 00b6 9A83     		strh	r2, [r3, #28]	@ movhi
 571:../Libraries/StdPeripheralDriver/src/stm32f10x_tim.c **** 
 572:../Libraries/StdPeripheralDriver/src/stm32f10x_tim.c ****   /* Set the Capture Compare Register value */
 573:../Libraries/StdPeripheralDriver/src/stm32f10x_tim.c ****   TIMx->CCR4 = TIM_OCInitStruct->TIM_Pulse;
 1112              		.loc 1 573 0
 1113 00b8 3B68     		ldr	r3, [r7]
 1114 00ba DA88     		ldrh	r2, [r3, #6]
 1115 00bc 7B68     		ldr	r3, [r7, #4]
 1116 00be A3F84020 		strh	r2, [r3, #64]	@ movhi
 574:../Libraries/StdPeripheralDriver/src/stm32f10x_tim.c ****   
 575:../Libraries/StdPeripheralDriver/src/stm32f10x_tim.c ****   /* Write to TIMx CCER */
 576:../Libraries/StdPeripheralDriver/src/stm32f10x_tim.c ****   TIMx->CCER = tmpccer;
 1117              		.loc 1 576 0
 1118 00c2 7B68     		ldr	r3, [r7, #4]
 1119 00c4 7A89     		ldrh	r2, [r7, #10]	@ movhi
 1120 00c6 1A84     		strh	r2, [r3, #32]	@ movhi
 577:../Libraries/StdPeripheralDriver/src/stm32f10x_tim.c **** }
 1121              		.loc 1 577 0
 1122 00c8 1437     		adds	r7, r7, #20
 1123 00ca BD46     		mov	sp, r7
 1124              		@ sp needed
 1125 00cc 5DF8047B 		ldr	r7, [sp], #4
 1126 00d0 7047     		bx	lr
 1127              		.cfi_endproc
 1128              	.LFE34:
 1130 00d2 00BF     		.section	.text.TIM_ICInit,"ax",%progbits
 1131              		.align	2
 1132              		.global	TIM_ICInit
 1133              		.thumb
 1134              		.thumb_func
 1136              	TIM_ICInit:
 1137              	.LFB35:
 578:../Libraries/StdPeripheralDriver/src/stm32f10x_tim.c **** 
 579:../Libraries/StdPeripheralDriver/src/stm32f10x_tim.c **** /**
 580:../Libraries/StdPeripheralDriver/src/stm32f10x_tim.c ****   * @brief  Initializes the TIM peripheral according to the specified
 581:../Libraries/StdPeripheralDriver/src/stm32f10x_tim.c ****   *         parameters in the TIM_ICInitStruct.
 582:../Libraries/StdPeripheralDriver/src/stm32f10x_tim.c ****   * @param  TIMx: where x can be  1 to 17 except 6 and 7 to select the TIM peripheral.
 583:../Libraries/StdPeripheralDriver/src/stm32f10x_tim.c ****   * @param  TIM_ICInitStruct: pointer to a TIM_ICInitTypeDef structure
 584:../Libraries/StdPeripheralDriver/src/stm32f10x_tim.c ****   *         that contains the configuration information for the specified TIM peripheral.
 585:../Libraries/StdPeripheralDriver/src/stm32f10x_tim.c ****   * @retval None
 586:../Libraries/StdPeripheralDriver/src/stm32f10x_tim.c ****   */
 587:../Libraries/StdPeripheralDriver/src/stm32f10x_tim.c **** void TIM_ICInit(TIM_TypeDef* TIMx, TIM_ICInitTypeDef* TIM_ICInitStruct)
 588:../Libraries/StdPeripheralDriver/src/stm32f10x_tim.c **** {
 1138              		.loc 1 588 0
 1139              		.cfi_startproc
 1140              		@ args = 0, pretend = 0, frame = 8
 1141              		@ frame_needed = 1, uses_anonymous_args = 0
 1142 0000 80B5     		push	{r7, lr}
 1143              		.cfi_def_cfa_offset 8
 1144              		.cfi_offset 7, -8
 1145              		.cfi_offset 14, -4
 1146 0002 82B0     		sub	sp, sp, #8
 1147              		.cfi_def_cfa_offset 16
 1148 0004 00AF     		add	r7, sp, #0
 1149              		.cfi_def_cfa_register 7
 1150 0006 7860     		str	r0, [r7, #4]
 1151 0008 3960     		str	r1, [r7]
 589:../Libraries/StdPeripheralDriver/src/stm32f10x_tim.c ****   /* Check the parameters */
 590:../Libraries/StdPeripheralDriver/src/stm32f10x_tim.c ****   assert_param(IS_TIM_CHANNEL(TIM_ICInitStruct->TIM_Channel));  
 591:../Libraries/StdPeripheralDriver/src/stm32f10x_tim.c ****   assert_param(IS_TIM_IC_SELECTION(TIM_ICInitStruct->TIM_ICSelection));
 592:../Libraries/StdPeripheralDriver/src/stm32f10x_tim.c ****   assert_param(IS_TIM_IC_PRESCALER(TIM_ICInitStruct->TIM_ICPrescaler));
 593:../Libraries/StdPeripheralDriver/src/stm32f10x_tim.c ****   assert_param(IS_TIM_IC_FILTER(TIM_ICInitStruct->TIM_ICFilter));
 594:../Libraries/StdPeripheralDriver/src/stm32f10x_tim.c ****   
 595:../Libraries/StdPeripheralDriver/src/stm32f10x_tim.c ****   if((TIMx == TIM1) || (TIMx == TIM8) || (TIMx == TIM2) || (TIMx == TIM3) ||
 596:../Libraries/StdPeripheralDriver/src/stm32f10x_tim.c ****      (TIMx == TIM4) ||(TIMx == TIM5))
 597:../Libraries/StdPeripheralDriver/src/stm32f10x_tim.c ****   {
 598:../Libraries/StdPeripheralDriver/src/stm32f10x_tim.c ****     assert_param(IS_TIM_IC_POLARITY(TIM_ICInitStruct->TIM_ICPolarity));
 599:../Libraries/StdPeripheralDriver/src/stm32f10x_tim.c ****   }
 600:../Libraries/StdPeripheralDriver/src/stm32f10x_tim.c ****   else
 601:../Libraries/StdPeripheralDriver/src/stm32f10x_tim.c ****   {
 602:../Libraries/StdPeripheralDriver/src/stm32f10x_tim.c ****     assert_param(IS_TIM_IC_POLARITY_LITE(TIM_ICInitStruct->TIM_ICPolarity));
 603:../Libraries/StdPeripheralDriver/src/stm32f10x_tim.c ****   }
 604:../Libraries/StdPeripheralDriver/src/stm32f10x_tim.c ****   if (TIM_ICInitStruct->TIM_Channel == TIM_Channel_1)
 1152              		.loc 1 604 0
 1153 000a 3B68     		ldr	r3, [r7]
 1154 000c 1B88     		ldrh	r3, [r3]
 1155 000e 002B     		cmp	r3, #0
 1156 0010 0FD1     		bne	.L38
 605:../Libraries/StdPeripheralDriver/src/stm32f10x_tim.c ****   {
 606:../Libraries/StdPeripheralDriver/src/stm32f10x_tim.c ****     assert_param(IS_TIM_LIST8_PERIPH(TIMx));
 607:../Libraries/StdPeripheralDriver/src/stm32f10x_tim.c ****     /* TI1 Configuration */
 608:../Libraries/StdPeripheralDriver/src/stm32f10x_tim.c ****     TI1_Config(TIMx, TIM_ICInitStruct->TIM_ICPolarity,
 1157              		.loc 1 608 0
 1158 0012 3B68     		ldr	r3, [r7]
 1159 0014 5988     		ldrh	r1, [r3, #2]
 1160 0016 3B68     		ldr	r3, [r7]
 1161 0018 9A88     		ldrh	r2, [r3, #4]
 1162 001a 3B68     		ldr	r3, [r7]
 1163 001c 1B89     		ldrh	r3, [r3, #8]
 1164 001e 7868     		ldr	r0, [r7, #4]
 1165 0020 FFF7FEFF 		bl	TI1_Config
 609:../Libraries/StdPeripheralDriver/src/stm32f10x_tim.c ****                TIM_ICInitStruct->TIM_ICSelection,
 610:../Libraries/StdPeripheralDriver/src/stm32f10x_tim.c ****                TIM_ICInitStruct->TIM_ICFilter);
 611:../Libraries/StdPeripheralDriver/src/stm32f10x_tim.c ****     /* Set the Input Capture Prescaler value */
 612:../Libraries/StdPeripheralDriver/src/stm32f10x_tim.c ****     TIM_SetIC1Prescaler(TIMx, TIM_ICInitStruct->TIM_ICPrescaler);
 1166              		.loc 1 612 0
 1167 0024 3B68     		ldr	r3, [r7]
 1168 0026 DB88     		ldrh	r3, [r3, #6]
 1169 0028 7868     		ldr	r0, [r7, #4]
 1170 002a 1946     		mov	r1, r3
 1171 002c FFF7FEFF 		bl	TIM_SetIC1Prescaler
 1172 0030 36E0     		b	.L37
 1173              	.L38:
 613:../Libraries/StdPeripheralDriver/src/stm32f10x_tim.c ****   }
 614:../Libraries/StdPeripheralDriver/src/stm32f10x_tim.c ****   else if (TIM_ICInitStruct->TIM_Channel == TIM_Channel_2)
 1174              		.loc 1 614 0
 1175 0032 3B68     		ldr	r3, [r7]
 1176 0034 1B88     		ldrh	r3, [r3]
 1177 0036 042B     		cmp	r3, #4
 1178 0038 0FD1     		bne	.L40
 615:../Libraries/StdPeripheralDriver/src/stm32f10x_tim.c ****   {
 616:../Libraries/StdPeripheralDriver/src/stm32f10x_tim.c ****     assert_param(IS_TIM_LIST6_PERIPH(TIMx));
 617:../Libraries/StdPeripheralDriver/src/stm32f10x_tim.c ****     /* TI2 Configuration */
 618:../Libraries/StdPeripheralDriver/src/stm32f10x_tim.c ****     TI2_Config(TIMx, TIM_ICInitStruct->TIM_ICPolarity,
 1179              		.loc 1 618 0
 1180 003a 3B68     		ldr	r3, [r7]
 1181 003c 5988     		ldrh	r1, [r3, #2]
 1182 003e 3B68     		ldr	r3, [r7]
 1183 0040 9A88     		ldrh	r2, [r3, #4]
 1184 0042 3B68     		ldr	r3, [r7]
 1185 0044 1B89     		ldrh	r3, [r3, #8]
 1186 0046 7868     		ldr	r0, [r7, #4]
 1187 0048 FFF7FEFF 		bl	TI2_Config
 619:../Libraries/StdPeripheralDriver/src/stm32f10x_tim.c ****                TIM_ICInitStruct->TIM_ICSelection,
 620:../Libraries/StdPeripheralDriver/src/stm32f10x_tim.c ****                TIM_ICInitStruct->TIM_ICFilter);
 621:../Libraries/StdPeripheralDriver/src/stm32f10x_tim.c ****     /* Set the Input Capture Prescaler value */
 622:../Libraries/StdPeripheralDriver/src/stm32f10x_tim.c ****     TIM_SetIC2Prescaler(TIMx, TIM_ICInitStruct->TIM_ICPrescaler);
 1188              		.loc 1 622 0
 1189 004c 3B68     		ldr	r3, [r7]
 1190 004e DB88     		ldrh	r3, [r3, #6]
 1191 0050 7868     		ldr	r0, [r7, #4]
 1192 0052 1946     		mov	r1, r3
 1193 0054 FFF7FEFF 		bl	TIM_SetIC2Prescaler
 1194 0058 22E0     		b	.L37
 1195              	.L40:
 623:../Libraries/StdPeripheralDriver/src/stm32f10x_tim.c ****   }
 624:../Libraries/StdPeripheralDriver/src/stm32f10x_tim.c ****   else if (TIM_ICInitStruct->TIM_Channel == TIM_Channel_3)
 1196              		.loc 1 624 0
 1197 005a 3B68     		ldr	r3, [r7]
 1198 005c 1B88     		ldrh	r3, [r3]
 1199 005e 082B     		cmp	r3, #8
 1200 0060 0FD1     		bne	.L41
 625:../Libraries/StdPeripheralDriver/src/stm32f10x_tim.c ****   {
 626:../Libraries/StdPeripheralDriver/src/stm32f10x_tim.c ****     assert_param(IS_TIM_LIST3_PERIPH(TIMx));
 627:../Libraries/StdPeripheralDriver/src/stm32f10x_tim.c ****     /* TI3 Configuration */
 628:../Libraries/StdPeripheralDriver/src/stm32f10x_tim.c ****     TI3_Config(TIMx,  TIM_ICInitStruct->TIM_ICPolarity,
 1201              		.loc 1 628 0
 1202 0062 3B68     		ldr	r3, [r7]
 1203 0064 5988     		ldrh	r1, [r3, #2]
 1204 0066 3B68     		ldr	r3, [r7]
 1205 0068 9A88     		ldrh	r2, [r3, #4]
 1206 006a 3B68     		ldr	r3, [r7]
 1207 006c 1B89     		ldrh	r3, [r3, #8]
 1208 006e 7868     		ldr	r0, [r7, #4]
 1209 0070 FFF7FEFF 		bl	TI3_Config
 629:../Libraries/StdPeripheralDriver/src/stm32f10x_tim.c ****                TIM_ICInitStruct->TIM_ICSelection,
 630:../Libraries/StdPeripheralDriver/src/stm32f10x_tim.c ****                TIM_ICInitStruct->TIM_ICFilter);
 631:../Libraries/StdPeripheralDriver/src/stm32f10x_tim.c ****     /* Set the Input Capture Prescaler value */
 632:../Libraries/StdPeripheralDriver/src/stm32f10x_tim.c ****     TIM_SetIC3Prescaler(TIMx, TIM_ICInitStruct->TIM_ICPrescaler);
 1210              		.loc 1 632 0
 1211 0074 3B68     		ldr	r3, [r7]
 1212 0076 DB88     		ldrh	r3, [r3, #6]
 1213 0078 7868     		ldr	r0, [r7, #4]
 1214 007a 1946     		mov	r1, r3
 1215 007c FFF7FEFF 		bl	TIM_SetIC3Prescaler
 1216 0080 0EE0     		b	.L37
 1217              	.L41:
 633:../Libraries/StdPeripheralDriver/src/stm32f10x_tim.c ****   }
 634:../Libraries/StdPeripheralDriver/src/stm32f10x_tim.c ****   else
 635:../Libraries/StdPeripheralDriver/src/stm32f10x_tim.c ****   {
 636:../Libraries/StdPeripheralDriver/src/stm32f10x_tim.c ****     assert_param(IS_TIM_LIST3_PERIPH(TIMx));
 637:../Libraries/StdPeripheralDriver/src/stm32f10x_tim.c ****     /* TI4 Configuration */
 638:../Libraries/StdPeripheralDriver/src/stm32f10x_tim.c ****     TI4_Config(TIMx, TIM_ICInitStruct->TIM_ICPolarity,
 1218              		.loc 1 638 0
 1219 0082 3B68     		ldr	r3, [r7]
 1220 0084 5988     		ldrh	r1, [r3, #2]
 1221 0086 3B68     		ldr	r3, [r7]
 1222 0088 9A88     		ldrh	r2, [r3, #4]
 1223 008a 3B68     		ldr	r3, [r7]
 1224 008c 1B89     		ldrh	r3, [r3, #8]
 1225 008e 7868     		ldr	r0, [r7, #4]
 1226 0090 FFF7FEFF 		bl	TI4_Config
 639:../Libraries/StdPeripheralDriver/src/stm32f10x_tim.c ****                TIM_ICInitStruct->TIM_ICSelection,
 640:../Libraries/StdPeripheralDriver/src/stm32f10x_tim.c ****                TIM_ICInitStruct->TIM_ICFilter);
 641:../Libraries/StdPeripheralDriver/src/stm32f10x_tim.c ****     /* Set the Input Capture Prescaler value */
 642:../Libraries/StdPeripheralDriver/src/stm32f10x_tim.c ****     TIM_SetIC4Prescaler(TIMx, TIM_ICInitStruct->TIM_ICPrescaler);
 1227              		.loc 1 642 0
 1228 0094 3B68     		ldr	r3, [r7]
 1229 0096 DB88     		ldrh	r3, [r3, #6]
 1230 0098 7868     		ldr	r0, [r7, #4]
 1231 009a 1946     		mov	r1, r3
 1232 009c FFF7FEFF 		bl	TIM_SetIC4Prescaler
 1233              	.L37:
 643:../Libraries/StdPeripheralDriver/src/stm32f10x_tim.c ****   }
 644:../Libraries/StdPeripheralDriver/src/stm32f10x_tim.c **** }
 1234              		.loc 1 644 0
 1235 00a0 0837     		adds	r7, r7, #8
 1236 00a2 BD46     		mov	sp, r7
 1237              		@ sp needed
 1238 00a4 80BD     		pop	{r7, pc}
 1239              		.cfi_endproc
 1240              	.LFE35:
 1242 00a6 00BF     		.section	.text.TIM_PWMIConfig,"ax",%progbits
 1243              		.align	2
 1244              		.global	TIM_PWMIConfig
 1245              		.thumb
 1246              		.thumb_func
 1248              	TIM_PWMIConfig:
 1249              	.LFB36:
 645:../Libraries/StdPeripheralDriver/src/stm32f10x_tim.c **** 
 646:../Libraries/StdPeripheralDriver/src/stm32f10x_tim.c **** /**
 647:../Libraries/StdPeripheralDriver/src/stm32f10x_tim.c ****   * @brief  Configures the TIM peripheral according to the specified
 648:../Libraries/StdPeripheralDriver/src/stm32f10x_tim.c ****   *         parameters in the TIM_ICInitStruct to measure an external PWM signal.
 649:../Libraries/StdPeripheralDriver/src/stm32f10x_tim.c ****   * @param  TIMx: where x can be  1, 2, 3, 4, 5, 8, 9, 12 or 15 to select the TIM peripheral.
 650:../Libraries/StdPeripheralDriver/src/stm32f10x_tim.c ****   * @param  TIM_ICInitStruct: pointer to a TIM_ICInitTypeDef structure
 651:../Libraries/StdPeripheralDriver/src/stm32f10x_tim.c ****   *         that contains the configuration information for the specified TIM peripheral.
 652:../Libraries/StdPeripheralDriver/src/stm32f10x_tim.c ****   * @retval None
 653:../Libraries/StdPeripheralDriver/src/stm32f10x_tim.c ****   */
 654:../Libraries/StdPeripheralDriver/src/stm32f10x_tim.c **** void TIM_PWMIConfig(TIM_TypeDef* TIMx, TIM_ICInitTypeDef* TIM_ICInitStruct)
 655:../Libraries/StdPeripheralDriver/src/stm32f10x_tim.c **** {
 1250              		.loc 1 655 0
 1251              		.cfi_startproc
 1252              		@ args = 0, pretend = 0, frame = 16
 1253              		@ frame_needed = 1, uses_anonymous_args = 0
 1254 0000 80B5     		push	{r7, lr}
 1255              		.cfi_def_cfa_offset 8
 1256              		.cfi_offset 7, -8
 1257              		.cfi_offset 14, -4
 1258 0002 84B0     		sub	sp, sp, #16
 1259              		.cfi_def_cfa_offset 24
 1260 0004 00AF     		add	r7, sp, #0
 1261              		.cfi_def_cfa_register 7
 1262 0006 7860     		str	r0, [r7, #4]
 1263 0008 3960     		str	r1, [r7]
 656:../Libraries/StdPeripheralDriver/src/stm32f10x_tim.c ****   uint16_t icoppositepolarity = TIM_ICPolarity_Rising;
 1264              		.loc 1 656 0
 1265 000a 0023     		movs	r3, #0
 1266 000c FB81     		strh	r3, [r7, #14]	@ movhi
 657:../Libraries/StdPeripheralDriver/src/stm32f10x_tim.c ****   uint16_t icoppositeselection = TIM_ICSelection_DirectTI;
 1267              		.loc 1 657 0
 1268 000e 0123     		movs	r3, #1
 1269 0010 BB81     		strh	r3, [r7, #12]	@ movhi
 658:../Libraries/StdPeripheralDriver/src/stm32f10x_tim.c ****   /* Check the parameters */
 659:../Libraries/StdPeripheralDriver/src/stm32f10x_tim.c ****   assert_param(IS_TIM_LIST6_PERIPH(TIMx));
 660:../Libraries/StdPeripheralDriver/src/stm32f10x_tim.c ****   /* Select the Opposite Input Polarity */
 661:../Libraries/StdPeripheralDriver/src/stm32f10x_tim.c ****   if (TIM_ICInitStruct->TIM_ICPolarity == TIM_ICPolarity_Rising)
 1270              		.loc 1 661 0
 1271 0012 3B68     		ldr	r3, [r7]
 1272 0014 5B88     		ldrh	r3, [r3, #2]
 1273 0016 002B     		cmp	r3, #0
 1274 0018 02D1     		bne	.L43
 662:../Libraries/StdPeripheralDriver/src/stm32f10x_tim.c ****   {
 663:../Libraries/StdPeripheralDriver/src/stm32f10x_tim.c ****     icoppositepolarity = TIM_ICPolarity_Falling;
 1275              		.loc 1 663 0
 1276 001a 0223     		movs	r3, #2
 1277 001c FB81     		strh	r3, [r7, #14]	@ movhi
 1278 001e 01E0     		b	.L44
 1279              	.L43:
 664:../Libraries/StdPeripheralDriver/src/stm32f10x_tim.c ****   }
 665:../Libraries/StdPeripheralDriver/src/stm32f10x_tim.c ****   else
 666:../Libraries/StdPeripheralDriver/src/stm32f10x_tim.c ****   {
 667:../Libraries/StdPeripheralDriver/src/stm32f10x_tim.c ****     icoppositepolarity = TIM_ICPolarity_Rising;
 1280              		.loc 1 667 0
 1281 0020 0023     		movs	r3, #0
 1282 0022 FB81     		strh	r3, [r7, #14]	@ movhi
 1283              	.L44:
 668:../Libraries/StdPeripheralDriver/src/stm32f10x_tim.c ****   }
 669:../Libraries/StdPeripheralDriver/src/stm32f10x_tim.c ****   /* Select the Opposite Input */
 670:../Libraries/StdPeripheralDriver/src/stm32f10x_tim.c ****   if (TIM_ICInitStruct->TIM_ICSelection == TIM_ICSelection_DirectTI)
 1284              		.loc 1 670 0
 1285 0024 3B68     		ldr	r3, [r7]
 1286 0026 9B88     		ldrh	r3, [r3, #4]
 1287 0028 012B     		cmp	r3, #1
 1288 002a 02D1     		bne	.L45
 671:../Libraries/StdPeripheralDriver/src/stm32f10x_tim.c ****   {
 672:../Libraries/StdPeripheralDriver/src/stm32f10x_tim.c ****     icoppositeselection = TIM_ICSelection_IndirectTI;
 1289              		.loc 1 672 0
 1290 002c 0223     		movs	r3, #2
 1291 002e BB81     		strh	r3, [r7, #12]	@ movhi
 1292 0030 01E0     		b	.L46
 1293              	.L45:
 673:../Libraries/StdPeripheralDriver/src/stm32f10x_tim.c ****   }
 674:../Libraries/StdPeripheralDriver/src/stm32f10x_tim.c ****   else
 675:../Libraries/StdPeripheralDriver/src/stm32f10x_tim.c ****   {
 676:../Libraries/StdPeripheralDriver/src/stm32f10x_tim.c ****     icoppositeselection = TIM_ICSelection_DirectTI;
 1294              		.loc 1 676 0
 1295 0032 0123     		movs	r3, #1
 1296 0034 BB81     		strh	r3, [r7, #12]	@ movhi
 1297              	.L46:
 677:../Libraries/StdPeripheralDriver/src/stm32f10x_tim.c ****   }
 678:../Libraries/StdPeripheralDriver/src/stm32f10x_tim.c ****   if (TIM_ICInitStruct->TIM_Channel == TIM_Channel_1)
 1298              		.loc 1 678 0
 1299 0036 3B68     		ldr	r3, [r7]
 1300 0038 1B88     		ldrh	r3, [r3]
 1301 003a 002B     		cmp	r3, #0
 1302 003c 1CD1     		bne	.L47
 679:../Libraries/StdPeripheralDriver/src/stm32f10x_tim.c ****   {
 680:../Libraries/StdPeripheralDriver/src/stm32f10x_tim.c ****     /* TI1 Configuration */
 681:../Libraries/StdPeripheralDriver/src/stm32f10x_tim.c ****     TI1_Config(TIMx, TIM_ICInitStruct->TIM_ICPolarity, TIM_ICInitStruct->TIM_ICSelection,
 1303              		.loc 1 681 0
 1304 003e 3B68     		ldr	r3, [r7]
 1305 0040 5988     		ldrh	r1, [r3, #2]
 1306 0042 3B68     		ldr	r3, [r7]
 1307 0044 9A88     		ldrh	r2, [r3, #4]
 1308 0046 3B68     		ldr	r3, [r7]
 1309 0048 1B89     		ldrh	r3, [r3, #8]
 1310 004a 7868     		ldr	r0, [r7, #4]
 1311 004c FFF7FEFF 		bl	TI1_Config
 682:../Libraries/StdPeripheralDriver/src/stm32f10x_tim.c ****                TIM_ICInitStruct->TIM_ICFilter);
 683:../Libraries/StdPeripheralDriver/src/stm32f10x_tim.c ****     /* Set the Input Capture Prescaler value */
 684:../Libraries/StdPeripheralDriver/src/stm32f10x_tim.c ****     TIM_SetIC1Prescaler(TIMx, TIM_ICInitStruct->TIM_ICPrescaler);
 1312              		.loc 1 684 0
 1313 0050 3B68     		ldr	r3, [r7]
 1314 0052 DB88     		ldrh	r3, [r3, #6]
 1315 0054 7868     		ldr	r0, [r7, #4]
 1316 0056 1946     		mov	r1, r3
 1317 0058 FFF7FEFF 		bl	TIM_SetIC1Prescaler
 685:../Libraries/StdPeripheralDriver/src/stm32f10x_tim.c ****     /* TI2 Configuration */
 686:../Libraries/StdPeripheralDriver/src/stm32f10x_tim.c ****     TI2_Config(TIMx, icoppositepolarity, icoppositeselection, TIM_ICInitStruct->TIM_ICFilter);
 1318              		.loc 1 686 0
 1319 005c 3B68     		ldr	r3, [r7]
 1320 005e 1B89     		ldrh	r3, [r3, #8]
 1321 0060 F989     		ldrh	r1, [r7, #14]
 1322 0062 BA89     		ldrh	r2, [r7, #12]
 1323 0064 7868     		ldr	r0, [r7, #4]
 1324 0066 FFF7FEFF 		bl	TI2_Config
 687:../Libraries/StdPeripheralDriver/src/stm32f10x_tim.c ****     /* Set the Input Capture Prescaler value */
 688:../Libraries/StdPeripheralDriver/src/stm32f10x_tim.c ****     TIM_SetIC2Prescaler(TIMx, TIM_ICInitStruct->TIM_ICPrescaler);
 1325              		.loc 1 688 0
 1326 006a 3B68     		ldr	r3, [r7]
 1327 006c DB88     		ldrh	r3, [r3, #6]
 1328 006e 7868     		ldr	r0, [r7, #4]
 1329 0070 1946     		mov	r1, r3
 1330 0072 FFF7FEFF 		bl	TIM_SetIC2Prescaler
 1331 0076 1BE0     		b	.L42
 1332              	.L47:
 689:../Libraries/StdPeripheralDriver/src/stm32f10x_tim.c ****   }
 690:../Libraries/StdPeripheralDriver/src/stm32f10x_tim.c ****   else
 691:../Libraries/StdPeripheralDriver/src/stm32f10x_tim.c ****   { 
 692:../Libraries/StdPeripheralDriver/src/stm32f10x_tim.c ****     /* TI2 Configuration */
 693:../Libraries/StdPeripheralDriver/src/stm32f10x_tim.c ****     TI2_Config(TIMx, TIM_ICInitStruct->TIM_ICPolarity, TIM_ICInitStruct->TIM_ICSelection,
 1333              		.loc 1 693 0
 1334 0078 3B68     		ldr	r3, [r7]
 1335 007a 5988     		ldrh	r1, [r3, #2]
 1336 007c 3B68     		ldr	r3, [r7]
 1337 007e 9A88     		ldrh	r2, [r3, #4]
 1338 0080 3B68     		ldr	r3, [r7]
 1339 0082 1B89     		ldrh	r3, [r3, #8]
 1340 0084 7868     		ldr	r0, [r7, #4]
 1341 0086 FFF7FEFF 		bl	TI2_Config
 694:../Libraries/StdPeripheralDriver/src/stm32f10x_tim.c ****                TIM_ICInitStruct->TIM_ICFilter);
 695:../Libraries/StdPeripheralDriver/src/stm32f10x_tim.c ****     /* Set the Input Capture Prescaler value */
 696:../Libraries/StdPeripheralDriver/src/stm32f10x_tim.c ****     TIM_SetIC2Prescaler(TIMx, TIM_ICInitStruct->TIM_ICPrescaler);
 1342              		.loc 1 696 0
 1343 008a 3B68     		ldr	r3, [r7]
 1344 008c DB88     		ldrh	r3, [r3, #6]
 1345 008e 7868     		ldr	r0, [r7, #4]
 1346 0090 1946     		mov	r1, r3
 1347 0092 FFF7FEFF 		bl	TIM_SetIC2Prescaler
 697:../Libraries/StdPeripheralDriver/src/stm32f10x_tim.c ****     /* TI1 Configuration */
 698:../Libraries/StdPeripheralDriver/src/stm32f10x_tim.c ****     TI1_Config(TIMx, icoppositepolarity, icoppositeselection, TIM_ICInitStruct->TIM_ICFilter);
 1348              		.loc 1 698 0
 1349 0096 3B68     		ldr	r3, [r7]
 1350 0098 1B89     		ldrh	r3, [r3, #8]
 1351 009a F989     		ldrh	r1, [r7, #14]
 1352 009c BA89     		ldrh	r2, [r7, #12]
 1353 009e 7868     		ldr	r0, [r7, #4]
 1354 00a0 FFF7FEFF 		bl	TI1_Config
 699:../Libraries/StdPeripheralDriver/src/stm32f10x_tim.c ****     /* Set the Input Capture Prescaler value */
 700:../Libraries/StdPeripheralDriver/src/stm32f10x_tim.c ****     TIM_SetIC1Prescaler(TIMx, TIM_ICInitStruct->TIM_ICPrescaler);
 1355              		.loc 1 700 0
 1356 00a4 3B68     		ldr	r3, [r7]
 1357 00a6 DB88     		ldrh	r3, [r3, #6]
 1358 00a8 7868     		ldr	r0, [r7, #4]
 1359 00aa 1946     		mov	r1, r3
 1360 00ac FFF7FEFF 		bl	TIM_SetIC1Prescaler
 1361              	.L42:
 701:../Libraries/StdPeripheralDriver/src/stm32f10x_tim.c ****   }
 702:../Libraries/StdPeripheralDriver/src/stm32f10x_tim.c **** }
 1362              		.loc 1 702 0
 1363 00b0 1037     		adds	r7, r7, #16
 1364 00b2 BD46     		mov	sp, r7
 1365              		@ sp needed
 1366 00b4 80BD     		pop	{r7, pc}
 1367              		.cfi_endproc
 1368              	.LFE36:
 1370 00b6 00BF     		.section	.text.TIM_BDTRConfig,"ax",%progbits
 1371              		.align	2
 1372              		.global	TIM_BDTRConfig
 1373              		.thumb
 1374              		.thumb_func
 1376              	TIM_BDTRConfig:
 1377              	.LFB37:
 703:../Libraries/StdPeripheralDriver/src/stm32f10x_tim.c **** 
 704:../Libraries/StdPeripheralDriver/src/stm32f10x_tim.c **** /**
 705:../Libraries/StdPeripheralDriver/src/stm32f10x_tim.c ****   * @brief  Configures the: Break feature, dead time, Lock level, the OSSI,
 706:../Libraries/StdPeripheralDriver/src/stm32f10x_tim.c ****   *         the OSSR State and the AOE(automatic output enable).
 707:../Libraries/StdPeripheralDriver/src/stm32f10x_tim.c ****   * @param  TIMx: where x can be  1 or 8 to select the TIM 
 708:../Libraries/StdPeripheralDriver/src/stm32f10x_tim.c ****   * @param  TIM_BDTRInitStruct: pointer to a TIM_BDTRInitTypeDef structure that
 709:../Libraries/StdPeripheralDriver/src/stm32f10x_tim.c ****   *         contains the BDTR Register configuration  information for the TIM peripheral.
 710:../Libraries/StdPeripheralDriver/src/stm32f10x_tim.c ****   * @retval None
 711:../Libraries/StdPeripheralDriver/src/stm32f10x_tim.c ****   */
 712:../Libraries/StdPeripheralDriver/src/stm32f10x_tim.c **** void TIM_BDTRConfig(TIM_TypeDef* TIMx, TIM_BDTRInitTypeDef *TIM_BDTRInitStruct)
 713:../Libraries/StdPeripheralDriver/src/stm32f10x_tim.c **** {
 1378              		.loc 1 713 0
 1379              		.cfi_startproc
 1380              		@ args = 0, pretend = 0, frame = 8
 1381              		@ frame_needed = 1, uses_anonymous_args = 0
 1382              		@ link register save eliminated.
 1383 0000 80B4     		push	{r7}
 1384              		.cfi_def_cfa_offset 4
 1385              		.cfi_offset 7, -4
 1386 0002 83B0     		sub	sp, sp, #12
 1387              		.cfi_def_cfa_offset 16
 1388 0004 00AF     		add	r7, sp, #0
 1389              		.cfi_def_cfa_register 7
 1390 0006 7860     		str	r0, [r7, #4]
 1391 0008 3960     		str	r1, [r7]
 714:../Libraries/StdPeripheralDriver/src/stm32f10x_tim.c ****   /* Check the parameters */
 715:../Libraries/StdPeripheralDriver/src/stm32f10x_tim.c ****   assert_param(IS_TIM_LIST2_PERIPH(TIMx));
 716:../Libraries/StdPeripheralDriver/src/stm32f10x_tim.c ****   assert_param(IS_TIM_OSSR_STATE(TIM_BDTRInitStruct->TIM_OSSRState));
 717:../Libraries/StdPeripheralDriver/src/stm32f10x_tim.c ****   assert_param(IS_TIM_OSSI_STATE(TIM_BDTRInitStruct->TIM_OSSIState));
 718:../Libraries/StdPeripheralDriver/src/stm32f10x_tim.c ****   assert_param(IS_TIM_LOCK_LEVEL(TIM_BDTRInitStruct->TIM_LOCKLevel));
 719:../Libraries/StdPeripheralDriver/src/stm32f10x_tim.c ****   assert_param(IS_TIM_BREAK_STATE(TIM_BDTRInitStruct->TIM_Break));
 720:../Libraries/StdPeripheralDriver/src/stm32f10x_tim.c ****   assert_param(IS_TIM_BREAK_POLARITY(TIM_BDTRInitStruct->TIM_BreakPolarity));
 721:../Libraries/StdPeripheralDriver/src/stm32f10x_tim.c ****   assert_param(IS_TIM_AUTOMATIC_OUTPUT_STATE(TIM_BDTRInitStruct->TIM_AutomaticOutput));
 722:../Libraries/StdPeripheralDriver/src/stm32f10x_tim.c ****   /* Set the Lock level, the Break enable Bit and the Ploarity, the OSSR State,
 723:../Libraries/StdPeripheralDriver/src/stm32f10x_tim.c ****      the OSSI State, the dead time value and the Automatic Output Enable Bit */
 724:../Libraries/StdPeripheralDriver/src/stm32f10x_tim.c ****   TIMx->BDTR = (uint32_t)TIM_BDTRInitStruct->TIM_OSSRState | TIM_BDTRInitStruct->TIM_OSSIState |
 1392              		.loc 1 724 0
 1393 000a 3B68     		ldr	r3, [r7]
 1394 000c 1A88     		ldrh	r2, [r3]
 1395 000e 3B68     		ldr	r3, [r7]
 1396 0010 5B88     		ldrh	r3, [r3, #2]
 1397 0012 1343     		orrs	r3, r3, r2
 1398 0014 9AB2     		uxth	r2, r3
 725:../Libraries/StdPeripheralDriver/src/stm32f10x_tim.c ****              TIM_BDTRInitStruct->TIM_LOCKLevel | TIM_BDTRInitStruct->TIM_DeadTime |
 1399              		.loc 1 725 0
 1400 0016 3B68     		ldr	r3, [r7]
 1401 0018 9B88     		ldrh	r3, [r3, #4]
 724:../Libraries/StdPeripheralDriver/src/stm32f10x_tim.c ****              TIM_BDTRInitStruct->TIM_LOCKLevel | TIM_BDTRInitStruct->TIM_DeadTime |
 1402              		.loc 1 724 0
 1403 001a 1343     		orrs	r3, r3, r2
 1404 001c 9AB2     		uxth	r2, r3
 1405              		.loc 1 725 0
 1406 001e 3B68     		ldr	r3, [r7]
 1407 0020 DB88     		ldrh	r3, [r3, #6]
 724:../Libraries/StdPeripheralDriver/src/stm32f10x_tim.c ****              TIM_BDTRInitStruct->TIM_LOCKLevel | TIM_BDTRInitStruct->TIM_DeadTime |
 1408              		.loc 1 724 0
 1409 0022 1343     		orrs	r3, r3, r2
 1410 0024 9AB2     		uxth	r2, r3
 726:../Libraries/StdPeripheralDriver/src/stm32f10x_tim.c ****              TIM_BDTRInitStruct->TIM_Break | TIM_BDTRInitStruct->TIM_BreakPolarity |
 1411              		.loc 1 726 0
 1412 0026 3B68     		ldr	r3, [r7]
 1413 0028 1B89     		ldrh	r3, [r3, #8]
 724:../Libraries/StdPeripheralDriver/src/stm32f10x_tim.c ****              TIM_BDTRInitStruct->TIM_LOCKLevel | TIM_BDTRInitStruct->TIM_DeadTime |
 1414              		.loc 1 724 0
 1415 002a 1343     		orrs	r3, r3, r2
 1416 002c 9AB2     		uxth	r2, r3
 1417              		.loc 1 726 0
 1418 002e 3B68     		ldr	r3, [r7]
 1419 0030 5B89     		ldrh	r3, [r3, #10]
 724:../Libraries/StdPeripheralDriver/src/stm32f10x_tim.c ****              TIM_BDTRInitStruct->TIM_LOCKLevel | TIM_BDTRInitStruct->TIM_DeadTime |
 1420              		.loc 1 724 0
 1421 0032 1343     		orrs	r3, r3, r2
 1422 0034 9AB2     		uxth	r2, r3
 727:../Libraries/StdPeripheralDriver/src/stm32f10x_tim.c ****              TIM_BDTRInitStruct->TIM_AutomaticOutput;
 1423              		.loc 1 727 0
 1424 0036 3B68     		ldr	r3, [r7]
 1425 0038 9B89     		ldrh	r3, [r3, #12]
 724:../Libraries/StdPeripheralDriver/src/stm32f10x_tim.c ****              TIM_BDTRInitStruct->TIM_LOCKLevel | TIM_BDTRInitStruct->TIM_DeadTime |
 1426              		.loc 1 724 0
 1427 003a 1343     		orrs	r3, r3, r2
 1428 003c 9AB2     		uxth	r2, r3
 1429 003e 7B68     		ldr	r3, [r7, #4]
 1430 0040 A3F84420 		strh	r2, [r3, #68]	@ movhi
 728:../Libraries/StdPeripheralDriver/src/stm32f10x_tim.c **** }
 1431              		.loc 1 728 0
 1432 0044 0C37     		adds	r7, r7, #12
 1433 0046 BD46     		mov	sp, r7
 1434              		@ sp needed
 1435 0048 5DF8047B 		ldr	r7, [sp], #4
 1436 004c 7047     		bx	lr
 1437              		.cfi_endproc
 1438              	.LFE37:
 1440 004e 00BF     		.section	.text.TIM_TimeBaseStructInit,"ax",%progbits
 1441              		.align	2
 1442              		.global	TIM_TimeBaseStructInit
 1443              		.thumb
 1444              		.thumb_func
 1446              	TIM_TimeBaseStructInit:
 1447              	.LFB38:
 729:../Libraries/StdPeripheralDriver/src/stm32f10x_tim.c **** 
 730:../Libraries/StdPeripheralDriver/src/stm32f10x_tim.c **** /**
 731:../Libraries/StdPeripheralDriver/src/stm32f10x_tim.c ****   * @brief  Fills each TIM_TimeBaseInitStruct member with its default value.
 732:../Libraries/StdPeripheralDriver/src/stm32f10x_tim.c ****   * @param  TIM_TimeBaseInitStruct : pointer to a TIM_TimeBaseInitTypeDef
 733:../Libraries/StdPeripheralDriver/src/stm32f10x_tim.c ****   *         structure which will be initialized.
 734:../Libraries/StdPeripheralDriver/src/stm32f10x_tim.c ****   * @retval None
 735:../Libraries/StdPeripheralDriver/src/stm32f10x_tim.c ****   */
 736:../Libraries/StdPeripheralDriver/src/stm32f10x_tim.c **** void TIM_TimeBaseStructInit(TIM_TimeBaseInitTypeDef* TIM_TimeBaseInitStruct)
 737:../Libraries/StdPeripheralDriver/src/stm32f10x_tim.c **** {
 1448              		.loc 1 737 0
 1449              		.cfi_startproc
 1450              		@ args = 0, pretend = 0, frame = 8
 1451              		@ frame_needed = 1, uses_anonymous_args = 0
 1452              		@ link register save eliminated.
 1453 0000 80B4     		push	{r7}
 1454              		.cfi_def_cfa_offset 4
 1455              		.cfi_offset 7, -4
 1456 0002 83B0     		sub	sp, sp, #12
 1457              		.cfi_def_cfa_offset 16
 1458 0004 00AF     		add	r7, sp, #0
 1459              		.cfi_def_cfa_register 7
 1460 0006 7860     		str	r0, [r7, #4]
 738:../Libraries/StdPeripheralDriver/src/stm32f10x_tim.c ****   /* Set the default configuration */
 739:../Libraries/StdPeripheralDriver/src/stm32f10x_tim.c ****   TIM_TimeBaseInitStruct->TIM_Period = 0xFFFF;
 1461              		.loc 1 739 0
 1462 0008 7B68     		ldr	r3, [r7, #4]
 1463 000a 4FF6FF72 		movw	r2, #65535
 1464 000e 9A80     		strh	r2, [r3, #4]	@ movhi
 740:../Libraries/StdPeripheralDriver/src/stm32f10x_tim.c ****   TIM_TimeBaseInitStruct->TIM_Prescaler = 0x0000;
 1465              		.loc 1 740 0
 1466 0010 7B68     		ldr	r3, [r7, #4]
 1467 0012 0022     		movs	r2, #0
 1468 0014 1A80     		strh	r2, [r3]	@ movhi
 741:../Libraries/StdPeripheralDriver/src/stm32f10x_tim.c ****   TIM_TimeBaseInitStruct->TIM_ClockDivision = TIM_CKD_DIV1;
 1469              		.loc 1 741 0
 1470 0016 7B68     		ldr	r3, [r7, #4]
 1471 0018 0022     		movs	r2, #0
 1472 001a DA80     		strh	r2, [r3, #6]	@ movhi
 742:../Libraries/StdPeripheralDriver/src/stm32f10x_tim.c ****   TIM_TimeBaseInitStruct->TIM_CounterMode = TIM_CounterMode_Up;
 1473              		.loc 1 742 0
 1474 001c 7B68     		ldr	r3, [r7, #4]
 1475 001e 0022     		movs	r2, #0
 1476 0020 5A80     		strh	r2, [r3, #2]	@ movhi
 743:../Libraries/StdPeripheralDriver/src/stm32f10x_tim.c ****   TIM_TimeBaseInitStruct->TIM_RepetitionCounter = 0x0000;
 1477              		.loc 1 743 0
 1478 0022 7B68     		ldr	r3, [r7, #4]
 1479 0024 0022     		movs	r2, #0
 1480 0026 1A72     		strb	r2, [r3, #8]
 744:../Libraries/StdPeripheralDriver/src/stm32f10x_tim.c **** }
 1481              		.loc 1 744 0
 1482 0028 0C37     		adds	r7, r7, #12
 1483 002a BD46     		mov	sp, r7
 1484              		@ sp needed
 1485 002c 5DF8047B 		ldr	r7, [sp], #4
 1486 0030 7047     		bx	lr
 1487              		.cfi_endproc
 1488              	.LFE38:
 1490 0032 00BF     		.section	.text.TIM_OCStructInit,"ax",%progbits
 1491              		.align	2
 1492              		.global	TIM_OCStructInit
 1493              		.thumb
 1494              		.thumb_func
 1496              	TIM_OCStructInit:
 1497              	.LFB39:
 745:../Libraries/StdPeripheralDriver/src/stm32f10x_tim.c **** 
 746:../Libraries/StdPeripheralDriver/src/stm32f10x_tim.c **** /**
 747:../Libraries/StdPeripheralDriver/src/stm32f10x_tim.c ****   * @brief  Fills each TIM_OCInitStruct member with its default value.
 748:../Libraries/StdPeripheralDriver/src/stm32f10x_tim.c ****   * @param  TIM_OCInitStruct : pointer to a TIM_OCInitTypeDef structure which will
 749:../Libraries/StdPeripheralDriver/src/stm32f10x_tim.c ****   *         be initialized.
 750:../Libraries/StdPeripheralDriver/src/stm32f10x_tim.c ****   * @retval None
 751:../Libraries/StdPeripheralDriver/src/stm32f10x_tim.c ****   */
 752:../Libraries/StdPeripheralDriver/src/stm32f10x_tim.c **** void TIM_OCStructInit(TIM_OCInitTypeDef* TIM_OCInitStruct)
 753:../Libraries/StdPeripheralDriver/src/stm32f10x_tim.c **** {
 1498              		.loc 1 753 0
 1499              		.cfi_startproc
 1500              		@ args = 0, pretend = 0, frame = 8
 1501              		@ frame_needed = 1, uses_anonymous_args = 0
 1502              		@ link register save eliminated.
 1503 0000 80B4     		push	{r7}
 1504              		.cfi_def_cfa_offset 4
 1505              		.cfi_offset 7, -4
 1506 0002 83B0     		sub	sp, sp, #12
 1507              		.cfi_def_cfa_offset 16
 1508 0004 00AF     		add	r7, sp, #0
 1509              		.cfi_def_cfa_register 7
 1510 0006 7860     		str	r0, [r7, #4]
 754:../Libraries/StdPeripheralDriver/src/stm32f10x_tim.c ****   /* Set the default configuration */
 755:../Libraries/StdPeripheralDriver/src/stm32f10x_tim.c ****   TIM_OCInitStruct->TIM_OCMode = TIM_OCMode_Timing;
 1511              		.loc 1 755 0
 1512 0008 7B68     		ldr	r3, [r7, #4]
 1513 000a 0022     		movs	r2, #0
 1514 000c 1A80     		strh	r2, [r3]	@ movhi
 756:../Libraries/StdPeripheralDriver/src/stm32f10x_tim.c ****   TIM_OCInitStruct->TIM_OutputState = TIM_OutputState_Disable;
 1515              		.loc 1 756 0
 1516 000e 7B68     		ldr	r3, [r7, #4]
 1517 0010 0022     		movs	r2, #0
 1518 0012 5A80     		strh	r2, [r3, #2]	@ movhi
 757:../Libraries/StdPeripheralDriver/src/stm32f10x_tim.c ****   TIM_OCInitStruct->TIM_OutputNState = TIM_OutputNState_Disable;
 1519              		.loc 1 757 0
 1520 0014 7B68     		ldr	r3, [r7, #4]
 1521 0016 0022     		movs	r2, #0
 1522 0018 9A80     		strh	r2, [r3, #4]	@ movhi
 758:../Libraries/StdPeripheralDriver/src/stm32f10x_tim.c ****   TIM_OCInitStruct->TIM_Pulse = 0x0000;
 1523              		.loc 1 758 0
 1524 001a 7B68     		ldr	r3, [r7, #4]
 1525 001c 0022     		movs	r2, #0
 1526 001e DA80     		strh	r2, [r3, #6]	@ movhi
 759:../Libraries/StdPeripheralDriver/src/stm32f10x_tim.c ****   TIM_OCInitStruct->TIM_OCPolarity = TIM_OCPolarity_High;
 1527              		.loc 1 759 0
 1528 0020 7B68     		ldr	r3, [r7, #4]
 1529 0022 0022     		movs	r2, #0
 1530 0024 1A81     		strh	r2, [r3, #8]	@ movhi
 760:../Libraries/StdPeripheralDriver/src/stm32f10x_tim.c ****   TIM_OCInitStruct->TIM_OCNPolarity = TIM_OCPolarity_High;
 1531              		.loc 1 760 0
 1532 0026 7B68     		ldr	r3, [r7, #4]
 1533 0028 0022     		movs	r2, #0
 1534 002a 5A81     		strh	r2, [r3, #10]	@ movhi
 761:../Libraries/StdPeripheralDriver/src/stm32f10x_tim.c ****   TIM_OCInitStruct->TIM_OCIdleState = TIM_OCIdleState_Reset;
 1535              		.loc 1 761 0
 1536 002c 7B68     		ldr	r3, [r7, #4]
 1537 002e 0022     		movs	r2, #0
 1538 0030 9A81     		strh	r2, [r3, #12]	@ movhi
 762:../Libraries/StdPeripheralDriver/src/stm32f10x_tim.c ****   TIM_OCInitStruct->TIM_OCNIdleState = TIM_OCNIdleState_Reset;
 1539              		.loc 1 762 0
 1540 0032 7B68     		ldr	r3, [r7, #4]
 1541 0034 0022     		movs	r2, #0
 1542 0036 DA81     		strh	r2, [r3, #14]	@ movhi
 763:../Libraries/StdPeripheralDriver/src/stm32f10x_tim.c **** }
 1543              		.loc 1 763 0
 1544 0038 0C37     		adds	r7, r7, #12
 1545 003a BD46     		mov	sp, r7
 1546              		@ sp needed
 1547 003c 5DF8047B 		ldr	r7, [sp], #4
 1548 0040 7047     		bx	lr
 1549              		.cfi_endproc
 1550              	.LFE39:
 1552 0042 00BF     		.section	.text.TIM_ICStructInit,"ax",%progbits
 1553              		.align	2
 1554              		.global	TIM_ICStructInit
 1555              		.thumb
 1556              		.thumb_func
 1558              	TIM_ICStructInit:
 1559              	.LFB40:
 764:../Libraries/StdPeripheralDriver/src/stm32f10x_tim.c **** 
 765:../Libraries/StdPeripheralDriver/src/stm32f10x_tim.c **** /**
 766:../Libraries/StdPeripheralDriver/src/stm32f10x_tim.c ****   * @brief  Fills each TIM_ICInitStruct member with its default value.
 767:../Libraries/StdPeripheralDriver/src/stm32f10x_tim.c ****   * @param  TIM_ICInitStruct: pointer to a TIM_ICInitTypeDef structure which will
 768:../Libraries/StdPeripheralDriver/src/stm32f10x_tim.c ****   *         be initialized.
 769:../Libraries/StdPeripheralDriver/src/stm32f10x_tim.c ****   * @retval None
 770:../Libraries/StdPeripheralDriver/src/stm32f10x_tim.c ****   */
 771:../Libraries/StdPeripheralDriver/src/stm32f10x_tim.c **** void TIM_ICStructInit(TIM_ICInitTypeDef* TIM_ICInitStruct)
 772:../Libraries/StdPeripheralDriver/src/stm32f10x_tim.c **** {
 1560              		.loc 1 772 0
 1561              		.cfi_startproc
 1562              		@ args = 0, pretend = 0, frame = 8
 1563              		@ frame_needed = 1, uses_anonymous_args = 0
 1564              		@ link register save eliminated.
 1565 0000 80B4     		push	{r7}
 1566              		.cfi_def_cfa_offset 4
 1567              		.cfi_offset 7, -4
 1568 0002 83B0     		sub	sp, sp, #12
 1569              		.cfi_def_cfa_offset 16
 1570 0004 00AF     		add	r7, sp, #0
 1571              		.cfi_def_cfa_register 7
 1572 0006 7860     		str	r0, [r7, #4]
 773:../Libraries/StdPeripheralDriver/src/stm32f10x_tim.c ****   /* Set the default configuration */
 774:../Libraries/StdPeripheralDriver/src/stm32f10x_tim.c ****   TIM_ICInitStruct->TIM_Channel = TIM_Channel_1;
 1573              		.loc 1 774 0
 1574 0008 7B68     		ldr	r3, [r7, #4]
 1575 000a 0022     		movs	r2, #0
 1576 000c 1A80     		strh	r2, [r3]	@ movhi
 775:../Libraries/StdPeripheralDriver/src/stm32f10x_tim.c ****   TIM_ICInitStruct->TIM_ICPolarity = TIM_ICPolarity_Rising;
 1577              		.loc 1 775 0
 1578 000e 7B68     		ldr	r3, [r7, #4]
 1579 0010 0022     		movs	r2, #0
 1580 0012 5A80     		strh	r2, [r3, #2]	@ movhi
 776:../Libraries/StdPeripheralDriver/src/stm32f10x_tim.c ****   TIM_ICInitStruct->TIM_ICSelection = TIM_ICSelection_DirectTI;
 1581              		.loc 1 776 0
 1582 0014 7B68     		ldr	r3, [r7, #4]
 1583 0016 0122     		movs	r2, #1
 1584 0018 9A80     		strh	r2, [r3, #4]	@ movhi
 777:../Libraries/StdPeripheralDriver/src/stm32f10x_tim.c ****   TIM_ICInitStruct->TIM_ICPrescaler = TIM_ICPSC_DIV1;
 1585              		.loc 1 777 0
 1586 001a 7B68     		ldr	r3, [r7, #4]
 1587 001c 0022     		movs	r2, #0
 1588 001e DA80     		strh	r2, [r3, #6]	@ movhi
 778:../Libraries/StdPeripheralDriver/src/stm32f10x_tim.c ****   TIM_ICInitStruct->TIM_ICFilter = 0x00;
 1589              		.loc 1 778 0
 1590 0020 7B68     		ldr	r3, [r7, #4]
 1591 0022 0022     		movs	r2, #0
 1592 0024 1A81     		strh	r2, [r3, #8]	@ movhi
 779:../Libraries/StdPeripheralDriver/src/stm32f10x_tim.c **** }
 1593              		.loc 1 779 0
 1594 0026 0C37     		adds	r7, r7, #12
 1595 0028 BD46     		mov	sp, r7
 1596              		@ sp needed
 1597 002a 5DF8047B 		ldr	r7, [sp], #4
 1598 002e 7047     		bx	lr
 1599              		.cfi_endproc
 1600              	.LFE40:
 1602              		.section	.text.TIM_BDTRStructInit,"ax",%progbits
 1603              		.align	2
 1604              		.global	TIM_BDTRStructInit
 1605              		.thumb
 1606              		.thumb_func
 1608              	TIM_BDTRStructInit:
 1609              	.LFB41:
 780:../Libraries/StdPeripheralDriver/src/stm32f10x_tim.c **** 
 781:../Libraries/StdPeripheralDriver/src/stm32f10x_tim.c **** /**
 782:../Libraries/StdPeripheralDriver/src/stm32f10x_tim.c ****   * @brief  Fills each TIM_BDTRInitStruct member with its default value.
 783:../Libraries/StdPeripheralDriver/src/stm32f10x_tim.c ****   * @param  TIM_BDTRInitStruct: pointer to a TIM_BDTRInitTypeDef structure which
 784:../Libraries/StdPeripheralDriver/src/stm32f10x_tim.c ****   *         will be initialized.
 785:../Libraries/StdPeripheralDriver/src/stm32f10x_tim.c ****   * @retval None
 786:../Libraries/StdPeripheralDriver/src/stm32f10x_tim.c ****   */
 787:../Libraries/StdPeripheralDriver/src/stm32f10x_tim.c **** void TIM_BDTRStructInit(TIM_BDTRInitTypeDef* TIM_BDTRInitStruct)
 788:../Libraries/StdPeripheralDriver/src/stm32f10x_tim.c **** {
 1610              		.loc 1 788 0
 1611              		.cfi_startproc
 1612              		@ args = 0, pretend = 0, frame = 8
 1613              		@ frame_needed = 1, uses_anonymous_args = 0
 1614              		@ link register save eliminated.
 1615 0000 80B4     		push	{r7}
 1616              		.cfi_def_cfa_offset 4
 1617              		.cfi_offset 7, -4
 1618 0002 83B0     		sub	sp, sp, #12
 1619              		.cfi_def_cfa_offset 16
 1620 0004 00AF     		add	r7, sp, #0
 1621              		.cfi_def_cfa_register 7
 1622 0006 7860     		str	r0, [r7, #4]
 789:../Libraries/StdPeripheralDriver/src/stm32f10x_tim.c ****   /* Set the default configuration */
 790:../Libraries/StdPeripheralDriver/src/stm32f10x_tim.c ****   TIM_BDTRInitStruct->TIM_OSSRState = TIM_OSSRState_Disable;
 1623              		.loc 1 790 0
 1624 0008 7B68     		ldr	r3, [r7, #4]
 1625 000a 0022     		movs	r2, #0
 1626 000c 1A80     		strh	r2, [r3]	@ movhi
 791:../Libraries/StdPeripheralDriver/src/stm32f10x_tim.c ****   TIM_BDTRInitStruct->TIM_OSSIState = TIM_OSSIState_Disable;
 1627              		.loc 1 791 0
 1628 000e 7B68     		ldr	r3, [r7, #4]
 1629 0010 0022     		movs	r2, #0
 1630 0012 5A80     		strh	r2, [r3, #2]	@ movhi
 792:../Libraries/StdPeripheralDriver/src/stm32f10x_tim.c ****   TIM_BDTRInitStruct->TIM_LOCKLevel = TIM_LOCKLevel_OFF;
 1631              		.loc 1 792 0
 1632 0014 7B68     		ldr	r3, [r7, #4]
 1633 0016 0022     		movs	r2, #0
 1634 0018 9A80     		strh	r2, [r3, #4]	@ movhi
 793:../Libraries/StdPeripheralDriver/src/stm32f10x_tim.c ****   TIM_BDTRInitStruct->TIM_DeadTime = 0x00;
 1635              		.loc 1 793 0
 1636 001a 7B68     		ldr	r3, [r7, #4]
 1637 001c 0022     		movs	r2, #0
 1638 001e DA80     		strh	r2, [r3, #6]	@ movhi
 794:../Libraries/StdPeripheralDriver/src/stm32f10x_tim.c ****   TIM_BDTRInitStruct->TIM_Break = TIM_Break_Disable;
 1639              		.loc 1 794 0
 1640 0020 7B68     		ldr	r3, [r7, #4]
 1641 0022 0022     		movs	r2, #0
 1642 0024 1A81     		strh	r2, [r3, #8]	@ movhi
 795:../Libraries/StdPeripheralDriver/src/stm32f10x_tim.c ****   TIM_BDTRInitStruct->TIM_BreakPolarity = TIM_BreakPolarity_Low;
 1643              		.loc 1 795 0
 1644 0026 7B68     		ldr	r3, [r7, #4]
 1645 0028 0022     		movs	r2, #0
 1646 002a 5A81     		strh	r2, [r3, #10]	@ movhi
 796:../Libraries/StdPeripheralDriver/src/stm32f10x_tim.c ****   TIM_BDTRInitStruct->TIM_AutomaticOutput = TIM_AutomaticOutput_Disable;
 1647              		.loc 1 796 0
 1648 002c 7B68     		ldr	r3, [r7, #4]
 1649 002e 0022     		movs	r2, #0
 1650 0030 9A81     		strh	r2, [r3, #12]	@ movhi
 797:../Libraries/StdPeripheralDriver/src/stm32f10x_tim.c **** }
 1651              		.loc 1 797 0
 1652 0032 0C37     		adds	r7, r7, #12
 1653 0034 BD46     		mov	sp, r7
 1654              		@ sp needed
 1655 0036 5DF8047B 		ldr	r7, [sp], #4
 1656 003a 7047     		bx	lr
 1657              		.cfi_endproc
 1658              	.LFE41:
 1660              		.section	.text.TIM_Cmd,"ax",%progbits
 1661              		.align	2
 1662              		.global	TIM_Cmd
 1663              		.thumb
 1664              		.thumb_func
 1666              	TIM_Cmd:
 1667              	.LFB42:
 798:../Libraries/StdPeripheralDriver/src/stm32f10x_tim.c **** 
 799:../Libraries/StdPeripheralDriver/src/stm32f10x_tim.c **** /**
 800:../Libraries/StdPeripheralDriver/src/stm32f10x_tim.c ****   * @brief  Enables or disables the specified TIM peripheral.
 801:../Libraries/StdPeripheralDriver/src/stm32f10x_tim.c ****   * @param  TIMx: where x can be 1 to 17 to select the TIMx peripheral.
 802:../Libraries/StdPeripheralDriver/src/stm32f10x_tim.c ****   * @param  NewState: new state of the TIMx peripheral.
 803:../Libraries/StdPeripheralDriver/src/stm32f10x_tim.c ****   *   This parameter can be: ENABLE or DISABLE.
 804:../Libraries/StdPeripheralDriver/src/stm32f10x_tim.c ****   * @retval None
 805:../Libraries/StdPeripheralDriver/src/stm32f10x_tim.c ****   */
 806:../Libraries/StdPeripheralDriver/src/stm32f10x_tim.c **** void TIM_Cmd(TIM_TypeDef* TIMx, FunctionalState NewState)
 807:../Libraries/StdPeripheralDriver/src/stm32f10x_tim.c **** {
 1668              		.loc 1 807 0
 1669              		.cfi_startproc
 1670              		@ args = 0, pretend = 0, frame = 8
 1671              		@ frame_needed = 1, uses_anonymous_args = 0
 1672              		@ link register save eliminated.
 1673 0000 80B4     		push	{r7}
 1674              		.cfi_def_cfa_offset 4
 1675              		.cfi_offset 7, -4
 1676 0002 83B0     		sub	sp, sp, #12
 1677              		.cfi_def_cfa_offset 16
 1678 0004 00AF     		add	r7, sp, #0
 1679              		.cfi_def_cfa_register 7
 1680 0006 7860     		str	r0, [r7, #4]
 1681 0008 0B46     		mov	r3, r1
 1682 000a FB70     		strb	r3, [r7, #3]
 808:../Libraries/StdPeripheralDriver/src/stm32f10x_tim.c ****   /* Check the parameters */
 809:../Libraries/StdPeripheralDriver/src/stm32f10x_tim.c ****   assert_param(IS_TIM_ALL_PERIPH(TIMx));
 810:../Libraries/StdPeripheralDriver/src/stm32f10x_tim.c ****   assert_param(IS_FUNCTIONAL_STATE(NewState));
 811:../Libraries/StdPeripheralDriver/src/stm32f10x_tim.c ****   
 812:../Libraries/StdPeripheralDriver/src/stm32f10x_tim.c ****   if (NewState != DISABLE)
 1683              		.loc 1 812 0
 1684 000c FB78     		ldrb	r3, [r7, #3]	@ zero_extendqisi2
 1685 000e 002B     		cmp	r3, #0
 1686 0010 08D0     		beq	.L55
 813:../Libraries/StdPeripheralDriver/src/stm32f10x_tim.c ****   {
 814:../Libraries/StdPeripheralDriver/src/stm32f10x_tim.c ****     /* Enable the TIM Counter */
 815:../Libraries/StdPeripheralDriver/src/stm32f10x_tim.c ****     TIMx->CR1 |= TIM_CR1_CEN;
 1687              		.loc 1 815 0
 1688 0012 7B68     		ldr	r3, [r7, #4]
 1689 0014 1B88     		ldrh	r3, [r3]	@ movhi
 1690 0016 9BB2     		uxth	r3, r3
 1691 0018 43F00103 		orr	r3, r3, #1
 1692 001c 9AB2     		uxth	r2, r3
 1693 001e 7B68     		ldr	r3, [r7, #4]
 1694 0020 1A80     		strh	r2, [r3]	@ movhi
 1695 0022 07E0     		b	.L54
 1696              	.L55:
 816:../Libraries/StdPeripheralDriver/src/stm32f10x_tim.c ****   }
 817:../Libraries/StdPeripheralDriver/src/stm32f10x_tim.c ****   else
 818:../Libraries/StdPeripheralDriver/src/stm32f10x_tim.c ****   {
 819:../Libraries/StdPeripheralDriver/src/stm32f10x_tim.c ****     /* Disable the TIM Counter */
 820:../Libraries/StdPeripheralDriver/src/stm32f10x_tim.c ****     TIMx->CR1 &= (uint16_t)(~((uint16_t)TIM_CR1_CEN));
 1697              		.loc 1 820 0
 1698 0024 7B68     		ldr	r3, [r7, #4]
 1699 0026 1B88     		ldrh	r3, [r3]	@ movhi
 1700 0028 9BB2     		uxth	r3, r3
 1701 002a 23F00103 		bic	r3, r3, #1
 1702 002e 9AB2     		uxth	r2, r3
 1703 0030 7B68     		ldr	r3, [r7, #4]
 1704 0032 1A80     		strh	r2, [r3]	@ movhi
 1705              	.L54:
 821:../Libraries/StdPeripheralDriver/src/stm32f10x_tim.c ****   }
 822:../Libraries/StdPeripheralDriver/src/stm32f10x_tim.c **** }
 1706              		.loc 1 822 0
 1707 0034 0C37     		adds	r7, r7, #12
 1708 0036 BD46     		mov	sp, r7
 1709              		@ sp needed
 1710 0038 5DF8047B 		ldr	r7, [sp], #4
 1711 003c 7047     		bx	lr
 1712              		.cfi_endproc
 1713              	.LFE42:
 1715 003e 00BF     		.section	.text.TIM_CtrlPWMOutputs,"ax",%progbits
 1716              		.align	2
 1717              		.global	TIM_CtrlPWMOutputs
 1718              		.thumb
 1719              		.thumb_func
 1721              	TIM_CtrlPWMOutputs:
 1722              	.LFB43:
 823:../Libraries/StdPeripheralDriver/src/stm32f10x_tim.c **** 
 824:../Libraries/StdPeripheralDriver/src/stm32f10x_tim.c **** /**
 825:../Libraries/StdPeripheralDriver/src/stm32f10x_tim.c ****   * @brief  Enables or disables the TIM peripheral Main Outputs.
 826:../Libraries/StdPeripheralDriver/src/stm32f10x_tim.c ****   * @param  TIMx: where x can be 1, 8, 15, 16 or 17 to select the TIMx peripheral.
 827:../Libraries/StdPeripheralDriver/src/stm32f10x_tim.c ****   * @param  NewState: new state of the TIM peripheral Main Outputs.
 828:../Libraries/StdPeripheralDriver/src/stm32f10x_tim.c ****   *   This parameter can be: ENABLE or DISABLE.
 829:../Libraries/StdPeripheralDriver/src/stm32f10x_tim.c ****   * @retval None
 830:../Libraries/StdPeripheralDriver/src/stm32f10x_tim.c ****   */
 831:../Libraries/StdPeripheralDriver/src/stm32f10x_tim.c **** void TIM_CtrlPWMOutputs(TIM_TypeDef* TIMx, FunctionalState NewState)
 832:../Libraries/StdPeripheralDriver/src/stm32f10x_tim.c **** {
 1723              		.loc 1 832 0
 1724              		.cfi_startproc
 1725              		@ args = 0, pretend = 0, frame = 8
 1726              		@ frame_needed = 1, uses_anonymous_args = 0
 1727              		@ link register save eliminated.
 1728 0000 80B4     		push	{r7}
 1729              		.cfi_def_cfa_offset 4
 1730              		.cfi_offset 7, -4
 1731 0002 83B0     		sub	sp, sp, #12
 1732              		.cfi_def_cfa_offset 16
 1733 0004 00AF     		add	r7, sp, #0
 1734              		.cfi_def_cfa_register 7
 1735 0006 7860     		str	r0, [r7, #4]
 1736 0008 0B46     		mov	r3, r1
 1737 000a FB70     		strb	r3, [r7, #3]
 833:../Libraries/StdPeripheralDriver/src/stm32f10x_tim.c ****   /* Check the parameters */
 834:../Libraries/StdPeripheralDriver/src/stm32f10x_tim.c ****   assert_param(IS_TIM_LIST2_PERIPH(TIMx));
 835:../Libraries/StdPeripheralDriver/src/stm32f10x_tim.c ****   assert_param(IS_FUNCTIONAL_STATE(NewState));
 836:../Libraries/StdPeripheralDriver/src/stm32f10x_tim.c ****   if (NewState != DISABLE)
 1738              		.loc 1 836 0
 1739 000c FB78     		ldrb	r3, [r7, #3]	@ zero_extendqisi2
 1740 000e 002B     		cmp	r3, #0
 1741 0010 0CD0     		beq	.L58
 837:../Libraries/StdPeripheralDriver/src/stm32f10x_tim.c ****   {
 838:../Libraries/StdPeripheralDriver/src/stm32f10x_tim.c ****     /* Enable the TIM Main Output */
 839:../Libraries/StdPeripheralDriver/src/stm32f10x_tim.c ****     TIMx->BDTR |= TIM_BDTR_MOE;
 1742              		.loc 1 839 0
 1743 0012 7B68     		ldr	r3, [r7, #4]
 1744 0014 B3F84430 		ldrh	r3, [r3, #68]	@ movhi
 1745 0018 9BB2     		uxth	r3, r3
 1746 001a 6FEA4343 		mvn	r3, r3, lsl #17
 1747 001e 6FEA5343 		mvn	r3, r3, lsr #17
 1748 0022 9AB2     		uxth	r2, r3
 1749 0024 7B68     		ldr	r3, [r7, #4]
 1750 0026 A3F84420 		strh	r2, [r3, #68]	@ movhi
 1751 002a 09E0     		b	.L57
 1752              	.L58:
 840:../Libraries/StdPeripheralDriver/src/stm32f10x_tim.c ****   }
 841:../Libraries/StdPeripheralDriver/src/stm32f10x_tim.c ****   else
 842:../Libraries/StdPeripheralDriver/src/stm32f10x_tim.c ****   {
 843:../Libraries/StdPeripheralDriver/src/stm32f10x_tim.c ****     /* Disable the TIM Main Output */
 844:../Libraries/StdPeripheralDriver/src/stm32f10x_tim.c ****     TIMx->BDTR &= (uint16_t)(~((uint16_t)TIM_BDTR_MOE));
 1753              		.loc 1 844 0
 1754 002c 7B68     		ldr	r3, [r7, #4]
 1755 002e B3F84430 		ldrh	r3, [r3, #68]	@ movhi
 1756 0032 9BB2     		uxth	r3, r3
 1757 0034 C3F30E03 		ubfx	r3, r3, #0, #15
 1758 0038 9AB2     		uxth	r2, r3
 1759 003a 7B68     		ldr	r3, [r7, #4]
 1760 003c A3F84420 		strh	r2, [r3, #68]	@ movhi
 1761              	.L57:
 845:../Libraries/StdPeripheralDriver/src/stm32f10x_tim.c ****   }  
 846:../Libraries/StdPeripheralDriver/src/stm32f10x_tim.c **** }
 1762              		.loc 1 846 0
 1763 0040 0C37     		adds	r7, r7, #12
 1764 0042 BD46     		mov	sp, r7
 1765              		@ sp needed
 1766 0044 5DF8047B 		ldr	r7, [sp], #4
 1767 0048 7047     		bx	lr
 1768              		.cfi_endproc
 1769              	.LFE43:
 1771 004a 00BF     		.section	.text.TIM_ITConfig,"ax",%progbits
 1772              		.align	2
 1773              		.global	TIM_ITConfig
 1774              		.thumb
 1775              		.thumb_func
 1777              	TIM_ITConfig:
 1778              	.LFB44:
 847:../Libraries/StdPeripheralDriver/src/stm32f10x_tim.c **** 
 848:../Libraries/StdPeripheralDriver/src/stm32f10x_tim.c **** /**
 849:../Libraries/StdPeripheralDriver/src/stm32f10x_tim.c ****   * @brief  Enables or disables the specified TIM interrupts.
 850:../Libraries/StdPeripheralDriver/src/stm32f10x_tim.c ****   * @param  TIMx: where x can be 1 to 17 to select the TIMx peripheral.
 851:../Libraries/StdPeripheralDriver/src/stm32f10x_tim.c ****   * @param  TIM_IT: specifies the TIM interrupts sources to be enabled or disabled.
 852:../Libraries/StdPeripheralDriver/src/stm32f10x_tim.c ****   *   This parameter can be any combination of the following values:
 853:../Libraries/StdPeripheralDriver/src/stm32f10x_tim.c ****   *     @arg TIM_IT_Update: TIM update Interrupt source
 854:../Libraries/StdPeripheralDriver/src/stm32f10x_tim.c ****   *     @arg TIM_IT_CC1: TIM Capture Compare 1 Interrupt source
 855:../Libraries/StdPeripheralDriver/src/stm32f10x_tim.c ****   *     @arg TIM_IT_CC2: TIM Capture Compare 2 Interrupt source
 856:../Libraries/StdPeripheralDriver/src/stm32f10x_tim.c ****   *     @arg TIM_IT_CC3: TIM Capture Compare 3 Interrupt source
 857:../Libraries/StdPeripheralDriver/src/stm32f10x_tim.c ****   *     @arg TIM_IT_CC4: TIM Capture Compare 4 Interrupt source
 858:../Libraries/StdPeripheralDriver/src/stm32f10x_tim.c ****   *     @arg TIM_IT_COM: TIM Commutation Interrupt source
 859:../Libraries/StdPeripheralDriver/src/stm32f10x_tim.c ****   *     @arg TIM_IT_Trigger: TIM Trigger Interrupt source
 860:../Libraries/StdPeripheralDriver/src/stm32f10x_tim.c ****   *     @arg TIM_IT_Break: TIM Break Interrupt source
 861:../Libraries/StdPeripheralDriver/src/stm32f10x_tim.c ****   * @note 
 862:../Libraries/StdPeripheralDriver/src/stm32f10x_tim.c ****   *   - TIM6 and TIM7 can only generate an update interrupt.
 863:../Libraries/StdPeripheralDriver/src/stm32f10x_tim.c ****   *   - TIM9, TIM12 and TIM15 can have only TIM_IT_Update, TIM_IT_CC1,
 864:../Libraries/StdPeripheralDriver/src/stm32f10x_tim.c ****   *      TIM_IT_CC2 or TIM_IT_Trigger. 
 865:../Libraries/StdPeripheralDriver/src/stm32f10x_tim.c ****   *   - TIM10, TIM11, TIM13, TIM14, TIM16 and TIM17 can have TIM_IT_Update or TIM_IT_CC1.   
 866:../Libraries/StdPeripheralDriver/src/stm32f10x_tim.c ****   *   - TIM_IT_Break is used only with TIM1, TIM8 and TIM15. 
 867:../Libraries/StdPeripheralDriver/src/stm32f10x_tim.c ****   *   - TIM_IT_COM is used only with TIM1, TIM8, TIM15, TIM16 and TIM17.    
 868:../Libraries/StdPeripheralDriver/src/stm32f10x_tim.c ****   * @param  NewState: new state of the TIM interrupts.
 869:../Libraries/StdPeripheralDriver/src/stm32f10x_tim.c ****   *   This parameter can be: ENABLE or DISABLE.
 870:../Libraries/StdPeripheralDriver/src/stm32f10x_tim.c ****   * @retval None
 871:../Libraries/StdPeripheralDriver/src/stm32f10x_tim.c ****   */
 872:../Libraries/StdPeripheralDriver/src/stm32f10x_tim.c **** void TIM_ITConfig(TIM_TypeDef* TIMx, uint16_t TIM_IT, FunctionalState NewState)
 873:../Libraries/StdPeripheralDriver/src/stm32f10x_tim.c **** {  
 1779              		.loc 1 873 0
 1780              		.cfi_startproc
 1781              		@ args = 0, pretend = 0, frame = 8
 1782              		@ frame_needed = 1, uses_anonymous_args = 0
 1783              		@ link register save eliminated.
 1784 0000 80B4     		push	{r7}
 1785              		.cfi_def_cfa_offset 4
 1786              		.cfi_offset 7, -4
 1787 0002 83B0     		sub	sp, sp, #12
 1788              		.cfi_def_cfa_offset 16
 1789 0004 00AF     		add	r7, sp, #0
 1790              		.cfi_def_cfa_register 7
 1791 0006 7860     		str	r0, [r7, #4]
 1792 0008 1346     		mov	r3, r2
 1793 000a 0A46     		mov	r2, r1	@ movhi
 1794 000c 7A80     		strh	r2, [r7, #2]	@ movhi
 1795 000e 7B70     		strb	r3, [r7, #1]
 874:../Libraries/StdPeripheralDriver/src/stm32f10x_tim.c ****   /* Check the parameters */
 875:../Libraries/StdPeripheralDriver/src/stm32f10x_tim.c ****   assert_param(IS_TIM_ALL_PERIPH(TIMx));
 876:../Libraries/StdPeripheralDriver/src/stm32f10x_tim.c ****   assert_param(IS_TIM_IT(TIM_IT));
 877:../Libraries/StdPeripheralDriver/src/stm32f10x_tim.c ****   assert_param(IS_FUNCTIONAL_STATE(NewState));
 878:../Libraries/StdPeripheralDriver/src/stm32f10x_tim.c ****   
 879:../Libraries/StdPeripheralDriver/src/stm32f10x_tim.c ****   if (NewState != DISABLE)
 1796              		.loc 1 879 0
 1797 0010 7B78     		ldrb	r3, [r7, #1]	@ zero_extendqisi2
 1798 0012 002B     		cmp	r3, #0
 1799 0014 08D0     		beq	.L61
 880:../Libraries/StdPeripheralDriver/src/stm32f10x_tim.c ****   {
 881:../Libraries/StdPeripheralDriver/src/stm32f10x_tim.c ****     /* Enable the Interrupt sources */
 882:../Libraries/StdPeripheralDriver/src/stm32f10x_tim.c ****     TIMx->DIER |= TIM_IT;
 1800              		.loc 1 882 0
 1801 0016 7B68     		ldr	r3, [r7, #4]
 1802 0018 9B89     		ldrh	r3, [r3, #12]	@ movhi
 1803 001a 9AB2     		uxth	r2, r3
 1804 001c 7B88     		ldrh	r3, [r7, #2]	@ movhi
 1805 001e 1343     		orrs	r3, r3, r2
 1806 0020 9AB2     		uxth	r2, r3
 1807 0022 7B68     		ldr	r3, [r7, #4]
 1808 0024 9A81     		strh	r2, [r3, #12]	@ movhi
 1809 0026 09E0     		b	.L60
 1810              	.L61:
 883:../Libraries/StdPeripheralDriver/src/stm32f10x_tim.c ****   }
 884:../Libraries/StdPeripheralDriver/src/stm32f10x_tim.c ****   else
 885:../Libraries/StdPeripheralDriver/src/stm32f10x_tim.c ****   {
 886:../Libraries/StdPeripheralDriver/src/stm32f10x_tim.c ****     /* Disable the Interrupt sources */
 887:../Libraries/StdPeripheralDriver/src/stm32f10x_tim.c ****     TIMx->DIER &= (uint16_t)~TIM_IT;
 1811              		.loc 1 887 0
 1812 0028 7B68     		ldr	r3, [r7, #4]
 1813 002a 9B89     		ldrh	r3, [r3, #12]	@ movhi
 1814 002c 9AB2     		uxth	r2, r3
 1815 002e 7B88     		ldrh	r3, [r7, #2]	@ movhi
 1816 0030 DB43     		mvns	r3, r3
 1817 0032 9BB2     		uxth	r3, r3
 1818 0034 1340     		ands	r3, r3, r2
 1819 0036 9AB2     		uxth	r2, r3
 1820 0038 7B68     		ldr	r3, [r7, #4]
 1821 003a 9A81     		strh	r2, [r3, #12]	@ movhi
 1822              	.L60:
 888:../Libraries/StdPeripheralDriver/src/stm32f10x_tim.c ****   }
 889:../Libraries/StdPeripheralDriver/src/stm32f10x_tim.c **** }
 1823              		.loc 1 889 0
 1824 003c 0C37     		adds	r7, r7, #12
 1825 003e BD46     		mov	sp, r7
 1826              		@ sp needed
 1827 0040 5DF8047B 		ldr	r7, [sp], #4
 1828 0044 7047     		bx	lr
 1829              		.cfi_endproc
 1830              	.LFE44:
 1832 0046 00BF     		.section	.text.TIM_GenerateEvent,"ax",%progbits
 1833              		.align	2
 1834              		.global	TIM_GenerateEvent
 1835              		.thumb
 1836              		.thumb_func
 1838              	TIM_GenerateEvent:
 1839              	.LFB45:
 890:../Libraries/StdPeripheralDriver/src/stm32f10x_tim.c **** 
 891:../Libraries/StdPeripheralDriver/src/stm32f10x_tim.c **** /**
 892:../Libraries/StdPeripheralDriver/src/stm32f10x_tim.c ****   * @brief  Configures the TIMx event to be generate by software.
 893:../Libraries/StdPeripheralDriver/src/stm32f10x_tim.c ****   * @param  TIMx: where x can be 1 to 17 to select the TIM peripheral.
 894:../Libraries/StdPeripheralDriver/src/stm32f10x_tim.c ****   * @param  TIM_EventSource: specifies the event source.
 895:../Libraries/StdPeripheralDriver/src/stm32f10x_tim.c ****   *   This parameter can be one or more of the following values:	   
 896:../Libraries/StdPeripheralDriver/src/stm32f10x_tim.c ****   *     @arg TIM_EventSource_Update: Timer update Event source
 897:../Libraries/StdPeripheralDriver/src/stm32f10x_tim.c ****   *     @arg TIM_EventSource_CC1: Timer Capture Compare 1 Event source
 898:../Libraries/StdPeripheralDriver/src/stm32f10x_tim.c ****   *     @arg TIM_EventSource_CC2: Timer Capture Compare 2 Event source
 899:../Libraries/StdPeripheralDriver/src/stm32f10x_tim.c ****   *     @arg TIM_EventSource_CC3: Timer Capture Compare 3 Event source
 900:../Libraries/StdPeripheralDriver/src/stm32f10x_tim.c ****   *     @arg TIM_EventSource_CC4: Timer Capture Compare 4 Event source
 901:../Libraries/StdPeripheralDriver/src/stm32f10x_tim.c ****   *     @arg TIM_EventSource_COM: Timer COM event source  
 902:../Libraries/StdPeripheralDriver/src/stm32f10x_tim.c ****   *     @arg TIM_EventSource_Trigger: Timer Trigger Event source
 903:../Libraries/StdPeripheralDriver/src/stm32f10x_tim.c ****   *     @arg TIM_EventSource_Break: Timer Break event source
 904:../Libraries/StdPeripheralDriver/src/stm32f10x_tim.c ****   * @note 
 905:../Libraries/StdPeripheralDriver/src/stm32f10x_tim.c ****   *   - TIM6 and TIM7 can only generate an update event. 
 906:../Libraries/StdPeripheralDriver/src/stm32f10x_tim.c ****   *   - TIM_EventSource_COM and TIM_EventSource_Break are used only with TIM1 and TIM8.      
 907:../Libraries/StdPeripheralDriver/src/stm32f10x_tim.c ****   * @retval None
 908:../Libraries/StdPeripheralDriver/src/stm32f10x_tim.c ****   */
 909:../Libraries/StdPeripheralDriver/src/stm32f10x_tim.c **** void TIM_GenerateEvent(TIM_TypeDef* TIMx, uint16_t TIM_EventSource)
 910:../Libraries/StdPeripheralDriver/src/stm32f10x_tim.c **** { 
 1840              		.loc 1 910 0
 1841              		.cfi_startproc
 1842              		@ args = 0, pretend = 0, frame = 8
 1843              		@ frame_needed = 1, uses_anonymous_args = 0
 1844              		@ link register save eliminated.
 1845 0000 80B4     		push	{r7}
 1846              		.cfi_def_cfa_offset 4
 1847              		.cfi_offset 7, -4
 1848 0002 83B0     		sub	sp, sp, #12
 1849              		.cfi_def_cfa_offset 16
 1850 0004 00AF     		add	r7, sp, #0
 1851              		.cfi_def_cfa_register 7
 1852 0006 7860     		str	r0, [r7, #4]
 1853 0008 0B46     		mov	r3, r1
 1854 000a 7B80     		strh	r3, [r7, #2]	@ movhi
 911:../Libraries/StdPeripheralDriver/src/stm32f10x_tim.c ****   /* Check the parameters */
 912:../Libraries/StdPeripheralDriver/src/stm32f10x_tim.c ****   assert_param(IS_TIM_ALL_PERIPH(TIMx));
 913:../Libraries/StdPeripheralDriver/src/stm32f10x_tim.c ****   assert_param(IS_TIM_EVENT_SOURCE(TIM_EventSource));
 914:../Libraries/StdPeripheralDriver/src/stm32f10x_tim.c ****   
 915:../Libraries/StdPeripheralDriver/src/stm32f10x_tim.c ****   /* Set the event sources */
 916:../Libraries/StdPeripheralDriver/src/stm32f10x_tim.c ****   TIMx->EGR = TIM_EventSource;
 1855              		.loc 1 916 0
 1856 000c 7B68     		ldr	r3, [r7, #4]
 1857 000e 7A88     		ldrh	r2, [r7, #2]	@ movhi
 1858 0010 9A82     		strh	r2, [r3, #20]	@ movhi
 917:../Libraries/StdPeripheralDriver/src/stm32f10x_tim.c **** }
 1859              		.loc 1 917 0
 1860 0012 0C37     		adds	r7, r7, #12
 1861 0014 BD46     		mov	sp, r7
 1862              		@ sp needed
 1863 0016 5DF8047B 		ldr	r7, [sp], #4
 1864 001a 7047     		bx	lr
 1865              		.cfi_endproc
 1866              	.LFE45:
 1868              		.section	.text.TIM_DMAConfig,"ax",%progbits
 1869              		.align	2
 1870              		.global	TIM_DMAConfig
 1871              		.thumb
 1872              		.thumb_func
 1874              	TIM_DMAConfig:
 1875              	.LFB46:
 918:../Libraries/StdPeripheralDriver/src/stm32f10x_tim.c **** 
 919:../Libraries/StdPeripheralDriver/src/stm32f10x_tim.c **** /**
 920:../Libraries/StdPeripheralDriver/src/stm32f10x_tim.c ****   * @brief  Configures the TIMx's DMA interface.
 921:../Libraries/StdPeripheralDriver/src/stm32f10x_tim.c ****   * @param  TIMx: where x can be  1, 2, 3, 4, 5, 8, 15, 16 or 17 to select 
 922:../Libraries/StdPeripheralDriver/src/stm32f10x_tim.c ****   *   the TIM peripheral.
 923:../Libraries/StdPeripheralDriver/src/stm32f10x_tim.c ****   * @param  TIM_DMABase: DMA Base address.
 924:../Libraries/StdPeripheralDriver/src/stm32f10x_tim.c ****   *   This parameter can be one of the following values:
 925:../Libraries/StdPeripheralDriver/src/stm32f10x_tim.c ****   *     @arg TIM_DMABase_CR, TIM_DMABase_CR2, TIM_DMABase_SMCR,
 926:../Libraries/StdPeripheralDriver/src/stm32f10x_tim.c ****   *          TIM_DMABase_DIER, TIM1_DMABase_SR, TIM_DMABase_EGR,
 927:../Libraries/StdPeripheralDriver/src/stm32f10x_tim.c ****   *          TIM_DMABase_CCMR1, TIM_DMABase_CCMR2, TIM_DMABase_CCER,
 928:../Libraries/StdPeripheralDriver/src/stm32f10x_tim.c ****   *          TIM_DMABase_CNT, TIM_DMABase_PSC, TIM_DMABase_ARR,
 929:../Libraries/StdPeripheralDriver/src/stm32f10x_tim.c ****   *          TIM_DMABase_RCR, TIM_DMABase_CCR1, TIM_DMABase_CCR2,
 930:../Libraries/StdPeripheralDriver/src/stm32f10x_tim.c ****   *          TIM_DMABase_CCR3, TIM_DMABase_CCR4, TIM_DMABase_BDTR,
 931:../Libraries/StdPeripheralDriver/src/stm32f10x_tim.c ****   *          TIM_DMABase_DCR.
 932:../Libraries/StdPeripheralDriver/src/stm32f10x_tim.c ****   * @param  TIM_DMABurstLength: DMA Burst length.
 933:../Libraries/StdPeripheralDriver/src/stm32f10x_tim.c ****   *   This parameter can be one value between:
 934:../Libraries/StdPeripheralDriver/src/stm32f10x_tim.c ****   *   TIM_DMABurstLength_1Transfer and TIM_DMABurstLength_18Transfers.
 935:../Libraries/StdPeripheralDriver/src/stm32f10x_tim.c ****   * @retval None
 936:../Libraries/StdPeripheralDriver/src/stm32f10x_tim.c ****   */
 937:../Libraries/StdPeripheralDriver/src/stm32f10x_tim.c **** void TIM_DMAConfig(TIM_TypeDef* TIMx, uint16_t TIM_DMABase, uint16_t TIM_DMABurstLength)
 938:../Libraries/StdPeripheralDriver/src/stm32f10x_tim.c **** {
 1876              		.loc 1 938 0
 1877              		.cfi_startproc
 1878              		@ args = 0, pretend = 0, frame = 8
 1879              		@ frame_needed = 1, uses_anonymous_args = 0
 1880              		@ link register save eliminated.
 1881 0000 80B4     		push	{r7}
 1882              		.cfi_def_cfa_offset 4
 1883              		.cfi_offset 7, -4
 1884 0002 83B0     		sub	sp, sp, #12
 1885              		.cfi_def_cfa_offset 16
 1886 0004 00AF     		add	r7, sp, #0
 1887              		.cfi_def_cfa_register 7
 1888 0006 7860     		str	r0, [r7, #4]
 1889 0008 1346     		mov	r3, r2
 1890 000a 0A46     		mov	r2, r1	@ movhi
 1891 000c 7A80     		strh	r2, [r7, #2]	@ movhi
 1892 000e 3B80     		strh	r3, [r7]	@ movhi
 939:../Libraries/StdPeripheralDriver/src/stm32f10x_tim.c ****   /* Check the parameters */
 940:../Libraries/StdPeripheralDriver/src/stm32f10x_tim.c ****   assert_param(IS_TIM_LIST4_PERIPH(TIMx));
 941:../Libraries/StdPeripheralDriver/src/stm32f10x_tim.c ****   assert_param(IS_TIM_DMA_BASE(TIM_DMABase));
 942:../Libraries/StdPeripheralDriver/src/stm32f10x_tim.c ****   assert_param(IS_TIM_DMA_LENGTH(TIM_DMABurstLength));
 943:../Libraries/StdPeripheralDriver/src/stm32f10x_tim.c ****   /* Set the DMA Base and the DMA Burst Length */
 944:../Libraries/StdPeripheralDriver/src/stm32f10x_tim.c ****   TIMx->DCR = TIM_DMABase | TIM_DMABurstLength;
 1893              		.loc 1 944 0
 1894 0010 7A88     		ldrh	r2, [r7, #2]	@ movhi
 1895 0012 3B88     		ldrh	r3, [r7]	@ movhi
 1896 0014 1343     		orrs	r3, r3, r2
 1897 0016 9AB2     		uxth	r2, r3
 1898 0018 7B68     		ldr	r3, [r7, #4]
 1899 001a A3F84820 		strh	r2, [r3, #72]	@ movhi
 945:../Libraries/StdPeripheralDriver/src/stm32f10x_tim.c **** }
 1900              		.loc 1 945 0
 1901 001e 0C37     		adds	r7, r7, #12
 1902 0020 BD46     		mov	sp, r7
 1903              		@ sp needed
 1904 0022 5DF8047B 		ldr	r7, [sp], #4
 1905 0026 7047     		bx	lr
 1906              		.cfi_endproc
 1907              	.LFE46:
 1909              		.section	.text.TIM_DMACmd,"ax",%progbits
 1910              		.align	2
 1911              		.global	TIM_DMACmd
 1912              		.thumb
 1913              		.thumb_func
 1915              	TIM_DMACmd:
 1916              	.LFB47:
 946:../Libraries/StdPeripheralDriver/src/stm32f10x_tim.c **** 
 947:../Libraries/StdPeripheralDriver/src/stm32f10x_tim.c **** /**
 948:../Libraries/StdPeripheralDriver/src/stm32f10x_tim.c ****   * @brief  Enables or disables the TIMx's DMA Requests.
 949:../Libraries/StdPeripheralDriver/src/stm32f10x_tim.c ****   * @param  TIMx: where x can be  1, 2, 3, 4, 5, 6, 7, 8, 15, 16 or 17 
 950:../Libraries/StdPeripheralDriver/src/stm32f10x_tim.c ****   *   to select the TIM peripheral. 
 951:../Libraries/StdPeripheralDriver/src/stm32f10x_tim.c ****   * @param  TIM_DMASource: specifies the DMA Request sources.
 952:../Libraries/StdPeripheralDriver/src/stm32f10x_tim.c ****   *   This parameter can be any combination of the following values:
 953:../Libraries/StdPeripheralDriver/src/stm32f10x_tim.c ****   *     @arg TIM_DMA_Update: TIM update Interrupt source
 954:../Libraries/StdPeripheralDriver/src/stm32f10x_tim.c ****   *     @arg TIM_DMA_CC1: TIM Capture Compare 1 DMA source
 955:../Libraries/StdPeripheralDriver/src/stm32f10x_tim.c ****   *     @arg TIM_DMA_CC2: TIM Capture Compare 2 DMA source
 956:../Libraries/StdPeripheralDriver/src/stm32f10x_tim.c ****   *     @arg TIM_DMA_CC3: TIM Capture Compare 3 DMA source
 957:../Libraries/StdPeripheralDriver/src/stm32f10x_tim.c ****   *     @arg TIM_DMA_CC4: TIM Capture Compare 4 DMA source
 958:../Libraries/StdPeripheralDriver/src/stm32f10x_tim.c ****   *     @arg TIM_DMA_COM: TIM Commutation DMA source
 959:../Libraries/StdPeripheralDriver/src/stm32f10x_tim.c ****   *     @arg TIM_DMA_Trigger: TIM Trigger DMA source
 960:../Libraries/StdPeripheralDriver/src/stm32f10x_tim.c ****   * @param  NewState: new state of the DMA Request sources.
 961:../Libraries/StdPeripheralDriver/src/stm32f10x_tim.c ****   *   This parameter can be: ENABLE or DISABLE.
 962:../Libraries/StdPeripheralDriver/src/stm32f10x_tim.c ****   * @retval None
 963:../Libraries/StdPeripheralDriver/src/stm32f10x_tim.c ****   */
 964:../Libraries/StdPeripheralDriver/src/stm32f10x_tim.c **** void TIM_DMACmd(TIM_TypeDef* TIMx, uint16_t TIM_DMASource, FunctionalState NewState)
 965:../Libraries/StdPeripheralDriver/src/stm32f10x_tim.c **** { 
 1917              		.loc 1 965 0
 1918              		.cfi_startproc
 1919              		@ args = 0, pretend = 0, frame = 8
 1920              		@ frame_needed = 1, uses_anonymous_args = 0
 1921              		@ link register save eliminated.
 1922 0000 80B4     		push	{r7}
 1923              		.cfi_def_cfa_offset 4
 1924              		.cfi_offset 7, -4
 1925 0002 83B0     		sub	sp, sp, #12
 1926              		.cfi_def_cfa_offset 16
 1927 0004 00AF     		add	r7, sp, #0
 1928              		.cfi_def_cfa_register 7
 1929 0006 7860     		str	r0, [r7, #4]
 1930 0008 1346     		mov	r3, r2
 1931 000a 0A46     		mov	r2, r1	@ movhi
 1932 000c 7A80     		strh	r2, [r7, #2]	@ movhi
 1933 000e 7B70     		strb	r3, [r7, #1]
 966:../Libraries/StdPeripheralDriver/src/stm32f10x_tim.c ****   /* Check the parameters */
 967:../Libraries/StdPeripheralDriver/src/stm32f10x_tim.c ****   assert_param(IS_TIM_LIST9_PERIPH(TIMx));
 968:../Libraries/StdPeripheralDriver/src/stm32f10x_tim.c ****   assert_param(IS_TIM_DMA_SOURCE(TIM_DMASource));
 969:../Libraries/StdPeripheralDriver/src/stm32f10x_tim.c ****   assert_param(IS_FUNCTIONAL_STATE(NewState));
 970:../Libraries/StdPeripheralDriver/src/stm32f10x_tim.c ****   
 971:../Libraries/StdPeripheralDriver/src/stm32f10x_tim.c ****   if (NewState != DISABLE)
 1934              		.loc 1 971 0
 1935 0010 7B78     		ldrb	r3, [r7, #1]	@ zero_extendqisi2
 1936 0012 002B     		cmp	r3, #0
 1937 0014 08D0     		beq	.L66
 972:../Libraries/StdPeripheralDriver/src/stm32f10x_tim.c ****   {
 973:../Libraries/StdPeripheralDriver/src/stm32f10x_tim.c ****     /* Enable the DMA sources */
 974:../Libraries/StdPeripheralDriver/src/stm32f10x_tim.c ****     TIMx->DIER |= TIM_DMASource; 
 1938              		.loc 1 974 0
 1939 0016 7B68     		ldr	r3, [r7, #4]
 1940 0018 9B89     		ldrh	r3, [r3, #12]	@ movhi
 1941 001a 9AB2     		uxth	r2, r3
 1942 001c 7B88     		ldrh	r3, [r7, #2]	@ movhi
 1943 001e 1343     		orrs	r3, r3, r2
 1944 0020 9AB2     		uxth	r2, r3
 1945 0022 7B68     		ldr	r3, [r7, #4]
 1946 0024 9A81     		strh	r2, [r3, #12]	@ movhi
 1947 0026 09E0     		b	.L65
 1948              	.L66:
 975:../Libraries/StdPeripheralDriver/src/stm32f10x_tim.c ****   }
 976:../Libraries/StdPeripheralDriver/src/stm32f10x_tim.c ****   else
 977:../Libraries/StdPeripheralDriver/src/stm32f10x_tim.c ****   {
 978:../Libraries/StdPeripheralDriver/src/stm32f10x_tim.c ****     /* Disable the DMA sources */
 979:../Libraries/StdPeripheralDriver/src/stm32f10x_tim.c ****     TIMx->DIER &= (uint16_t)~TIM_DMASource;
 1949              		.loc 1 979 0
 1950 0028 7B68     		ldr	r3, [r7, #4]
 1951 002a 9B89     		ldrh	r3, [r3, #12]	@ movhi
 1952 002c 9AB2     		uxth	r2, r3
 1953 002e 7B88     		ldrh	r3, [r7, #2]	@ movhi
 1954 0030 DB43     		mvns	r3, r3
 1955 0032 9BB2     		uxth	r3, r3
 1956 0034 1340     		ands	r3, r3, r2
 1957 0036 9AB2     		uxth	r2, r3
 1958 0038 7B68     		ldr	r3, [r7, #4]
 1959 003a 9A81     		strh	r2, [r3, #12]	@ movhi
 1960              	.L65:
 980:../Libraries/StdPeripheralDriver/src/stm32f10x_tim.c ****   }
 981:../Libraries/StdPeripheralDriver/src/stm32f10x_tim.c **** }
 1961              		.loc 1 981 0
 1962 003c 0C37     		adds	r7, r7, #12
 1963 003e BD46     		mov	sp, r7
 1964              		@ sp needed
 1965 0040 5DF8047B 		ldr	r7, [sp], #4
 1966 0044 7047     		bx	lr
 1967              		.cfi_endproc
 1968              	.LFE47:
 1970 0046 00BF     		.section	.text.TIM_InternalClockConfig,"ax",%progbits
 1971              		.align	2
 1972              		.global	TIM_InternalClockConfig
 1973              		.thumb
 1974              		.thumb_func
 1976              	TIM_InternalClockConfig:
 1977              	.LFB48:
 982:../Libraries/StdPeripheralDriver/src/stm32f10x_tim.c **** 
 983:../Libraries/StdPeripheralDriver/src/stm32f10x_tim.c **** /**
 984:../Libraries/StdPeripheralDriver/src/stm32f10x_tim.c ****   * @brief  Configures the TIMx internal Clock
 985:../Libraries/StdPeripheralDriver/src/stm32f10x_tim.c ****   * @param  TIMx: where x can be  1, 2, 3, 4, 5, 8, 9, 12 or 15
 986:../Libraries/StdPeripheralDriver/src/stm32f10x_tim.c ****   *         to select the TIM peripheral.
 987:../Libraries/StdPeripheralDriver/src/stm32f10x_tim.c ****   * @retval None
 988:../Libraries/StdPeripheralDriver/src/stm32f10x_tim.c ****   */
 989:../Libraries/StdPeripheralDriver/src/stm32f10x_tim.c **** void TIM_InternalClockConfig(TIM_TypeDef* TIMx)
 990:../Libraries/StdPeripheralDriver/src/stm32f10x_tim.c **** {
 1978              		.loc 1 990 0
 1979              		.cfi_startproc
 1980              		@ args = 0, pretend = 0, frame = 8
 1981              		@ frame_needed = 1, uses_anonymous_args = 0
 1982              		@ link register save eliminated.
 1983 0000 80B4     		push	{r7}
 1984              		.cfi_def_cfa_offset 4
 1985              		.cfi_offset 7, -4
 1986 0002 83B0     		sub	sp, sp, #12
 1987              		.cfi_def_cfa_offset 16
 1988 0004 00AF     		add	r7, sp, #0
 1989              		.cfi_def_cfa_register 7
 1990 0006 7860     		str	r0, [r7, #4]
 991:../Libraries/StdPeripheralDriver/src/stm32f10x_tim.c ****   /* Check the parameters */
 992:../Libraries/StdPeripheralDriver/src/stm32f10x_tim.c ****   assert_param(IS_TIM_LIST6_PERIPH(TIMx));
 993:../Libraries/StdPeripheralDriver/src/stm32f10x_tim.c ****   /* Disable slave mode to clock the prescaler directly with the internal clock */
 994:../Libraries/StdPeripheralDriver/src/stm32f10x_tim.c ****   TIMx->SMCR &=  (uint16_t)(~((uint16_t)TIM_SMCR_SMS));
 1991              		.loc 1 994 0
 1992 0008 7B68     		ldr	r3, [r7, #4]
 1993 000a 1B89     		ldrh	r3, [r3, #8]	@ movhi
 1994 000c 9BB2     		uxth	r3, r3
 1995 000e 23F00703 		bic	r3, r3, #7
 1996 0012 9AB2     		uxth	r2, r3
 1997 0014 7B68     		ldr	r3, [r7, #4]
 1998 0016 1A81     		strh	r2, [r3, #8]	@ movhi
 995:../Libraries/StdPeripheralDriver/src/stm32f10x_tim.c **** }
 1999              		.loc 1 995 0
 2000 0018 0C37     		adds	r7, r7, #12
 2001 001a BD46     		mov	sp, r7
 2002              		@ sp needed
 2003 001c 5DF8047B 		ldr	r7, [sp], #4
 2004 0020 7047     		bx	lr
 2005              		.cfi_endproc
 2006              	.LFE48:
 2008 0022 00BF     		.section	.text.TIM_ITRxExternalClockConfig,"ax",%progbits
 2009              		.align	2
 2010              		.global	TIM_ITRxExternalClockConfig
 2011              		.thumb
 2012              		.thumb_func
 2014              	TIM_ITRxExternalClockConfig:
 2015              	.LFB49:
 996:../Libraries/StdPeripheralDriver/src/stm32f10x_tim.c **** 
 997:../Libraries/StdPeripheralDriver/src/stm32f10x_tim.c **** /**
 998:../Libraries/StdPeripheralDriver/src/stm32f10x_tim.c ****   * @brief  Configures the TIMx Internal Trigger as External Clock
 999:../Libraries/StdPeripheralDriver/src/stm32f10x_tim.c ****   * @param  TIMx: where x can be  1, 2, 3, 4, 5, 9, 12 or 15 to select the TIM peripheral.
1000:../Libraries/StdPeripheralDriver/src/stm32f10x_tim.c ****   * @param  TIM_ITRSource: Trigger source.
1001:../Libraries/StdPeripheralDriver/src/stm32f10x_tim.c ****   *   This parameter can be one of the following values:
1002:../Libraries/StdPeripheralDriver/src/stm32f10x_tim.c ****   * @param  TIM_TS_ITR0: Internal Trigger 0
1003:../Libraries/StdPeripheralDriver/src/stm32f10x_tim.c ****   * @param  TIM_TS_ITR1: Internal Trigger 1
1004:../Libraries/StdPeripheralDriver/src/stm32f10x_tim.c ****   * @param  TIM_TS_ITR2: Internal Trigger 2
1005:../Libraries/StdPeripheralDriver/src/stm32f10x_tim.c ****   * @param  TIM_TS_ITR3: Internal Trigger 3
1006:../Libraries/StdPeripheralDriver/src/stm32f10x_tim.c ****   * @retval None
1007:../Libraries/StdPeripheralDriver/src/stm32f10x_tim.c ****   */
1008:../Libraries/StdPeripheralDriver/src/stm32f10x_tim.c **** void TIM_ITRxExternalClockConfig(TIM_TypeDef* TIMx, uint16_t TIM_InputTriggerSource)
1009:../Libraries/StdPeripheralDriver/src/stm32f10x_tim.c **** {
 2016              		.loc 1 1009 0
 2017              		.cfi_startproc
 2018              		@ args = 0, pretend = 0, frame = 8
 2019              		@ frame_needed = 1, uses_anonymous_args = 0
 2020 0000 80B5     		push	{r7, lr}
 2021              		.cfi_def_cfa_offset 8
 2022              		.cfi_offset 7, -8
 2023              		.cfi_offset 14, -4
 2024 0002 82B0     		sub	sp, sp, #8
 2025              		.cfi_def_cfa_offset 16
 2026 0004 00AF     		add	r7, sp, #0
 2027              		.cfi_def_cfa_register 7
 2028 0006 7860     		str	r0, [r7, #4]
 2029 0008 0B46     		mov	r3, r1
 2030 000a 7B80     		strh	r3, [r7, #2]	@ movhi
1010:../Libraries/StdPeripheralDriver/src/stm32f10x_tim.c ****   /* Check the parameters */
1011:../Libraries/StdPeripheralDriver/src/stm32f10x_tim.c ****   assert_param(IS_TIM_LIST6_PERIPH(TIMx));
1012:../Libraries/StdPeripheralDriver/src/stm32f10x_tim.c ****   assert_param(IS_TIM_INTERNAL_TRIGGER_SELECTION(TIM_InputTriggerSource));
1013:../Libraries/StdPeripheralDriver/src/stm32f10x_tim.c ****   /* Select the Internal Trigger */
1014:../Libraries/StdPeripheralDriver/src/stm32f10x_tim.c ****   TIM_SelectInputTrigger(TIMx, TIM_InputTriggerSource);
 2031              		.loc 1 1014 0
 2032 000c 7B88     		ldrh	r3, [r7, #2]
 2033 000e 7868     		ldr	r0, [r7, #4]
 2034 0010 1946     		mov	r1, r3
 2035 0012 FFF7FEFF 		bl	TIM_SelectInputTrigger
1015:../Libraries/StdPeripheralDriver/src/stm32f10x_tim.c ****   /* Select the External clock mode1 */
1016:../Libraries/StdPeripheralDriver/src/stm32f10x_tim.c ****   TIMx->SMCR |= TIM_SlaveMode_External1;
 2036              		.loc 1 1016 0
 2037 0016 7B68     		ldr	r3, [r7, #4]
 2038 0018 1B89     		ldrh	r3, [r3, #8]	@ movhi
 2039 001a 9BB2     		uxth	r3, r3
 2040 001c 43F00703 		orr	r3, r3, #7
 2041 0020 9AB2     		uxth	r2, r3
 2042 0022 7B68     		ldr	r3, [r7, #4]
 2043 0024 1A81     		strh	r2, [r3, #8]	@ movhi
1017:../Libraries/StdPeripheralDriver/src/stm32f10x_tim.c **** }
 2044              		.loc 1 1017 0
 2045 0026 0837     		adds	r7, r7, #8
 2046 0028 BD46     		mov	sp, r7
 2047              		@ sp needed
 2048 002a 80BD     		pop	{r7, pc}
 2049              		.cfi_endproc
 2050              	.LFE49:
 2052              		.section	.text.TIM_TIxExternalClockConfig,"ax",%progbits
 2053              		.align	2
 2054              		.global	TIM_TIxExternalClockConfig
 2055              		.thumb
 2056              		.thumb_func
 2058              	TIM_TIxExternalClockConfig:
 2059              	.LFB50:
1018:../Libraries/StdPeripheralDriver/src/stm32f10x_tim.c **** 
1019:../Libraries/StdPeripheralDriver/src/stm32f10x_tim.c **** /**
1020:../Libraries/StdPeripheralDriver/src/stm32f10x_tim.c ****   * @brief  Configures the TIMx Trigger as External Clock
1021:../Libraries/StdPeripheralDriver/src/stm32f10x_tim.c ****   * @param  TIMx: where x can be  1, 2, 3, 4, 5, 9, 12 or 15 to select the TIM peripheral.
1022:../Libraries/StdPeripheralDriver/src/stm32f10x_tim.c ****   * @param  TIM_TIxExternalCLKSource: Trigger source.
1023:../Libraries/StdPeripheralDriver/src/stm32f10x_tim.c ****   *   This parameter can be one of the following values:
1024:../Libraries/StdPeripheralDriver/src/stm32f10x_tim.c ****   *     @arg TIM_TIxExternalCLK1Source_TI1ED: TI1 Edge Detector
1025:../Libraries/StdPeripheralDriver/src/stm32f10x_tim.c ****   *     @arg TIM_TIxExternalCLK1Source_TI1: Filtered Timer Input 1
1026:../Libraries/StdPeripheralDriver/src/stm32f10x_tim.c ****   *     @arg TIM_TIxExternalCLK1Source_TI2: Filtered Timer Input 2
1027:../Libraries/StdPeripheralDriver/src/stm32f10x_tim.c ****   * @param  TIM_ICPolarity: specifies the TIx Polarity.
1028:../Libraries/StdPeripheralDriver/src/stm32f10x_tim.c ****   *   This parameter can be one of the following values:
1029:../Libraries/StdPeripheralDriver/src/stm32f10x_tim.c ****   *     @arg TIM_ICPolarity_Rising
1030:../Libraries/StdPeripheralDriver/src/stm32f10x_tim.c ****   *     @arg TIM_ICPolarity_Falling
1031:../Libraries/StdPeripheralDriver/src/stm32f10x_tim.c ****   * @param  ICFilter : specifies the filter value.
1032:../Libraries/StdPeripheralDriver/src/stm32f10x_tim.c ****   *   This parameter must be a value between 0x0 and 0xF.
1033:../Libraries/StdPeripheralDriver/src/stm32f10x_tim.c ****   * @retval None
1034:../Libraries/StdPeripheralDriver/src/stm32f10x_tim.c ****   */
1035:../Libraries/StdPeripheralDriver/src/stm32f10x_tim.c **** void TIM_TIxExternalClockConfig(TIM_TypeDef* TIMx, uint16_t TIM_TIxExternalCLKSource,
1036:../Libraries/StdPeripheralDriver/src/stm32f10x_tim.c ****                                 uint16_t TIM_ICPolarity, uint16_t ICFilter)
1037:../Libraries/StdPeripheralDriver/src/stm32f10x_tim.c **** {
 2060              		.loc 1 1037 0
 2061              		.cfi_startproc
 2062              		@ args = 0, pretend = 0, frame = 16
 2063              		@ frame_needed = 1, uses_anonymous_args = 0
 2064 0000 80B5     		push	{r7, lr}
 2065              		.cfi_def_cfa_offset 8
 2066              		.cfi_offset 7, -8
 2067              		.cfi_offset 14, -4
 2068 0002 84B0     		sub	sp, sp, #16
 2069              		.cfi_def_cfa_offset 24
 2070 0004 00AF     		add	r7, sp, #0
 2071              		.cfi_def_cfa_register 7
 2072 0006 F860     		str	r0, [r7, #12]
 2073 0008 7981     		strh	r1, [r7, #10]	@ movhi
 2074 000a 3A81     		strh	r2, [r7, #8]	@ movhi
 2075 000c FB80     		strh	r3, [r7, #6]	@ movhi
1038:../Libraries/StdPeripheralDriver/src/stm32f10x_tim.c ****   /* Check the parameters */
1039:../Libraries/StdPeripheralDriver/src/stm32f10x_tim.c ****   assert_param(IS_TIM_LIST6_PERIPH(TIMx));
1040:../Libraries/StdPeripheralDriver/src/stm32f10x_tim.c ****   assert_param(IS_TIM_TIXCLK_SOURCE(TIM_TIxExternalCLKSource));
1041:../Libraries/StdPeripheralDriver/src/stm32f10x_tim.c ****   assert_param(IS_TIM_IC_POLARITY(TIM_ICPolarity));
1042:../Libraries/StdPeripheralDriver/src/stm32f10x_tim.c ****   assert_param(IS_TIM_IC_FILTER(ICFilter));
1043:../Libraries/StdPeripheralDriver/src/stm32f10x_tim.c ****   /* Configure the Timer Input Clock Source */
1044:../Libraries/StdPeripheralDriver/src/stm32f10x_tim.c ****   if (TIM_TIxExternalCLKSource == TIM_TIxExternalCLK1Source_TI2)
 2076              		.loc 1 1044 0
 2077 000e 7B89     		ldrh	r3, [r7, #10]
 2078 0010 602B     		cmp	r3, #96
 2079 0012 07D1     		bne	.L71
1045:../Libraries/StdPeripheralDriver/src/stm32f10x_tim.c ****   {
1046:../Libraries/StdPeripheralDriver/src/stm32f10x_tim.c ****     TI2_Config(TIMx, TIM_ICPolarity, TIM_ICSelection_DirectTI, ICFilter);
 2080              		.loc 1 1046 0
 2081 0014 3A89     		ldrh	r2, [r7, #8]
 2082 0016 FB88     		ldrh	r3, [r7, #6]
 2083 0018 F868     		ldr	r0, [r7, #12]
 2084 001a 1146     		mov	r1, r2
 2085 001c 0122     		movs	r2, #1
 2086 001e FFF7FEFF 		bl	TI2_Config
 2087 0022 06E0     		b	.L72
 2088              	.L71:
1047:../Libraries/StdPeripheralDriver/src/stm32f10x_tim.c ****   }
1048:../Libraries/StdPeripheralDriver/src/stm32f10x_tim.c ****   else
1049:../Libraries/StdPeripheralDriver/src/stm32f10x_tim.c ****   {
1050:../Libraries/StdPeripheralDriver/src/stm32f10x_tim.c ****     TI1_Config(TIMx, TIM_ICPolarity, TIM_ICSelection_DirectTI, ICFilter);
 2089              		.loc 1 1050 0
 2090 0024 3A89     		ldrh	r2, [r7, #8]
 2091 0026 FB88     		ldrh	r3, [r7, #6]
 2092 0028 F868     		ldr	r0, [r7, #12]
 2093 002a 1146     		mov	r1, r2
 2094 002c 0122     		movs	r2, #1
 2095 002e FFF7FEFF 		bl	TI1_Config
 2096              	.L72:
1051:../Libraries/StdPeripheralDriver/src/stm32f10x_tim.c ****   }
1052:../Libraries/StdPeripheralDriver/src/stm32f10x_tim.c ****   /* Select the Trigger source */
1053:../Libraries/StdPeripheralDriver/src/stm32f10x_tim.c ****   TIM_SelectInputTrigger(TIMx, TIM_TIxExternalCLKSource);
 2097              		.loc 1 1053 0
 2098 0032 7B89     		ldrh	r3, [r7, #10]
 2099 0034 F868     		ldr	r0, [r7, #12]
 2100 0036 1946     		mov	r1, r3
 2101 0038 FFF7FEFF 		bl	TIM_SelectInputTrigger
1054:../Libraries/StdPeripheralDriver/src/stm32f10x_tim.c ****   /* Select the External clock mode1 */
1055:../Libraries/StdPeripheralDriver/src/stm32f10x_tim.c ****   TIMx->SMCR |= TIM_SlaveMode_External1;
 2102              		.loc 1 1055 0
 2103 003c FB68     		ldr	r3, [r7, #12]
 2104 003e 1B89     		ldrh	r3, [r3, #8]	@ movhi
 2105 0040 9BB2     		uxth	r3, r3
 2106 0042 43F00703 		orr	r3, r3, #7
 2107 0046 9AB2     		uxth	r2, r3
 2108 0048 FB68     		ldr	r3, [r7, #12]
 2109 004a 1A81     		strh	r2, [r3, #8]	@ movhi
1056:../Libraries/StdPeripheralDriver/src/stm32f10x_tim.c **** }
 2110              		.loc 1 1056 0
 2111 004c 1037     		adds	r7, r7, #16
 2112 004e BD46     		mov	sp, r7
 2113              		@ sp needed
 2114 0050 80BD     		pop	{r7, pc}
 2115              		.cfi_endproc
 2116              	.LFE50:
 2118 0052 00BF     		.section	.text.TIM_ETRClockMode1Config,"ax",%progbits
 2119              		.align	2
 2120              		.global	TIM_ETRClockMode1Config
 2121              		.thumb
 2122              		.thumb_func
 2124              	TIM_ETRClockMode1Config:
 2125              	.LFB51:
1057:../Libraries/StdPeripheralDriver/src/stm32f10x_tim.c **** 
1058:../Libraries/StdPeripheralDriver/src/stm32f10x_tim.c **** /**
1059:../Libraries/StdPeripheralDriver/src/stm32f10x_tim.c ****   * @brief  Configures the External clock Mode1
1060:../Libraries/StdPeripheralDriver/src/stm32f10x_tim.c ****   * @param  TIMx: where x can be  1, 2, 3, 4, 5 or 8 to select the TIM peripheral.
1061:../Libraries/StdPeripheralDriver/src/stm32f10x_tim.c ****   * @param  TIM_ExtTRGPrescaler: The external Trigger Prescaler.
1062:../Libraries/StdPeripheralDriver/src/stm32f10x_tim.c ****   *   This parameter can be one of the following values:
1063:../Libraries/StdPeripheralDriver/src/stm32f10x_tim.c ****   *     @arg TIM_ExtTRGPSC_OFF: ETRP Prescaler OFF.
1064:../Libraries/StdPeripheralDriver/src/stm32f10x_tim.c ****   *     @arg TIM_ExtTRGPSC_DIV2: ETRP frequency divided by 2.
1065:../Libraries/StdPeripheralDriver/src/stm32f10x_tim.c ****   *     @arg TIM_ExtTRGPSC_DIV4: ETRP frequency divided by 4.
1066:../Libraries/StdPeripheralDriver/src/stm32f10x_tim.c ****   *     @arg TIM_ExtTRGPSC_DIV8: ETRP frequency divided by 8.
1067:../Libraries/StdPeripheralDriver/src/stm32f10x_tim.c ****   * @param  TIM_ExtTRGPolarity: The external Trigger Polarity.
1068:../Libraries/StdPeripheralDriver/src/stm32f10x_tim.c ****   *   This parameter can be one of the following values:
1069:../Libraries/StdPeripheralDriver/src/stm32f10x_tim.c ****   *     @arg TIM_ExtTRGPolarity_Inverted: active low or falling edge active.
1070:../Libraries/StdPeripheralDriver/src/stm32f10x_tim.c ****   *     @arg TIM_ExtTRGPolarity_NonInverted: active high or rising edge active.
1071:../Libraries/StdPeripheralDriver/src/stm32f10x_tim.c ****   * @param  ExtTRGFilter: External Trigger Filter.
1072:../Libraries/StdPeripheralDriver/src/stm32f10x_tim.c ****   *   This parameter must be a value between 0x00 and 0x0F
1073:../Libraries/StdPeripheralDriver/src/stm32f10x_tim.c ****   * @retval None
1074:../Libraries/StdPeripheralDriver/src/stm32f10x_tim.c ****   */
1075:../Libraries/StdPeripheralDriver/src/stm32f10x_tim.c **** void TIM_ETRClockMode1Config(TIM_TypeDef* TIMx, uint16_t TIM_ExtTRGPrescaler, uint16_t TIM_ExtTRGPo
1076:../Libraries/StdPeripheralDriver/src/stm32f10x_tim.c ****                              uint16_t ExtTRGFilter)
1077:../Libraries/StdPeripheralDriver/src/stm32f10x_tim.c **** {
 2126              		.loc 1 1077 0
 2127              		.cfi_startproc
 2128              		@ args = 0, pretend = 0, frame = 24
 2129              		@ frame_needed = 1, uses_anonymous_args = 0
 2130 0000 80B5     		push	{r7, lr}
 2131              		.cfi_def_cfa_offset 8
 2132              		.cfi_offset 7, -8
 2133              		.cfi_offset 14, -4
 2134 0002 86B0     		sub	sp, sp, #24
 2135              		.cfi_def_cfa_offset 32
 2136 0004 00AF     		add	r7, sp, #0
 2137              		.cfi_def_cfa_register 7
 2138 0006 F860     		str	r0, [r7, #12]
 2139 0008 7981     		strh	r1, [r7, #10]	@ movhi
 2140 000a 3A81     		strh	r2, [r7, #8]	@ movhi
 2141 000c FB80     		strh	r3, [r7, #6]	@ movhi
1078:../Libraries/StdPeripheralDriver/src/stm32f10x_tim.c ****   uint16_t tmpsmcr = 0;
 2142              		.loc 1 1078 0
 2143 000e 0023     		movs	r3, #0
 2144 0010 FB82     		strh	r3, [r7, #22]	@ movhi
1079:../Libraries/StdPeripheralDriver/src/stm32f10x_tim.c ****   /* Check the parameters */
1080:../Libraries/StdPeripheralDriver/src/stm32f10x_tim.c ****   assert_param(IS_TIM_LIST3_PERIPH(TIMx));
1081:../Libraries/StdPeripheralDriver/src/stm32f10x_tim.c ****   assert_param(IS_TIM_EXT_PRESCALER(TIM_ExtTRGPrescaler));
1082:../Libraries/StdPeripheralDriver/src/stm32f10x_tim.c ****   assert_param(IS_TIM_EXT_POLARITY(TIM_ExtTRGPolarity));
1083:../Libraries/StdPeripheralDriver/src/stm32f10x_tim.c ****   assert_param(IS_TIM_EXT_FILTER(ExtTRGFilter));
1084:../Libraries/StdPeripheralDriver/src/stm32f10x_tim.c ****   /* Configure the ETR Clock source */
1085:../Libraries/StdPeripheralDriver/src/stm32f10x_tim.c ****   TIM_ETRConfig(TIMx, TIM_ExtTRGPrescaler, TIM_ExtTRGPolarity, ExtTRGFilter);
 2145              		.loc 1 1085 0
 2146 0012 7989     		ldrh	r1, [r7, #10]
 2147 0014 3A89     		ldrh	r2, [r7, #8]
 2148 0016 FB88     		ldrh	r3, [r7, #6]
 2149 0018 F868     		ldr	r0, [r7, #12]
 2150 001a FFF7FEFF 		bl	TIM_ETRConfig
1086:../Libraries/StdPeripheralDriver/src/stm32f10x_tim.c ****   
1087:../Libraries/StdPeripheralDriver/src/stm32f10x_tim.c ****   /* Get the TIMx SMCR register value */
1088:../Libraries/StdPeripheralDriver/src/stm32f10x_tim.c ****   tmpsmcr = TIMx->SMCR;
 2151              		.loc 1 1088 0
 2152 001e FB68     		ldr	r3, [r7, #12]
 2153 0020 1B89     		ldrh	r3, [r3, #8]	@ movhi
 2154 0022 FB82     		strh	r3, [r7, #22]	@ movhi
1089:../Libraries/StdPeripheralDriver/src/stm32f10x_tim.c ****   /* Reset the SMS Bits */
1090:../Libraries/StdPeripheralDriver/src/stm32f10x_tim.c ****   tmpsmcr &= (uint16_t)(~((uint16_t)TIM_SMCR_SMS));
 2155              		.loc 1 1090 0
 2156 0024 FB8A     		ldrh	r3, [r7, #22]	@ movhi
 2157 0026 23F00703 		bic	r3, r3, #7
 2158 002a FB82     		strh	r3, [r7, #22]	@ movhi
1091:../Libraries/StdPeripheralDriver/src/stm32f10x_tim.c ****   /* Select the External clock mode1 */
1092:../Libraries/StdPeripheralDriver/src/stm32f10x_tim.c ****   tmpsmcr |= TIM_SlaveMode_External1;
 2159              		.loc 1 1092 0
 2160 002c FB8A     		ldrh	r3, [r7, #22]	@ movhi
 2161 002e 43F00703 		orr	r3, r3, #7
 2162 0032 FB82     		strh	r3, [r7, #22]	@ movhi
1093:../Libraries/StdPeripheralDriver/src/stm32f10x_tim.c ****   /* Select the Trigger selection : ETRF */
1094:../Libraries/StdPeripheralDriver/src/stm32f10x_tim.c ****   tmpsmcr &= (uint16_t)(~((uint16_t)TIM_SMCR_TS));
 2163              		.loc 1 1094 0
 2164 0034 FB8A     		ldrh	r3, [r7, #22]	@ movhi
 2165 0036 23F07003 		bic	r3, r3, #112
 2166 003a FB82     		strh	r3, [r7, #22]	@ movhi
1095:../Libraries/StdPeripheralDriver/src/stm32f10x_tim.c ****   tmpsmcr |= TIM_TS_ETRF;
 2167              		.loc 1 1095 0
 2168 003c FB8A     		ldrh	r3, [r7, #22]	@ movhi
 2169 003e 43F07003 		orr	r3, r3, #112
 2170 0042 FB82     		strh	r3, [r7, #22]	@ movhi
1096:../Libraries/StdPeripheralDriver/src/stm32f10x_tim.c ****   /* Write to TIMx SMCR */
1097:../Libraries/StdPeripheralDriver/src/stm32f10x_tim.c ****   TIMx->SMCR = tmpsmcr;
 2171              		.loc 1 1097 0
 2172 0044 FB68     		ldr	r3, [r7, #12]
 2173 0046 FA8A     		ldrh	r2, [r7, #22]	@ movhi
 2174 0048 1A81     		strh	r2, [r3, #8]	@ movhi
1098:../Libraries/StdPeripheralDriver/src/stm32f10x_tim.c **** }
 2175              		.loc 1 1098 0
 2176 004a 1837     		adds	r7, r7, #24
 2177 004c BD46     		mov	sp, r7
 2178              		@ sp needed
 2179 004e 80BD     		pop	{r7, pc}
 2180              		.cfi_endproc
 2181              	.LFE51:
 2183              		.section	.text.TIM_ETRClockMode2Config,"ax",%progbits
 2184              		.align	2
 2185              		.global	TIM_ETRClockMode2Config
 2186              		.thumb
 2187              		.thumb_func
 2189              	TIM_ETRClockMode2Config:
 2190              	.LFB52:
1099:../Libraries/StdPeripheralDriver/src/stm32f10x_tim.c **** 
1100:../Libraries/StdPeripheralDriver/src/stm32f10x_tim.c **** /**
1101:../Libraries/StdPeripheralDriver/src/stm32f10x_tim.c ****   * @brief  Configures the External clock Mode2
1102:../Libraries/StdPeripheralDriver/src/stm32f10x_tim.c ****   * @param  TIMx: where x can be  1, 2, 3, 4, 5 or 8 to select the TIM peripheral.
1103:../Libraries/StdPeripheralDriver/src/stm32f10x_tim.c ****   * @param  TIM_ExtTRGPrescaler: The external Trigger Prescaler.
1104:../Libraries/StdPeripheralDriver/src/stm32f10x_tim.c ****   *   This parameter can be one of the following values:
1105:../Libraries/StdPeripheralDriver/src/stm32f10x_tim.c ****   *     @arg TIM_ExtTRGPSC_OFF: ETRP Prescaler OFF.
1106:../Libraries/StdPeripheralDriver/src/stm32f10x_tim.c ****   *     @arg TIM_ExtTRGPSC_DIV2: ETRP frequency divided by 2.
1107:../Libraries/StdPeripheralDriver/src/stm32f10x_tim.c ****   *     @arg TIM_ExtTRGPSC_DIV4: ETRP frequency divided by 4.
1108:../Libraries/StdPeripheralDriver/src/stm32f10x_tim.c ****   *     @arg TIM_ExtTRGPSC_DIV8: ETRP frequency divided by 8.
1109:../Libraries/StdPeripheralDriver/src/stm32f10x_tim.c ****   * @param  TIM_ExtTRGPolarity: The external Trigger Polarity.
1110:../Libraries/StdPeripheralDriver/src/stm32f10x_tim.c ****   *   This parameter can be one of the following values:
1111:../Libraries/StdPeripheralDriver/src/stm32f10x_tim.c ****   *     @arg TIM_ExtTRGPolarity_Inverted: active low or falling edge active.
1112:../Libraries/StdPeripheralDriver/src/stm32f10x_tim.c ****   *     @arg TIM_ExtTRGPolarity_NonInverted: active high or rising edge active.
1113:../Libraries/StdPeripheralDriver/src/stm32f10x_tim.c ****   * @param  ExtTRGFilter: External Trigger Filter.
1114:../Libraries/StdPeripheralDriver/src/stm32f10x_tim.c ****   *   This parameter must be a value between 0x00 and 0x0F
1115:../Libraries/StdPeripheralDriver/src/stm32f10x_tim.c ****   * @retval None
1116:../Libraries/StdPeripheralDriver/src/stm32f10x_tim.c ****   */
1117:../Libraries/StdPeripheralDriver/src/stm32f10x_tim.c **** void TIM_ETRClockMode2Config(TIM_TypeDef* TIMx, uint16_t TIM_ExtTRGPrescaler, 
1118:../Libraries/StdPeripheralDriver/src/stm32f10x_tim.c ****                              uint16_t TIM_ExtTRGPolarity, uint16_t ExtTRGFilter)
1119:../Libraries/StdPeripheralDriver/src/stm32f10x_tim.c **** {
 2191              		.loc 1 1119 0
 2192              		.cfi_startproc
 2193              		@ args = 0, pretend = 0, frame = 16
 2194              		@ frame_needed = 1, uses_anonymous_args = 0
 2195 0000 80B5     		push	{r7, lr}
 2196              		.cfi_def_cfa_offset 8
 2197              		.cfi_offset 7, -8
 2198              		.cfi_offset 14, -4
 2199 0002 84B0     		sub	sp, sp, #16
 2200              		.cfi_def_cfa_offset 24
 2201 0004 00AF     		add	r7, sp, #0
 2202              		.cfi_def_cfa_register 7
 2203 0006 F860     		str	r0, [r7, #12]
 2204 0008 7981     		strh	r1, [r7, #10]	@ movhi
 2205 000a 3A81     		strh	r2, [r7, #8]	@ movhi
 2206 000c FB80     		strh	r3, [r7, #6]	@ movhi
1120:../Libraries/StdPeripheralDriver/src/stm32f10x_tim.c ****   /* Check the parameters */
1121:../Libraries/StdPeripheralDriver/src/stm32f10x_tim.c ****   assert_param(IS_TIM_LIST3_PERIPH(TIMx));
1122:../Libraries/StdPeripheralDriver/src/stm32f10x_tim.c ****   assert_param(IS_TIM_EXT_PRESCALER(TIM_ExtTRGPrescaler));
1123:../Libraries/StdPeripheralDriver/src/stm32f10x_tim.c ****   assert_param(IS_TIM_EXT_POLARITY(TIM_ExtTRGPolarity));
1124:../Libraries/StdPeripheralDriver/src/stm32f10x_tim.c ****   assert_param(IS_TIM_EXT_FILTER(ExtTRGFilter));
1125:../Libraries/StdPeripheralDriver/src/stm32f10x_tim.c ****   /* Configure the ETR Clock source */
1126:../Libraries/StdPeripheralDriver/src/stm32f10x_tim.c ****   TIM_ETRConfig(TIMx, TIM_ExtTRGPrescaler, TIM_ExtTRGPolarity, ExtTRGFilter);
 2207              		.loc 1 1126 0
 2208 000e 7989     		ldrh	r1, [r7, #10]
 2209 0010 3A89     		ldrh	r2, [r7, #8]
 2210 0012 FB88     		ldrh	r3, [r7, #6]
 2211 0014 F868     		ldr	r0, [r7, #12]
 2212 0016 FFF7FEFF 		bl	TIM_ETRConfig
1127:../Libraries/StdPeripheralDriver/src/stm32f10x_tim.c ****   /* Enable the External clock mode2 */
1128:../Libraries/StdPeripheralDriver/src/stm32f10x_tim.c ****   TIMx->SMCR |= TIM_SMCR_ECE;
 2213              		.loc 1 1128 0
 2214 001a FB68     		ldr	r3, [r7, #12]
 2215 001c 1B89     		ldrh	r3, [r3, #8]	@ movhi
 2216 001e 9BB2     		uxth	r3, r3
 2217 0020 43F48043 		orr	r3, r3, #16384
 2218 0024 9AB2     		uxth	r2, r3
 2219 0026 FB68     		ldr	r3, [r7, #12]
 2220 0028 1A81     		strh	r2, [r3, #8]	@ movhi
1129:../Libraries/StdPeripheralDriver/src/stm32f10x_tim.c **** }
 2221              		.loc 1 1129 0
 2222 002a 1037     		adds	r7, r7, #16
 2223 002c BD46     		mov	sp, r7
 2224              		@ sp needed
 2225 002e 80BD     		pop	{r7, pc}
 2226              		.cfi_endproc
 2227              	.LFE52:
 2229              		.section	.text.TIM_ETRConfig,"ax",%progbits
 2230              		.align	2
 2231              		.global	TIM_ETRConfig
 2232              		.thumb
 2233              		.thumb_func
 2235              	TIM_ETRConfig:
 2236              	.LFB53:
1130:../Libraries/StdPeripheralDriver/src/stm32f10x_tim.c **** 
1131:../Libraries/StdPeripheralDriver/src/stm32f10x_tim.c **** /**
1132:../Libraries/StdPeripheralDriver/src/stm32f10x_tim.c ****   * @brief  Configures the TIMx External Trigger (ETR).
1133:../Libraries/StdPeripheralDriver/src/stm32f10x_tim.c ****   * @param  TIMx: where x can be  1, 2, 3, 4, 5 or 8 to select the TIM peripheral.
1134:../Libraries/StdPeripheralDriver/src/stm32f10x_tim.c ****   * @param  TIM_ExtTRGPrescaler: The external Trigger Prescaler.
1135:../Libraries/StdPeripheralDriver/src/stm32f10x_tim.c ****   *   This parameter can be one of the following values:
1136:../Libraries/StdPeripheralDriver/src/stm32f10x_tim.c ****   *     @arg TIM_ExtTRGPSC_OFF: ETRP Prescaler OFF.
1137:../Libraries/StdPeripheralDriver/src/stm32f10x_tim.c ****   *     @arg TIM_ExtTRGPSC_DIV2: ETRP frequency divided by 2.
1138:../Libraries/StdPeripheralDriver/src/stm32f10x_tim.c ****   *     @arg TIM_ExtTRGPSC_DIV4: ETRP frequency divided by 4.
1139:../Libraries/StdPeripheralDriver/src/stm32f10x_tim.c ****   *     @arg TIM_ExtTRGPSC_DIV8: ETRP frequency divided by 8.
1140:../Libraries/StdPeripheralDriver/src/stm32f10x_tim.c ****   * @param  TIM_ExtTRGPolarity: The external Trigger Polarity.
1141:../Libraries/StdPeripheralDriver/src/stm32f10x_tim.c ****   *   This parameter can be one of the following values:
1142:../Libraries/StdPeripheralDriver/src/stm32f10x_tim.c ****   *     @arg TIM_ExtTRGPolarity_Inverted: active low or falling edge active.
1143:../Libraries/StdPeripheralDriver/src/stm32f10x_tim.c ****   *     @arg TIM_ExtTRGPolarity_NonInverted: active high or rising edge active.
1144:../Libraries/StdPeripheralDriver/src/stm32f10x_tim.c ****   * @param  ExtTRGFilter: External Trigger Filter.
1145:../Libraries/StdPeripheralDriver/src/stm32f10x_tim.c ****   *   This parameter must be a value between 0x00 and 0x0F
1146:../Libraries/StdPeripheralDriver/src/stm32f10x_tim.c ****   * @retval None
1147:../Libraries/StdPeripheralDriver/src/stm32f10x_tim.c ****   */
1148:../Libraries/StdPeripheralDriver/src/stm32f10x_tim.c **** void TIM_ETRConfig(TIM_TypeDef* TIMx, uint16_t TIM_ExtTRGPrescaler, uint16_t TIM_ExtTRGPolarity,
1149:../Libraries/StdPeripheralDriver/src/stm32f10x_tim.c ****                    uint16_t ExtTRGFilter)
1150:../Libraries/StdPeripheralDriver/src/stm32f10x_tim.c **** {
 2237              		.loc 1 1150 0
 2238              		.cfi_startproc
 2239              		@ args = 0, pretend = 0, frame = 24
 2240              		@ frame_needed = 1, uses_anonymous_args = 0
 2241              		@ link register save eliminated.
 2242 0000 80B4     		push	{r7}
 2243              		.cfi_def_cfa_offset 4
 2244              		.cfi_offset 7, -4
 2245 0002 87B0     		sub	sp, sp, #28
 2246              		.cfi_def_cfa_offset 32
 2247 0004 00AF     		add	r7, sp, #0
 2248              		.cfi_def_cfa_register 7
 2249 0006 F860     		str	r0, [r7, #12]
 2250 0008 7981     		strh	r1, [r7, #10]	@ movhi
 2251 000a 3A81     		strh	r2, [r7, #8]	@ movhi
 2252 000c FB80     		strh	r3, [r7, #6]	@ movhi
1151:../Libraries/StdPeripheralDriver/src/stm32f10x_tim.c ****   uint16_t tmpsmcr = 0;
 2253              		.loc 1 1151 0
 2254 000e 0023     		movs	r3, #0
 2255 0010 FB82     		strh	r3, [r7, #22]	@ movhi
1152:../Libraries/StdPeripheralDriver/src/stm32f10x_tim.c ****   /* Check the parameters */
1153:../Libraries/StdPeripheralDriver/src/stm32f10x_tim.c ****   assert_param(IS_TIM_LIST3_PERIPH(TIMx));
1154:../Libraries/StdPeripheralDriver/src/stm32f10x_tim.c ****   assert_param(IS_TIM_EXT_PRESCALER(TIM_ExtTRGPrescaler));
1155:../Libraries/StdPeripheralDriver/src/stm32f10x_tim.c ****   assert_param(IS_TIM_EXT_POLARITY(TIM_ExtTRGPolarity));
1156:../Libraries/StdPeripheralDriver/src/stm32f10x_tim.c ****   assert_param(IS_TIM_EXT_FILTER(ExtTRGFilter));
1157:../Libraries/StdPeripheralDriver/src/stm32f10x_tim.c ****   tmpsmcr = TIMx->SMCR;
 2256              		.loc 1 1157 0
 2257 0012 FB68     		ldr	r3, [r7, #12]
 2258 0014 1B89     		ldrh	r3, [r3, #8]	@ movhi
 2259 0016 FB82     		strh	r3, [r7, #22]	@ movhi
1158:../Libraries/StdPeripheralDriver/src/stm32f10x_tim.c ****   /* Reset the ETR Bits */
1159:../Libraries/StdPeripheralDriver/src/stm32f10x_tim.c ****   tmpsmcr &= SMCR_ETR_Mask;
 2260              		.loc 1 1159 0
 2261 0018 FB8A     		ldrh	r3, [r7, #22]	@ movhi
 2262 001a DBB2     		uxtb	r3, r3
 2263 001c FB82     		strh	r3, [r7, #22]	@ movhi
1160:../Libraries/StdPeripheralDriver/src/stm32f10x_tim.c ****   /* Set the Prescaler, the Filter value and the Polarity */
1161:../Libraries/StdPeripheralDriver/src/stm32f10x_tim.c ****   tmpsmcr |= (uint16_t)(TIM_ExtTRGPrescaler | (uint16_t)(TIM_ExtTRGPolarity | (uint16_t)(ExtTRGFilt
 2264              		.loc 1 1161 0
 2265 001e FB88     		ldrh	r3, [r7, #6]	@ movhi
 2266 0020 1B02     		lsls	r3, r3, #8
 2267 0022 9AB2     		uxth	r2, r3
 2268 0024 3B89     		ldrh	r3, [r7, #8]	@ movhi
 2269 0026 1343     		orrs	r3, r3, r2
 2270 0028 9AB2     		uxth	r2, r3
 2271 002a 7B89     		ldrh	r3, [r7, #10]	@ movhi
 2272 002c 1343     		orrs	r3, r3, r2
 2273 002e 9AB2     		uxth	r2, r3
 2274 0030 FB8A     		ldrh	r3, [r7, #22]	@ movhi
 2275 0032 1343     		orrs	r3, r3, r2
 2276 0034 FB82     		strh	r3, [r7, #22]	@ movhi
1162:../Libraries/StdPeripheralDriver/src/stm32f10x_tim.c ****   /* Write to TIMx SMCR */
1163:../Libraries/StdPeripheralDriver/src/stm32f10x_tim.c ****   TIMx->SMCR = tmpsmcr;
 2277              		.loc 1 1163 0
 2278 0036 FB68     		ldr	r3, [r7, #12]
 2279 0038 FA8A     		ldrh	r2, [r7, #22]	@ movhi
 2280 003a 1A81     		strh	r2, [r3, #8]	@ movhi
1164:../Libraries/StdPeripheralDriver/src/stm32f10x_tim.c **** }
 2281              		.loc 1 1164 0
 2282 003c 1C37     		adds	r7, r7, #28
 2283 003e BD46     		mov	sp, r7
 2284              		@ sp needed
 2285 0040 5DF8047B 		ldr	r7, [sp], #4
 2286 0044 7047     		bx	lr
 2287              		.cfi_endproc
 2288              	.LFE53:
 2290 0046 00BF     		.section	.text.TIM_PrescalerConfig,"ax",%progbits
 2291              		.align	2
 2292              		.global	TIM_PrescalerConfig
 2293              		.thumb
 2294              		.thumb_func
 2296              	TIM_PrescalerConfig:
 2297              	.LFB54:
1165:../Libraries/StdPeripheralDriver/src/stm32f10x_tim.c **** 
1166:../Libraries/StdPeripheralDriver/src/stm32f10x_tim.c **** /**
1167:../Libraries/StdPeripheralDriver/src/stm32f10x_tim.c ****   * @brief  Configures the TIMx Prescaler.
1168:../Libraries/StdPeripheralDriver/src/stm32f10x_tim.c ****   * @param  TIMx: where x can be 1 to 17 to select the TIM peripheral.
1169:../Libraries/StdPeripheralDriver/src/stm32f10x_tim.c ****   * @param  Prescaler: specifies the Prescaler Register value
1170:../Libraries/StdPeripheralDriver/src/stm32f10x_tim.c ****   * @param  TIM_PSCReloadMode: specifies the TIM Prescaler Reload mode
1171:../Libraries/StdPeripheralDriver/src/stm32f10x_tim.c ****   *   This parameter can be one of the following values:
1172:../Libraries/StdPeripheralDriver/src/stm32f10x_tim.c ****   *     @arg TIM_PSCReloadMode_Update: The Prescaler is loaded at the update event.
1173:../Libraries/StdPeripheralDriver/src/stm32f10x_tim.c ****   *     @arg TIM_PSCReloadMode_Immediate: The Prescaler is loaded immediately.
1174:../Libraries/StdPeripheralDriver/src/stm32f10x_tim.c ****   * @retval None
1175:../Libraries/StdPeripheralDriver/src/stm32f10x_tim.c ****   */
1176:../Libraries/StdPeripheralDriver/src/stm32f10x_tim.c **** void TIM_PrescalerConfig(TIM_TypeDef* TIMx, uint16_t Prescaler, uint16_t TIM_PSCReloadMode)
1177:../Libraries/StdPeripheralDriver/src/stm32f10x_tim.c **** {
 2298              		.loc 1 1177 0
 2299              		.cfi_startproc
 2300              		@ args = 0, pretend = 0, frame = 8
 2301              		@ frame_needed = 1, uses_anonymous_args = 0
 2302              		@ link register save eliminated.
 2303 0000 80B4     		push	{r7}
 2304              		.cfi_def_cfa_offset 4
 2305              		.cfi_offset 7, -4
 2306 0002 83B0     		sub	sp, sp, #12
 2307              		.cfi_def_cfa_offset 16
 2308 0004 00AF     		add	r7, sp, #0
 2309              		.cfi_def_cfa_register 7
 2310 0006 7860     		str	r0, [r7, #4]
 2311 0008 1346     		mov	r3, r2
 2312 000a 0A46     		mov	r2, r1	@ movhi
 2313 000c 7A80     		strh	r2, [r7, #2]	@ movhi
 2314 000e 3B80     		strh	r3, [r7]	@ movhi
1178:../Libraries/StdPeripheralDriver/src/stm32f10x_tim.c ****   /* Check the parameters */
1179:../Libraries/StdPeripheralDriver/src/stm32f10x_tim.c ****   assert_param(IS_TIM_ALL_PERIPH(TIMx));
1180:../Libraries/StdPeripheralDriver/src/stm32f10x_tim.c ****   assert_param(IS_TIM_PRESCALER_RELOAD(TIM_PSCReloadMode));
1181:../Libraries/StdPeripheralDriver/src/stm32f10x_tim.c ****   /* Set the Prescaler value */
1182:../Libraries/StdPeripheralDriver/src/stm32f10x_tim.c ****   TIMx->PSC = Prescaler;
 2315              		.loc 1 1182 0
 2316 0010 7B68     		ldr	r3, [r7, #4]
 2317 0012 7A88     		ldrh	r2, [r7, #2]	@ movhi
 2318 0014 1A85     		strh	r2, [r3, #40]	@ movhi
1183:../Libraries/StdPeripheralDriver/src/stm32f10x_tim.c ****   /* Set or reset the UG Bit */
1184:../Libraries/StdPeripheralDriver/src/stm32f10x_tim.c ****   TIMx->EGR = TIM_PSCReloadMode;
 2319              		.loc 1 1184 0
 2320 0016 7B68     		ldr	r3, [r7, #4]
 2321 0018 3A88     		ldrh	r2, [r7]	@ movhi
 2322 001a 9A82     		strh	r2, [r3, #20]	@ movhi
1185:../Libraries/StdPeripheralDriver/src/stm32f10x_tim.c **** }
 2323              		.loc 1 1185 0
 2324 001c 0C37     		adds	r7, r7, #12
 2325 001e BD46     		mov	sp, r7
 2326              		@ sp needed
 2327 0020 5DF8047B 		ldr	r7, [sp], #4
 2328 0024 7047     		bx	lr
 2329              		.cfi_endproc
 2330              	.LFE54:
 2332 0026 00BF     		.section	.text.TIM_CounterModeConfig,"ax",%progbits
 2333              		.align	2
 2334              		.global	TIM_CounterModeConfig
 2335              		.thumb
 2336              		.thumb_func
 2338              	TIM_CounterModeConfig:
 2339              	.LFB55:
1186:../Libraries/StdPeripheralDriver/src/stm32f10x_tim.c **** 
1187:../Libraries/StdPeripheralDriver/src/stm32f10x_tim.c **** /**
1188:../Libraries/StdPeripheralDriver/src/stm32f10x_tim.c ****   * @brief  Specifies the TIMx Counter Mode to be used.
1189:../Libraries/StdPeripheralDriver/src/stm32f10x_tim.c ****   * @param  TIMx: where x can be  1, 2, 3, 4, 5 or 8 to select the TIM peripheral.
1190:../Libraries/StdPeripheralDriver/src/stm32f10x_tim.c ****   * @param  TIM_CounterMode: specifies the Counter Mode to be used
1191:../Libraries/StdPeripheralDriver/src/stm32f10x_tim.c ****   *   This parameter can be one of the following values:
1192:../Libraries/StdPeripheralDriver/src/stm32f10x_tim.c ****   *     @arg TIM_CounterMode_Up: TIM Up Counting Mode
1193:../Libraries/StdPeripheralDriver/src/stm32f10x_tim.c ****   *     @arg TIM_CounterMode_Down: TIM Down Counting Mode
1194:../Libraries/StdPeripheralDriver/src/stm32f10x_tim.c ****   *     @arg TIM_CounterMode_CenterAligned1: TIM Center Aligned Mode1
1195:../Libraries/StdPeripheralDriver/src/stm32f10x_tim.c ****   *     @arg TIM_CounterMode_CenterAligned2: TIM Center Aligned Mode2
1196:../Libraries/StdPeripheralDriver/src/stm32f10x_tim.c ****   *     @arg TIM_CounterMode_CenterAligned3: TIM Center Aligned Mode3
1197:../Libraries/StdPeripheralDriver/src/stm32f10x_tim.c ****   * @retval None
1198:../Libraries/StdPeripheralDriver/src/stm32f10x_tim.c ****   */
1199:../Libraries/StdPeripheralDriver/src/stm32f10x_tim.c **** void TIM_CounterModeConfig(TIM_TypeDef* TIMx, uint16_t TIM_CounterMode)
1200:../Libraries/StdPeripheralDriver/src/stm32f10x_tim.c **** {
 2340              		.loc 1 1200 0
 2341              		.cfi_startproc
 2342              		@ args = 0, pretend = 0, frame = 16
 2343              		@ frame_needed = 1, uses_anonymous_args = 0
 2344              		@ link register save eliminated.
 2345 0000 80B4     		push	{r7}
 2346              		.cfi_def_cfa_offset 4
 2347              		.cfi_offset 7, -4
 2348 0002 85B0     		sub	sp, sp, #20
 2349              		.cfi_def_cfa_offset 24
 2350 0004 00AF     		add	r7, sp, #0
 2351              		.cfi_def_cfa_register 7
 2352 0006 7860     		str	r0, [r7, #4]
 2353 0008 0B46     		mov	r3, r1
 2354 000a 7B80     		strh	r3, [r7, #2]	@ movhi
1201:../Libraries/StdPeripheralDriver/src/stm32f10x_tim.c ****   uint16_t tmpcr1 = 0;
 2355              		.loc 1 1201 0
 2356 000c 0023     		movs	r3, #0
 2357 000e FB81     		strh	r3, [r7, #14]	@ movhi
1202:../Libraries/StdPeripheralDriver/src/stm32f10x_tim.c ****   /* Check the parameters */
1203:../Libraries/StdPeripheralDriver/src/stm32f10x_tim.c ****   assert_param(IS_TIM_LIST3_PERIPH(TIMx));
1204:../Libraries/StdPeripheralDriver/src/stm32f10x_tim.c ****   assert_param(IS_TIM_COUNTER_MODE(TIM_CounterMode));
1205:../Libraries/StdPeripheralDriver/src/stm32f10x_tim.c ****   tmpcr1 = TIMx->CR1;
 2358              		.loc 1 1205 0
 2359 0010 7B68     		ldr	r3, [r7, #4]
 2360 0012 1B88     		ldrh	r3, [r3]	@ movhi
 2361 0014 FB81     		strh	r3, [r7, #14]	@ movhi
1206:../Libraries/StdPeripheralDriver/src/stm32f10x_tim.c ****   /* Reset the CMS and DIR Bits */
1207:../Libraries/StdPeripheralDriver/src/stm32f10x_tim.c ****   tmpcr1 &= (uint16_t)(~((uint16_t)(TIM_CR1_DIR | TIM_CR1_CMS)));
 2362              		.loc 1 1207 0
 2363 0016 FB89     		ldrh	r3, [r7, #14]	@ movhi
 2364 0018 23F07003 		bic	r3, r3, #112
 2365 001c FB81     		strh	r3, [r7, #14]	@ movhi
1208:../Libraries/StdPeripheralDriver/src/stm32f10x_tim.c ****   /* Set the Counter Mode */
1209:../Libraries/StdPeripheralDriver/src/stm32f10x_tim.c ****   tmpcr1 |= TIM_CounterMode;
 2366              		.loc 1 1209 0
 2367 001e FA89     		ldrh	r2, [r7, #14]	@ movhi
 2368 0020 7B88     		ldrh	r3, [r7, #2]	@ movhi
 2369 0022 1343     		orrs	r3, r3, r2
 2370 0024 FB81     		strh	r3, [r7, #14]	@ movhi
1210:../Libraries/StdPeripheralDriver/src/stm32f10x_tim.c ****   /* Write to TIMx CR1 register */
1211:../Libraries/StdPeripheralDriver/src/stm32f10x_tim.c ****   TIMx->CR1 = tmpcr1;
 2371              		.loc 1 1211 0
 2372 0026 7B68     		ldr	r3, [r7, #4]
 2373 0028 FA89     		ldrh	r2, [r7, #14]	@ movhi
 2374 002a 1A80     		strh	r2, [r3]	@ movhi
1212:../Libraries/StdPeripheralDriver/src/stm32f10x_tim.c **** }
 2375              		.loc 1 1212 0
 2376 002c 1437     		adds	r7, r7, #20
 2377 002e BD46     		mov	sp, r7
 2378              		@ sp needed
 2379 0030 5DF8047B 		ldr	r7, [sp], #4
 2380 0034 7047     		bx	lr
 2381              		.cfi_endproc
 2382              	.LFE55:
 2384 0036 00BF     		.section	.text.TIM_SelectInputTrigger,"ax",%progbits
 2385              		.align	2
 2386              		.global	TIM_SelectInputTrigger
 2387              		.thumb
 2388              		.thumb_func
 2390              	TIM_SelectInputTrigger:
 2391              	.LFB56:
1213:../Libraries/StdPeripheralDriver/src/stm32f10x_tim.c **** 
1214:../Libraries/StdPeripheralDriver/src/stm32f10x_tim.c **** /**
1215:../Libraries/StdPeripheralDriver/src/stm32f10x_tim.c ****   * @brief  Selects the Input Trigger source
1216:../Libraries/StdPeripheralDriver/src/stm32f10x_tim.c ****   * @param  TIMx: where x can be  1, 2, 3, 4, 5, 8, 9, 12 or 15 to select the TIM peripheral.
1217:../Libraries/StdPeripheralDriver/src/stm32f10x_tim.c ****   * @param  TIM_InputTriggerSource: The Input Trigger source.
1218:../Libraries/StdPeripheralDriver/src/stm32f10x_tim.c ****   *   This parameter can be one of the following values:
1219:../Libraries/StdPeripheralDriver/src/stm32f10x_tim.c ****   *     @arg TIM_TS_ITR0: Internal Trigger 0
1220:../Libraries/StdPeripheralDriver/src/stm32f10x_tim.c ****   *     @arg TIM_TS_ITR1: Internal Trigger 1
1221:../Libraries/StdPeripheralDriver/src/stm32f10x_tim.c ****   *     @arg TIM_TS_ITR2: Internal Trigger 2
1222:../Libraries/StdPeripheralDriver/src/stm32f10x_tim.c ****   *     @arg TIM_TS_ITR3: Internal Trigger 3
1223:../Libraries/StdPeripheralDriver/src/stm32f10x_tim.c ****   *     @arg TIM_TS_TI1F_ED: TI1 Edge Detector
1224:../Libraries/StdPeripheralDriver/src/stm32f10x_tim.c ****   *     @arg TIM_TS_TI1FP1: Filtered Timer Input 1
1225:../Libraries/StdPeripheralDriver/src/stm32f10x_tim.c ****   *     @arg TIM_TS_TI2FP2: Filtered Timer Input 2
1226:../Libraries/StdPeripheralDriver/src/stm32f10x_tim.c ****   *     @arg TIM_TS_ETRF: External Trigger input
1227:../Libraries/StdPeripheralDriver/src/stm32f10x_tim.c ****   * @retval None
1228:../Libraries/StdPeripheralDriver/src/stm32f10x_tim.c ****   */
1229:../Libraries/StdPeripheralDriver/src/stm32f10x_tim.c **** void TIM_SelectInputTrigger(TIM_TypeDef* TIMx, uint16_t TIM_InputTriggerSource)
1230:../Libraries/StdPeripheralDriver/src/stm32f10x_tim.c **** {
 2392              		.loc 1 1230 0
 2393              		.cfi_startproc
 2394              		@ args = 0, pretend = 0, frame = 16
 2395              		@ frame_needed = 1, uses_anonymous_args = 0
 2396              		@ link register save eliminated.
 2397 0000 80B4     		push	{r7}
 2398              		.cfi_def_cfa_offset 4
 2399              		.cfi_offset 7, -4
 2400 0002 85B0     		sub	sp, sp, #20
 2401              		.cfi_def_cfa_offset 24
 2402 0004 00AF     		add	r7, sp, #0
 2403              		.cfi_def_cfa_register 7
 2404 0006 7860     		str	r0, [r7, #4]
 2405 0008 0B46     		mov	r3, r1
 2406 000a 7B80     		strh	r3, [r7, #2]	@ movhi
1231:../Libraries/StdPeripheralDriver/src/stm32f10x_tim.c ****   uint16_t tmpsmcr = 0;
 2407              		.loc 1 1231 0
 2408 000c 0023     		movs	r3, #0
 2409 000e FB81     		strh	r3, [r7, #14]	@ movhi
1232:../Libraries/StdPeripheralDriver/src/stm32f10x_tim.c ****   /* Check the parameters */
1233:../Libraries/StdPeripheralDriver/src/stm32f10x_tim.c ****   assert_param(IS_TIM_LIST6_PERIPH(TIMx));
1234:../Libraries/StdPeripheralDriver/src/stm32f10x_tim.c ****   assert_param(IS_TIM_TRIGGER_SELECTION(TIM_InputTriggerSource));
1235:../Libraries/StdPeripheralDriver/src/stm32f10x_tim.c ****   /* Get the TIMx SMCR register value */
1236:../Libraries/StdPeripheralDriver/src/stm32f10x_tim.c ****   tmpsmcr = TIMx->SMCR;
 2410              		.loc 1 1236 0
 2411 0010 7B68     		ldr	r3, [r7, #4]
 2412 0012 1B89     		ldrh	r3, [r3, #8]	@ movhi
 2413 0014 FB81     		strh	r3, [r7, #14]	@ movhi
1237:../Libraries/StdPeripheralDriver/src/stm32f10x_tim.c ****   /* Reset the TS Bits */
1238:../Libraries/StdPeripheralDriver/src/stm32f10x_tim.c ****   tmpsmcr &= (uint16_t)(~((uint16_t)TIM_SMCR_TS));
 2414              		.loc 1 1238 0
 2415 0016 FB89     		ldrh	r3, [r7, #14]	@ movhi
 2416 0018 23F07003 		bic	r3, r3, #112
 2417 001c FB81     		strh	r3, [r7, #14]	@ movhi
1239:../Libraries/StdPeripheralDriver/src/stm32f10x_tim.c ****   /* Set the Input Trigger source */
1240:../Libraries/StdPeripheralDriver/src/stm32f10x_tim.c ****   tmpsmcr |= TIM_InputTriggerSource;
 2418              		.loc 1 1240 0
 2419 001e FA89     		ldrh	r2, [r7, #14]	@ movhi
 2420 0020 7B88     		ldrh	r3, [r7, #2]	@ movhi
 2421 0022 1343     		orrs	r3, r3, r2
 2422 0024 FB81     		strh	r3, [r7, #14]	@ movhi
1241:../Libraries/StdPeripheralDriver/src/stm32f10x_tim.c ****   /* Write to TIMx SMCR */
1242:../Libraries/StdPeripheralDriver/src/stm32f10x_tim.c ****   TIMx->SMCR = tmpsmcr;
 2423              		.loc 1 1242 0
 2424 0026 7B68     		ldr	r3, [r7, #4]
 2425 0028 FA89     		ldrh	r2, [r7, #14]	@ movhi
 2426 002a 1A81     		strh	r2, [r3, #8]	@ movhi
1243:../Libraries/StdPeripheralDriver/src/stm32f10x_tim.c **** }
 2427              		.loc 1 1243 0
 2428 002c 1437     		adds	r7, r7, #20
 2429 002e BD46     		mov	sp, r7
 2430              		@ sp needed
 2431 0030 5DF8047B 		ldr	r7, [sp], #4
 2432 0034 7047     		bx	lr
 2433              		.cfi_endproc
 2434              	.LFE56:
 2436 0036 00BF     		.section	.text.TIM_EncoderInterfaceConfig,"ax",%progbits
 2437              		.align	2
 2438              		.global	TIM_EncoderInterfaceConfig
 2439              		.thumb
 2440              		.thumb_func
 2442              	TIM_EncoderInterfaceConfig:
 2443              	.LFB57:
1244:../Libraries/StdPeripheralDriver/src/stm32f10x_tim.c **** 
1245:../Libraries/StdPeripheralDriver/src/stm32f10x_tim.c **** /**
1246:../Libraries/StdPeripheralDriver/src/stm32f10x_tim.c ****   * @brief  Configures the TIMx Encoder Interface.
1247:../Libraries/StdPeripheralDriver/src/stm32f10x_tim.c ****   * @param  TIMx: where x can be  1, 2, 3, 4, 5 or 8 to select the TIM peripheral.
1248:../Libraries/StdPeripheralDriver/src/stm32f10x_tim.c ****   * @param  TIM_EncoderMode: specifies the TIMx Encoder Mode.
1249:../Libraries/StdPeripheralDriver/src/stm32f10x_tim.c ****   *   This parameter can be one of the following values:
1250:../Libraries/StdPeripheralDriver/src/stm32f10x_tim.c ****   *     @arg TIM_EncoderMode_TI1: Counter counts on TI1FP1 edge depending on TI2FP2 level.
1251:../Libraries/StdPeripheralDriver/src/stm32f10x_tim.c ****   *     @arg TIM_EncoderMode_TI2: Counter counts on TI2FP2 edge depending on TI1FP1 level.
1252:../Libraries/StdPeripheralDriver/src/stm32f10x_tim.c ****   *     @arg TIM_EncoderMode_TI12: Counter counts on both TI1FP1 and TI2FP2 edges depending
1253:../Libraries/StdPeripheralDriver/src/stm32f10x_tim.c ****   *                                on the level of the other input.
1254:../Libraries/StdPeripheralDriver/src/stm32f10x_tim.c ****   * @param  TIM_IC1Polarity: specifies the IC1 Polarity
1255:../Libraries/StdPeripheralDriver/src/stm32f10x_tim.c ****   *   This parameter can be one of the following values:
1256:../Libraries/StdPeripheralDriver/src/stm32f10x_tim.c ****   *     @arg TIM_ICPolarity_Falling: IC Falling edge.
1257:../Libraries/StdPeripheralDriver/src/stm32f10x_tim.c ****   *     @arg TIM_ICPolarity_Rising: IC Rising edge.
1258:../Libraries/StdPeripheralDriver/src/stm32f10x_tim.c ****   * @param  TIM_IC2Polarity: specifies the IC2 Polarity
1259:../Libraries/StdPeripheralDriver/src/stm32f10x_tim.c ****   *   This parameter can be one of the following values:
1260:../Libraries/StdPeripheralDriver/src/stm32f10x_tim.c ****   *     @arg TIM_ICPolarity_Falling: IC Falling edge.
1261:../Libraries/StdPeripheralDriver/src/stm32f10x_tim.c ****   *     @arg TIM_ICPolarity_Rising: IC Rising edge.
1262:../Libraries/StdPeripheralDriver/src/stm32f10x_tim.c ****   * @retval None
1263:../Libraries/StdPeripheralDriver/src/stm32f10x_tim.c ****   */
1264:../Libraries/StdPeripheralDriver/src/stm32f10x_tim.c **** void TIM_EncoderInterfaceConfig(TIM_TypeDef* TIMx, uint16_t TIM_EncoderMode,
1265:../Libraries/StdPeripheralDriver/src/stm32f10x_tim.c ****                                 uint16_t TIM_IC1Polarity, uint16_t TIM_IC2Polarity)
1266:../Libraries/StdPeripheralDriver/src/stm32f10x_tim.c **** {
 2444              		.loc 1 1266 0
 2445              		.cfi_startproc
 2446              		@ args = 0, pretend = 0, frame = 24
 2447              		@ frame_needed = 1, uses_anonymous_args = 0
 2448              		@ link register save eliminated.
 2449 0000 80B4     		push	{r7}
 2450              		.cfi_def_cfa_offset 4
 2451              		.cfi_offset 7, -4
 2452 0002 87B0     		sub	sp, sp, #28
 2453              		.cfi_def_cfa_offset 32
 2454 0004 00AF     		add	r7, sp, #0
 2455              		.cfi_def_cfa_register 7
 2456 0006 F860     		str	r0, [r7, #12]
 2457 0008 7981     		strh	r1, [r7, #10]	@ movhi
 2458 000a 3A81     		strh	r2, [r7, #8]	@ movhi
 2459 000c FB80     		strh	r3, [r7, #6]	@ movhi
1267:../Libraries/StdPeripheralDriver/src/stm32f10x_tim.c ****   uint16_t tmpsmcr = 0;
 2460              		.loc 1 1267 0
 2461 000e 0023     		movs	r3, #0
 2462 0010 FB82     		strh	r3, [r7, #22]	@ movhi
1268:../Libraries/StdPeripheralDriver/src/stm32f10x_tim.c ****   uint16_t tmpccmr1 = 0;
 2463              		.loc 1 1268 0
 2464 0012 0023     		movs	r3, #0
 2465 0014 BB82     		strh	r3, [r7, #20]	@ movhi
1269:../Libraries/StdPeripheralDriver/src/stm32f10x_tim.c ****   uint16_t tmpccer = 0;
 2466              		.loc 1 1269 0
 2467 0016 0023     		movs	r3, #0
 2468 0018 7B82     		strh	r3, [r7, #18]	@ movhi
1270:../Libraries/StdPeripheralDriver/src/stm32f10x_tim.c ****     
1271:../Libraries/StdPeripheralDriver/src/stm32f10x_tim.c ****   /* Check the parameters */
1272:../Libraries/StdPeripheralDriver/src/stm32f10x_tim.c ****   assert_param(IS_TIM_LIST5_PERIPH(TIMx));
1273:../Libraries/StdPeripheralDriver/src/stm32f10x_tim.c ****   assert_param(IS_TIM_ENCODER_MODE(TIM_EncoderMode));
1274:../Libraries/StdPeripheralDriver/src/stm32f10x_tim.c ****   assert_param(IS_TIM_IC_POLARITY(TIM_IC1Polarity));
1275:../Libraries/StdPeripheralDriver/src/stm32f10x_tim.c ****   assert_param(IS_TIM_IC_POLARITY(TIM_IC2Polarity));
1276:../Libraries/StdPeripheralDriver/src/stm32f10x_tim.c **** 
1277:../Libraries/StdPeripheralDriver/src/stm32f10x_tim.c ****   /* Get the TIMx SMCR register value */
1278:../Libraries/StdPeripheralDriver/src/stm32f10x_tim.c ****   tmpsmcr = TIMx->SMCR;
 2469              		.loc 1 1278 0
 2470 001a FB68     		ldr	r3, [r7, #12]
 2471 001c 1B89     		ldrh	r3, [r3, #8]	@ movhi
 2472 001e FB82     		strh	r3, [r7, #22]	@ movhi
1279:../Libraries/StdPeripheralDriver/src/stm32f10x_tim.c ****   
1280:../Libraries/StdPeripheralDriver/src/stm32f10x_tim.c ****   /* Get the TIMx CCMR1 register value */
1281:../Libraries/StdPeripheralDriver/src/stm32f10x_tim.c ****   tmpccmr1 = TIMx->CCMR1;
 2473              		.loc 1 1281 0
 2474 0020 FB68     		ldr	r3, [r7, #12]
 2475 0022 1B8B     		ldrh	r3, [r3, #24]	@ movhi
 2476 0024 BB82     		strh	r3, [r7, #20]	@ movhi
1282:../Libraries/StdPeripheralDriver/src/stm32f10x_tim.c ****   
1283:../Libraries/StdPeripheralDriver/src/stm32f10x_tim.c ****   /* Get the TIMx CCER register value */
1284:../Libraries/StdPeripheralDriver/src/stm32f10x_tim.c ****   tmpccer = TIMx->CCER;
 2477              		.loc 1 1284 0
 2478 0026 FB68     		ldr	r3, [r7, #12]
 2479 0028 1B8C     		ldrh	r3, [r3, #32]	@ movhi
 2480 002a 7B82     		strh	r3, [r7, #18]	@ movhi
1285:../Libraries/StdPeripheralDriver/src/stm32f10x_tim.c ****   
1286:../Libraries/StdPeripheralDriver/src/stm32f10x_tim.c ****   /* Set the encoder Mode */
1287:../Libraries/StdPeripheralDriver/src/stm32f10x_tim.c ****   tmpsmcr &= (uint16_t)(~((uint16_t)TIM_SMCR_SMS));
 2481              		.loc 1 1287 0
 2482 002c FB8A     		ldrh	r3, [r7, #22]	@ movhi
 2483 002e 23F00703 		bic	r3, r3, #7
 2484 0032 FB82     		strh	r3, [r7, #22]	@ movhi
1288:../Libraries/StdPeripheralDriver/src/stm32f10x_tim.c ****   tmpsmcr |= TIM_EncoderMode;
 2485              		.loc 1 1288 0
 2486 0034 FA8A     		ldrh	r2, [r7, #22]	@ movhi
 2487 0036 7B89     		ldrh	r3, [r7, #10]	@ movhi
 2488 0038 1343     		orrs	r3, r3, r2
 2489 003a FB82     		strh	r3, [r7, #22]	@ movhi
1289:../Libraries/StdPeripheralDriver/src/stm32f10x_tim.c ****   
1290:../Libraries/StdPeripheralDriver/src/stm32f10x_tim.c ****   /* Select the Capture Compare 1 and the Capture Compare 2 as input */
1291:../Libraries/StdPeripheralDriver/src/stm32f10x_tim.c ****   tmpccmr1 &= (uint16_t)(((uint16_t)~((uint16_t)TIM_CCMR1_CC1S)) & (uint16_t)(~((uint16_t)TIM_CCMR1
 2490              		.loc 1 1291 0
 2491 003c BB8A     		ldrh	r3, [r7, #20]	@ movhi
 2492 003e 23F44073 		bic	r3, r3, #768
 2493 0042 23F00303 		bic	r3, r3, #3
 2494 0046 BB82     		strh	r3, [r7, #20]	@ movhi
1292:../Libraries/StdPeripheralDriver/src/stm32f10x_tim.c ****   tmpccmr1 |= TIM_CCMR1_CC1S_0 | TIM_CCMR1_CC2S_0;
 2495              		.loc 1 1292 0
 2496 0048 BB8A     		ldrh	r3, [r7, #20]	@ movhi
 2497 004a 43F48073 		orr	r3, r3, #256
 2498 004e 43F00103 		orr	r3, r3, #1
 2499 0052 BB82     		strh	r3, [r7, #20]	@ movhi
1293:../Libraries/StdPeripheralDriver/src/stm32f10x_tim.c ****   
1294:../Libraries/StdPeripheralDriver/src/stm32f10x_tim.c ****   /* Set the TI1 and the TI2 Polarities */
1295:../Libraries/StdPeripheralDriver/src/stm32f10x_tim.c ****   tmpccer &= (uint16_t)(((uint16_t)~((uint16_t)TIM_CCER_CC1P)) & ((uint16_t)~((uint16_t)TIM_CCER_CC
 2500              		.loc 1 1295 0
 2501 0054 7B8A     		ldrh	r3, [r7, #18]	@ movhi
 2502 0056 23F02203 		bic	r3, r3, #34
 2503 005a 7B82     		strh	r3, [r7, #18]	@ movhi
1296:../Libraries/StdPeripheralDriver/src/stm32f10x_tim.c ****   tmpccer |= (uint16_t)(TIM_IC1Polarity | (uint16_t)(TIM_IC2Polarity << (uint16_t)4));
 2504              		.loc 1 1296 0
 2505 005c FB88     		ldrh	r3, [r7, #6]	@ movhi
 2506 005e 1B01     		lsls	r3, r3, #4
 2507 0060 9AB2     		uxth	r2, r3
 2508 0062 3B89     		ldrh	r3, [r7, #8]	@ movhi
 2509 0064 1343     		orrs	r3, r3, r2
 2510 0066 9AB2     		uxth	r2, r3
 2511 0068 7B8A     		ldrh	r3, [r7, #18]	@ movhi
 2512 006a 1343     		orrs	r3, r3, r2
 2513 006c 7B82     		strh	r3, [r7, #18]	@ movhi
1297:../Libraries/StdPeripheralDriver/src/stm32f10x_tim.c ****   
1298:../Libraries/StdPeripheralDriver/src/stm32f10x_tim.c ****   /* Write to TIMx SMCR */
1299:../Libraries/StdPeripheralDriver/src/stm32f10x_tim.c ****   TIMx->SMCR = tmpsmcr;
 2514              		.loc 1 1299 0
 2515 006e FB68     		ldr	r3, [r7, #12]
 2516 0070 FA8A     		ldrh	r2, [r7, #22]	@ movhi
 2517 0072 1A81     		strh	r2, [r3, #8]	@ movhi
1300:../Libraries/StdPeripheralDriver/src/stm32f10x_tim.c ****   /* Write to TIMx CCMR1 */
1301:../Libraries/StdPeripheralDriver/src/stm32f10x_tim.c ****   TIMx->CCMR1 = tmpccmr1;
 2518              		.loc 1 1301 0
 2519 0074 FB68     		ldr	r3, [r7, #12]
 2520 0076 BA8A     		ldrh	r2, [r7, #20]	@ movhi
 2521 0078 1A83     		strh	r2, [r3, #24]	@ movhi
1302:../Libraries/StdPeripheralDriver/src/stm32f10x_tim.c ****   /* Write to TIMx CCER */
1303:../Libraries/StdPeripheralDriver/src/stm32f10x_tim.c ****   TIMx->CCER = tmpccer;
 2522              		.loc 1 1303 0
 2523 007a FB68     		ldr	r3, [r7, #12]
 2524 007c 7A8A     		ldrh	r2, [r7, #18]	@ movhi
 2525 007e 1A84     		strh	r2, [r3, #32]	@ movhi
1304:../Libraries/StdPeripheralDriver/src/stm32f10x_tim.c **** }
 2526              		.loc 1 1304 0
 2527 0080 1C37     		adds	r7, r7, #28
 2528 0082 BD46     		mov	sp, r7
 2529              		@ sp needed
 2530 0084 5DF8047B 		ldr	r7, [sp], #4
 2531 0088 7047     		bx	lr
 2532              		.cfi_endproc
 2533              	.LFE57:
 2535 008a 00BF     		.section	.text.TIM_ForcedOC1Config,"ax",%progbits
 2536              		.align	2
 2537              		.global	TIM_ForcedOC1Config
 2538              		.thumb
 2539              		.thumb_func
 2541              	TIM_ForcedOC1Config:
 2542              	.LFB58:
1305:../Libraries/StdPeripheralDriver/src/stm32f10x_tim.c **** 
1306:../Libraries/StdPeripheralDriver/src/stm32f10x_tim.c **** /**
1307:../Libraries/StdPeripheralDriver/src/stm32f10x_tim.c ****   * @brief  Forces the TIMx output 1 waveform to active or inactive level.
1308:../Libraries/StdPeripheralDriver/src/stm32f10x_tim.c ****   * @param  TIMx: where x can be  1 to 17 except 6 and 7 to select the TIM peripheral.
1309:../Libraries/StdPeripheralDriver/src/stm32f10x_tim.c ****   * @param  TIM_ForcedAction: specifies the forced Action to be set to the output waveform.
1310:../Libraries/StdPeripheralDriver/src/stm32f10x_tim.c ****   *   This parameter can be one of the following values:
1311:../Libraries/StdPeripheralDriver/src/stm32f10x_tim.c ****   *     @arg TIM_ForcedAction_Active: Force active level on OC1REF
1312:../Libraries/StdPeripheralDriver/src/stm32f10x_tim.c ****   *     @arg TIM_ForcedAction_InActive: Force inactive level on OC1REF.
1313:../Libraries/StdPeripheralDriver/src/stm32f10x_tim.c ****   * @retval None
1314:../Libraries/StdPeripheralDriver/src/stm32f10x_tim.c ****   */
1315:../Libraries/StdPeripheralDriver/src/stm32f10x_tim.c **** void TIM_ForcedOC1Config(TIM_TypeDef* TIMx, uint16_t TIM_ForcedAction)
1316:../Libraries/StdPeripheralDriver/src/stm32f10x_tim.c **** {
 2543              		.loc 1 1316 0
 2544              		.cfi_startproc
 2545              		@ args = 0, pretend = 0, frame = 16
 2546              		@ frame_needed = 1, uses_anonymous_args = 0
 2547              		@ link register save eliminated.
 2548 0000 80B4     		push	{r7}
 2549              		.cfi_def_cfa_offset 4
 2550              		.cfi_offset 7, -4
 2551 0002 85B0     		sub	sp, sp, #20
 2552              		.cfi_def_cfa_offset 24
 2553 0004 00AF     		add	r7, sp, #0
 2554              		.cfi_def_cfa_register 7
 2555 0006 7860     		str	r0, [r7, #4]
 2556 0008 0B46     		mov	r3, r1
 2557 000a 7B80     		strh	r3, [r7, #2]	@ movhi
1317:../Libraries/StdPeripheralDriver/src/stm32f10x_tim.c ****   uint16_t tmpccmr1 = 0;
 2558              		.loc 1 1317 0
 2559 000c 0023     		movs	r3, #0
 2560 000e FB81     		strh	r3, [r7, #14]	@ movhi
1318:../Libraries/StdPeripheralDriver/src/stm32f10x_tim.c ****   /* Check the parameters */
1319:../Libraries/StdPeripheralDriver/src/stm32f10x_tim.c ****   assert_param(IS_TIM_LIST8_PERIPH(TIMx));
1320:../Libraries/StdPeripheralDriver/src/stm32f10x_tim.c ****   assert_param(IS_TIM_FORCED_ACTION(TIM_ForcedAction));
1321:../Libraries/StdPeripheralDriver/src/stm32f10x_tim.c ****   tmpccmr1 = TIMx->CCMR1;
 2561              		.loc 1 1321 0
 2562 0010 7B68     		ldr	r3, [r7, #4]
 2563 0012 1B8B     		ldrh	r3, [r3, #24]	@ movhi
 2564 0014 FB81     		strh	r3, [r7, #14]	@ movhi
1322:../Libraries/StdPeripheralDriver/src/stm32f10x_tim.c ****   /* Reset the OC1M Bits */
1323:../Libraries/StdPeripheralDriver/src/stm32f10x_tim.c ****   tmpccmr1 &= (uint16_t)~((uint16_t)TIM_CCMR1_OC1M);
 2565              		.loc 1 1323 0
 2566 0016 FB89     		ldrh	r3, [r7, #14]	@ movhi
 2567 0018 23F07003 		bic	r3, r3, #112
 2568 001c FB81     		strh	r3, [r7, #14]	@ movhi
1324:../Libraries/StdPeripheralDriver/src/stm32f10x_tim.c ****   /* Configure The Forced output Mode */
1325:../Libraries/StdPeripheralDriver/src/stm32f10x_tim.c ****   tmpccmr1 |= TIM_ForcedAction;
 2569              		.loc 1 1325 0
 2570 001e FA89     		ldrh	r2, [r7, #14]	@ movhi
 2571 0020 7B88     		ldrh	r3, [r7, #2]	@ movhi
 2572 0022 1343     		orrs	r3, r3, r2
 2573 0024 FB81     		strh	r3, [r7, #14]	@ movhi
1326:../Libraries/StdPeripheralDriver/src/stm32f10x_tim.c ****   /* Write to TIMx CCMR1 register */
1327:../Libraries/StdPeripheralDriver/src/stm32f10x_tim.c ****   TIMx->CCMR1 = tmpccmr1;
 2574              		.loc 1 1327 0
 2575 0026 7B68     		ldr	r3, [r7, #4]
 2576 0028 FA89     		ldrh	r2, [r7, #14]	@ movhi
 2577 002a 1A83     		strh	r2, [r3, #24]	@ movhi
1328:../Libraries/StdPeripheralDriver/src/stm32f10x_tim.c **** }
 2578              		.loc 1 1328 0
 2579 002c 1437     		adds	r7, r7, #20
 2580 002e BD46     		mov	sp, r7
 2581              		@ sp needed
 2582 0030 5DF8047B 		ldr	r7, [sp], #4
 2583 0034 7047     		bx	lr
 2584              		.cfi_endproc
 2585              	.LFE58:
 2587 0036 00BF     		.section	.text.TIM_ForcedOC2Config,"ax",%progbits
 2588              		.align	2
 2589              		.global	TIM_ForcedOC2Config
 2590              		.thumb
 2591              		.thumb_func
 2593              	TIM_ForcedOC2Config:
 2594              	.LFB59:
1329:../Libraries/StdPeripheralDriver/src/stm32f10x_tim.c **** 
1330:../Libraries/StdPeripheralDriver/src/stm32f10x_tim.c **** /**
1331:../Libraries/StdPeripheralDriver/src/stm32f10x_tim.c ****   * @brief  Forces the TIMx output 2 waveform to active or inactive level.
1332:../Libraries/StdPeripheralDriver/src/stm32f10x_tim.c ****   * @param  TIMx: where x can be  1, 2, 3, 4, 5, 8, 9, 12 or 15 to select the TIM peripheral.
1333:../Libraries/StdPeripheralDriver/src/stm32f10x_tim.c ****   * @param  TIM_ForcedAction: specifies the forced Action to be set to the output waveform.
1334:../Libraries/StdPeripheralDriver/src/stm32f10x_tim.c ****   *   This parameter can be one of the following values:
1335:../Libraries/StdPeripheralDriver/src/stm32f10x_tim.c ****   *     @arg TIM_ForcedAction_Active: Force active level on OC2REF
1336:../Libraries/StdPeripheralDriver/src/stm32f10x_tim.c ****   *     @arg TIM_ForcedAction_InActive: Force inactive level on OC2REF.
1337:../Libraries/StdPeripheralDriver/src/stm32f10x_tim.c ****   * @retval None
1338:../Libraries/StdPeripheralDriver/src/stm32f10x_tim.c ****   */
1339:../Libraries/StdPeripheralDriver/src/stm32f10x_tim.c **** void TIM_ForcedOC2Config(TIM_TypeDef* TIMx, uint16_t TIM_ForcedAction)
1340:../Libraries/StdPeripheralDriver/src/stm32f10x_tim.c **** {
 2595              		.loc 1 1340 0
 2596              		.cfi_startproc
 2597              		@ args = 0, pretend = 0, frame = 16
 2598              		@ frame_needed = 1, uses_anonymous_args = 0
 2599              		@ link register save eliminated.
 2600 0000 80B4     		push	{r7}
 2601              		.cfi_def_cfa_offset 4
 2602              		.cfi_offset 7, -4
 2603 0002 85B0     		sub	sp, sp, #20
 2604              		.cfi_def_cfa_offset 24
 2605 0004 00AF     		add	r7, sp, #0
 2606              		.cfi_def_cfa_register 7
 2607 0006 7860     		str	r0, [r7, #4]
 2608 0008 0B46     		mov	r3, r1
 2609 000a 7B80     		strh	r3, [r7, #2]	@ movhi
1341:../Libraries/StdPeripheralDriver/src/stm32f10x_tim.c ****   uint16_t tmpccmr1 = 0;
 2610              		.loc 1 1341 0
 2611 000c 0023     		movs	r3, #0
 2612 000e FB81     		strh	r3, [r7, #14]	@ movhi
1342:../Libraries/StdPeripheralDriver/src/stm32f10x_tim.c ****   /* Check the parameters */
1343:../Libraries/StdPeripheralDriver/src/stm32f10x_tim.c ****   assert_param(IS_TIM_LIST6_PERIPH(TIMx));
1344:../Libraries/StdPeripheralDriver/src/stm32f10x_tim.c ****   assert_param(IS_TIM_FORCED_ACTION(TIM_ForcedAction));
1345:../Libraries/StdPeripheralDriver/src/stm32f10x_tim.c ****   tmpccmr1 = TIMx->CCMR1;
 2613              		.loc 1 1345 0
 2614 0010 7B68     		ldr	r3, [r7, #4]
 2615 0012 1B8B     		ldrh	r3, [r3, #24]	@ movhi
 2616 0014 FB81     		strh	r3, [r7, #14]	@ movhi
1346:../Libraries/StdPeripheralDriver/src/stm32f10x_tim.c ****   /* Reset the OC2M Bits */
1347:../Libraries/StdPeripheralDriver/src/stm32f10x_tim.c ****   tmpccmr1 &= (uint16_t)~((uint16_t)TIM_CCMR1_OC2M);
 2617              		.loc 1 1347 0
 2618 0016 FB89     		ldrh	r3, [r7, #14]	@ movhi
 2619 0018 23F4E043 		bic	r3, r3, #28672
 2620 001c FB81     		strh	r3, [r7, #14]	@ movhi
1348:../Libraries/StdPeripheralDriver/src/stm32f10x_tim.c ****   /* Configure The Forced output Mode */
1349:../Libraries/StdPeripheralDriver/src/stm32f10x_tim.c ****   tmpccmr1 |= (uint16_t)(TIM_ForcedAction << 8);
 2621              		.loc 1 1349 0
 2622 001e 7B88     		ldrh	r3, [r7, #2]	@ movhi
 2623 0020 1B02     		lsls	r3, r3, #8
 2624 0022 9AB2     		uxth	r2, r3
 2625 0024 FB89     		ldrh	r3, [r7, #14]	@ movhi
 2626 0026 1343     		orrs	r3, r3, r2
 2627 0028 FB81     		strh	r3, [r7, #14]	@ movhi
1350:../Libraries/StdPeripheralDriver/src/stm32f10x_tim.c ****   /* Write to TIMx CCMR1 register */
1351:../Libraries/StdPeripheralDriver/src/stm32f10x_tim.c ****   TIMx->CCMR1 = tmpccmr1;
 2628              		.loc 1 1351 0
 2629 002a 7B68     		ldr	r3, [r7, #4]
 2630 002c FA89     		ldrh	r2, [r7, #14]	@ movhi
 2631 002e 1A83     		strh	r2, [r3, #24]	@ movhi
1352:../Libraries/StdPeripheralDriver/src/stm32f10x_tim.c **** }
 2632              		.loc 1 1352 0
 2633 0030 1437     		adds	r7, r7, #20
 2634 0032 BD46     		mov	sp, r7
 2635              		@ sp needed
 2636 0034 5DF8047B 		ldr	r7, [sp], #4
 2637 0038 7047     		bx	lr
 2638              		.cfi_endproc
 2639              	.LFE59:
 2641 003a 00BF     		.section	.text.TIM_ForcedOC3Config,"ax",%progbits
 2642              		.align	2
 2643              		.global	TIM_ForcedOC3Config
 2644              		.thumb
 2645              		.thumb_func
 2647              	TIM_ForcedOC3Config:
 2648              	.LFB60:
1353:../Libraries/StdPeripheralDriver/src/stm32f10x_tim.c **** 
1354:../Libraries/StdPeripheralDriver/src/stm32f10x_tim.c **** /**
1355:../Libraries/StdPeripheralDriver/src/stm32f10x_tim.c ****   * @brief  Forces the TIMx output 3 waveform to active or inactive level.
1356:../Libraries/StdPeripheralDriver/src/stm32f10x_tim.c ****   * @param  TIMx: where x can be  1, 2, 3, 4, 5 or 8 to select the TIM peripheral.
1357:../Libraries/StdPeripheralDriver/src/stm32f10x_tim.c ****   * @param  TIM_ForcedAction: specifies the forced Action to be set to the output waveform.
1358:../Libraries/StdPeripheralDriver/src/stm32f10x_tim.c ****   *   This parameter can be one of the following values:
1359:../Libraries/StdPeripheralDriver/src/stm32f10x_tim.c ****   *     @arg TIM_ForcedAction_Active: Force active level on OC3REF
1360:../Libraries/StdPeripheralDriver/src/stm32f10x_tim.c ****   *     @arg TIM_ForcedAction_InActive: Force inactive level on OC3REF.
1361:../Libraries/StdPeripheralDriver/src/stm32f10x_tim.c ****   * @retval None
1362:../Libraries/StdPeripheralDriver/src/stm32f10x_tim.c ****   */
1363:../Libraries/StdPeripheralDriver/src/stm32f10x_tim.c **** void TIM_ForcedOC3Config(TIM_TypeDef* TIMx, uint16_t TIM_ForcedAction)
1364:../Libraries/StdPeripheralDriver/src/stm32f10x_tim.c **** {
 2649              		.loc 1 1364 0
 2650              		.cfi_startproc
 2651              		@ args = 0, pretend = 0, frame = 16
 2652              		@ frame_needed = 1, uses_anonymous_args = 0
 2653              		@ link register save eliminated.
 2654 0000 80B4     		push	{r7}
 2655              		.cfi_def_cfa_offset 4
 2656              		.cfi_offset 7, -4
 2657 0002 85B0     		sub	sp, sp, #20
 2658              		.cfi_def_cfa_offset 24
 2659 0004 00AF     		add	r7, sp, #0
 2660              		.cfi_def_cfa_register 7
 2661 0006 7860     		str	r0, [r7, #4]
 2662 0008 0B46     		mov	r3, r1
 2663 000a 7B80     		strh	r3, [r7, #2]	@ movhi
1365:../Libraries/StdPeripheralDriver/src/stm32f10x_tim.c ****   uint16_t tmpccmr2 = 0;
 2664              		.loc 1 1365 0
 2665 000c 0023     		movs	r3, #0
 2666 000e FB81     		strh	r3, [r7, #14]	@ movhi
1366:../Libraries/StdPeripheralDriver/src/stm32f10x_tim.c ****   /* Check the parameters */
1367:../Libraries/StdPeripheralDriver/src/stm32f10x_tim.c ****   assert_param(IS_TIM_LIST3_PERIPH(TIMx));
1368:../Libraries/StdPeripheralDriver/src/stm32f10x_tim.c ****   assert_param(IS_TIM_FORCED_ACTION(TIM_ForcedAction));
1369:../Libraries/StdPeripheralDriver/src/stm32f10x_tim.c ****   tmpccmr2 = TIMx->CCMR2;
 2667              		.loc 1 1369 0
 2668 0010 7B68     		ldr	r3, [r7, #4]
 2669 0012 9B8B     		ldrh	r3, [r3, #28]	@ movhi
 2670 0014 FB81     		strh	r3, [r7, #14]	@ movhi
1370:../Libraries/StdPeripheralDriver/src/stm32f10x_tim.c ****   /* Reset the OC1M Bits */
1371:../Libraries/StdPeripheralDriver/src/stm32f10x_tim.c ****   tmpccmr2 &= (uint16_t)~((uint16_t)TIM_CCMR2_OC3M);
 2671              		.loc 1 1371 0
 2672 0016 FB89     		ldrh	r3, [r7, #14]	@ movhi
 2673 0018 23F07003 		bic	r3, r3, #112
 2674 001c FB81     		strh	r3, [r7, #14]	@ movhi
1372:../Libraries/StdPeripheralDriver/src/stm32f10x_tim.c ****   /* Configure The Forced output Mode */
1373:../Libraries/StdPeripheralDriver/src/stm32f10x_tim.c ****   tmpccmr2 |= TIM_ForcedAction;
 2675              		.loc 1 1373 0
 2676 001e FA89     		ldrh	r2, [r7, #14]	@ movhi
 2677 0020 7B88     		ldrh	r3, [r7, #2]	@ movhi
 2678 0022 1343     		orrs	r3, r3, r2
 2679 0024 FB81     		strh	r3, [r7, #14]	@ movhi
1374:../Libraries/StdPeripheralDriver/src/stm32f10x_tim.c ****   /* Write to TIMx CCMR2 register */
1375:../Libraries/StdPeripheralDriver/src/stm32f10x_tim.c ****   TIMx->CCMR2 = tmpccmr2;
 2680              		.loc 1 1375 0
 2681 0026 7B68     		ldr	r3, [r7, #4]
 2682 0028 FA89     		ldrh	r2, [r7, #14]	@ movhi
 2683 002a 9A83     		strh	r2, [r3, #28]	@ movhi
1376:../Libraries/StdPeripheralDriver/src/stm32f10x_tim.c **** }
 2684              		.loc 1 1376 0
 2685 002c 1437     		adds	r7, r7, #20
 2686 002e BD46     		mov	sp, r7
 2687              		@ sp needed
 2688 0030 5DF8047B 		ldr	r7, [sp], #4
 2689 0034 7047     		bx	lr
 2690              		.cfi_endproc
 2691              	.LFE60:
 2693 0036 00BF     		.section	.text.TIM_ForcedOC4Config,"ax",%progbits
 2694              		.align	2
 2695              		.global	TIM_ForcedOC4Config
 2696              		.thumb
 2697              		.thumb_func
 2699              	TIM_ForcedOC4Config:
 2700              	.LFB61:
1377:../Libraries/StdPeripheralDriver/src/stm32f10x_tim.c **** 
1378:../Libraries/StdPeripheralDriver/src/stm32f10x_tim.c **** /**
1379:../Libraries/StdPeripheralDriver/src/stm32f10x_tim.c ****   * @brief  Forces the TIMx output 4 waveform to active or inactive level.
1380:../Libraries/StdPeripheralDriver/src/stm32f10x_tim.c ****   * @param  TIMx: where x can be  1, 2, 3, 4, 5 or 8 to select the TIM peripheral.
1381:../Libraries/StdPeripheralDriver/src/stm32f10x_tim.c ****   * @param  TIM_ForcedAction: specifies the forced Action to be set to the output waveform.
1382:../Libraries/StdPeripheralDriver/src/stm32f10x_tim.c ****   *   This parameter can be one of the following values:
1383:../Libraries/StdPeripheralDriver/src/stm32f10x_tim.c ****   *     @arg TIM_ForcedAction_Active: Force active level on OC4REF
1384:../Libraries/StdPeripheralDriver/src/stm32f10x_tim.c ****   *     @arg TIM_ForcedAction_InActive: Force inactive level on OC4REF.
1385:../Libraries/StdPeripheralDriver/src/stm32f10x_tim.c ****   * @retval None
1386:../Libraries/StdPeripheralDriver/src/stm32f10x_tim.c ****   */
1387:../Libraries/StdPeripheralDriver/src/stm32f10x_tim.c **** void TIM_ForcedOC4Config(TIM_TypeDef* TIMx, uint16_t TIM_ForcedAction)
1388:../Libraries/StdPeripheralDriver/src/stm32f10x_tim.c **** {
 2701              		.loc 1 1388 0
 2702              		.cfi_startproc
 2703              		@ args = 0, pretend = 0, frame = 16
 2704              		@ frame_needed = 1, uses_anonymous_args = 0
 2705              		@ link register save eliminated.
 2706 0000 80B4     		push	{r7}
 2707              		.cfi_def_cfa_offset 4
 2708              		.cfi_offset 7, -4
 2709 0002 85B0     		sub	sp, sp, #20
 2710              		.cfi_def_cfa_offset 24
 2711 0004 00AF     		add	r7, sp, #0
 2712              		.cfi_def_cfa_register 7
 2713 0006 7860     		str	r0, [r7, #4]
 2714 0008 0B46     		mov	r3, r1
 2715 000a 7B80     		strh	r3, [r7, #2]	@ movhi
1389:../Libraries/StdPeripheralDriver/src/stm32f10x_tim.c ****   uint16_t tmpccmr2 = 0;
 2716              		.loc 1 1389 0
 2717 000c 0023     		movs	r3, #0
 2718 000e FB81     		strh	r3, [r7, #14]	@ movhi
1390:../Libraries/StdPeripheralDriver/src/stm32f10x_tim.c ****   /* Check the parameters */
1391:../Libraries/StdPeripheralDriver/src/stm32f10x_tim.c ****   assert_param(IS_TIM_LIST3_PERIPH(TIMx));
1392:../Libraries/StdPeripheralDriver/src/stm32f10x_tim.c ****   assert_param(IS_TIM_FORCED_ACTION(TIM_ForcedAction));
1393:../Libraries/StdPeripheralDriver/src/stm32f10x_tim.c ****   tmpccmr2 = TIMx->CCMR2;
 2719              		.loc 1 1393 0
 2720 0010 7B68     		ldr	r3, [r7, #4]
 2721 0012 9B8B     		ldrh	r3, [r3, #28]	@ movhi
 2722 0014 FB81     		strh	r3, [r7, #14]	@ movhi
1394:../Libraries/StdPeripheralDriver/src/stm32f10x_tim.c ****   /* Reset the OC2M Bits */
1395:../Libraries/StdPeripheralDriver/src/stm32f10x_tim.c ****   tmpccmr2 &= (uint16_t)~((uint16_t)TIM_CCMR2_OC4M);
 2723              		.loc 1 1395 0
 2724 0016 FB89     		ldrh	r3, [r7, #14]	@ movhi
 2725 0018 23F4E043 		bic	r3, r3, #28672
 2726 001c FB81     		strh	r3, [r7, #14]	@ movhi
1396:../Libraries/StdPeripheralDriver/src/stm32f10x_tim.c ****   /* Configure The Forced output Mode */
1397:../Libraries/StdPeripheralDriver/src/stm32f10x_tim.c ****   tmpccmr2 |= (uint16_t)(TIM_ForcedAction << 8);
 2727              		.loc 1 1397 0
 2728 001e 7B88     		ldrh	r3, [r7, #2]	@ movhi
 2729 0020 1B02     		lsls	r3, r3, #8
 2730 0022 9AB2     		uxth	r2, r3
 2731 0024 FB89     		ldrh	r3, [r7, #14]	@ movhi
 2732 0026 1343     		orrs	r3, r3, r2
 2733 0028 FB81     		strh	r3, [r7, #14]	@ movhi
1398:../Libraries/StdPeripheralDriver/src/stm32f10x_tim.c ****   /* Write to TIMx CCMR2 register */
1399:../Libraries/StdPeripheralDriver/src/stm32f10x_tim.c ****   TIMx->CCMR2 = tmpccmr2;
 2734              		.loc 1 1399 0
 2735 002a 7B68     		ldr	r3, [r7, #4]
 2736 002c FA89     		ldrh	r2, [r7, #14]	@ movhi
 2737 002e 9A83     		strh	r2, [r3, #28]	@ movhi
1400:../Libraries/StdPeripheralDriver/src/stm32f10x_tim.c **** }
 2738              		.loc 1 1400 0
 2739 0030 1437     		adds	r7, r7, #20
 2740 0032 BD46     		mov	sp, r7
 2741              		@ sp needed
 2742 0034 5DF8047B 		ldr	r7, [sp], #4
 2743 0038 7047     		bx	lr
 2744              		.cfi_endproc
 2745              	.LFE61:
 2747 003a 00BF     		.section	.text.TIM_ARRPreloadConfig,"ax",%progbits
 2748              		.align	2
 2749              		.global	TIM_ARRPreloadConfig
 2750              		.thumb
 2751              		.thumb_func
 2753              	TIM_ARRPreloadConfig:
 2754              	.LFB62:
1401:../Libraries/StdPeripheralDriver/src/stm32f10x_tim.c **** 
1402:../Libraries/StdPeripheralDriver/src/stm32f10x_tim.c **** /**
1403:../Libraries/StdPeripheralDriver/src/stm32f10x_tim.c ****   * @brief  Enables or disables TIMx peripheral Preload register on ARR.
1404:../Libraries/StdPeripheralDriver/src/stm32f10x_tim.c ****   * @param  TIMx: where x can be  1 to 17 to select the TIM peripheral.
1405:../Libraries/StdPeripheralDriver/src/stm32f10x_tim.c ****   * @param  NewState: new state of the TIMx peripheral Preload register
1406:../Libraries/StdPeripheralDriver/src/stm32f10x_tim.c ****   *   This parameter can be: ENABLE or DISABLE.
1407:../Libraries/StdPeripheralDriver/src/stm32f10x_tim.c ****   * @retval None
1408:../Libraries/StdPeripheralDriver/src/stm32f10x_tim.c ****   */
1409:../Libraries/StdPeripheralDriver/src/stm32f10x_tim.c **** void TIM_ARRPreloadConfig(TIM_TypeDef* TIMx, FunctionalState NewState)
1410:../Libraries/StdPeripheralDriver/src/stm32f10x_tim.c **** {
 2755              		.loc 1 1410 0
 2756              		.cfi_startproc
 2757              		@ args = 0, pretend = 0, frame = 8
 2758              		@ frame_needed = 1, uses_anonymous_args = 0
 2759              		@ link register save eliminated.
 2760 0000 80B4     		push	{r7}
 2761              		.cfi_def_cfa_offset 4
 2762              		.cfi_offset 7, -4
 2763 0002 83B0     		sub	sp, sp, #12
 2764              		.cfi_def_cfa_offset 16
 2765 0004 00AF     		add	r7, sp, #0
 2766              		.cfi_def_cfa_register 7
 2767 0006 7860     		str	r0, [r7, #4]
 2768 0008 0B46     		mov	r3, r1
 2769 000a FB70     		strb	r3, [r7, #3]
1411:../Libraries/StdPeripheralDriver/src/stm32f10x_tim.c ****   /* Check the parameters */
1412:../Libraries/StdPeripheralDriver/src/stm32f10x_tim.c ****   assert_param(IS_TIM_ALL_PERIPH(TIMx));
1413:../Libraries/StdPeripheralDriver/src/stm32f10x_tim.c ****   assert_param(IS_FUNCTIONAL_STATE(NewState));
1414:../Libraries/StdPeripheralDriver/src/stm32f10x_tim.c ****   if (NewState != DISABLE)
 2770              		.loc 1 1414 0
 2771 000c FB78     		ldrb	r3, [r7, #3]	@ zero_extendqisi2
 2772 000e 002B     		cmp	r3, #0
 2773 0010 08D0     		beq	.L85
1415:../Libraries/StdPeripheralDriver/src/stm32f10x_tim.c ****   {
1416:../Libraries/StdPeripheralDriver/src/stm32f10x_tim.c ****     /* Set the ARR Preload Bit */
1417:../Libraries/StdPeripheralDriver/src/stm32f10x_tim.c ****     TIMx->CR1 |= TIM_CR1_ARPE;
 2774              		.loc 1 1417 0
 2775 0012 7B68     		ldr	r3, [r7, #4]
 2776 0014 1B88     		ldrh	r3, [r3]	@ movhi
 2777 0016 9BB2     		uxth	r3, r3
 2778 0018 43F08003 		orr	r3, r3, #128
 2779 001c 9AB2     		uxth	r2, r3
 2780 001e 7B68     		ldr	r3, [r7, #4]
 2781 0020 1A80     		strh	r2, [r3]	@ movhi
 2782 0022 07E0     		b	.L84
 2783              	.L85:
1418:../Libraries/StdPeripheralDriver/src/stm32f10x_tim.c ****   }
1419:../Libraries/StdPeripheralDriver/src/stm32f10x_tim.c ****   else
1420:../Libraries/StdPeripheralDriver/src/stm32f10x_tim.c ****   {
1421:../Libraries/StdPeripheralDriver/src/stm32f10x_tim.c ****     /* Reset the ARR Preload Bit */
1422:../Libraries/StdPeripheralDriver/src/stm32f10x_tim.c ****     TIMx->CR1 &= (uint16_t)~((uint16_t)TIM_CR1_ARPE);
 2784              		.loc 1 1422 0
 2785 0024 7B68     		ldr	r3, [r7, #4]
 2786 0026 1B88     		ldrh	r3, [r3]	@ movhi
 2787 0028 9BB2     		uxth	r3, r3
 2788 002a 23F08003 		bic	r3, r3, #128
 2789 002e 9AB2     		uxth	r2, r3
 2790 0030 7B68     		ldr	r3, [r7, #4]
 2791 0032 1A80     		strh	r2, [r3]	@ movhi
 2792              	.L84:
1423:../Libraries/StdPeripheralDriver/src/stm32f10x_tim.c ****   }
1424:../Libraries/StdPeripheralDriver/src/stm32f10x_tim.c **** }
 2793              		.loc 1 1424 0
 2794 0034 0C37     		adds	r7, r7, #12
 2795 0036 BD46     		mov	sp, r7
 2796              		@ sp needed
 2797 0038 5DF8047B 		ldr	r7, [sp], #4
 2798 003c 7047     		bx	lr
 2799              		.cfi_endproc
 2800              	.LFE62:
 2802 003e 00BF     		.section	.text.TIM_SelectCOM,"ax",%progbits
 2803              		.align	2
 2804              		.global	TIM_SelectCOM
 2805              		.thumb
 2806              		.thumb_func
 2808              	TIM_SelectCOM:
 2809              	.LFB63:
1425:../Libraries/StdPeripheralDriver/src/stm32f10x_tim.c **** 
1426:../Libraries/StdPeripheralDriver/src/stm32f10x_tim.c **** /**
1427:../Libraries/StdPeripheralDriver/src/stm32f10x_tim.c ****   * @brief  Selects the TIM peripheral Commutation event.
1428:../Libraries/StdPeripheralDriver/src/stm32f10x_tim.c ****   * @param  TIMx: where x can be  1, 8, 15, 16 or 17 to select the TIMx peripheral
1429:../Libraries/StdPeripheralDriver/src/stm32f10x_tim.c ****   * @param  NewState: new state of the Commutation event.
1430:../Libraries/StdPeripheralDriver/src/stm32f10x_tim.c ****   *   This parameter can be: ENABLE or DISABLE.
1431:../Libraries/StdPeripheralDriver/src/stm32f10x_tim.c ****   * @retval None
1432:../Libraries/StdPeripheralDriver/src/stm32f10x_tim.c ****   */
1433:../Libraries/StdPeripheralDriver/src/stm32f10x_tim.c **** void TIM_SelectCOM(TIM_TypeDef* TIMx, FunctionalState NewState)
1434:../Libraries/StdPeripheralDriver/src/stm32f10x_tim.c **** {
 2810              		.loc 1 1434 0
 2811              		.cfi_startproc
 2812              		@ args = 0, pretend = 0, frame = 8
 2813              		@ frame_needed = 1, uses_anonymous_args = 0
 2814              		@ link register save eliminated.
 2815 0000 80B4     		push	{r7}
 2816              		.cfi_def_cfa_offset 4
 2817              		.cfi_offset 7, -4
 2818 0002 83B0     		sub	sp, sp, #12
 2819              		.cfi_def_cfa_offset 16
 2820 0004 00AF     		add	r7, sp, #0
 2821              		.cfi_def_cfa_register 7
 2822 0006 7860     		str	r0, [r7, #4]
 2823 0008 0B46     		mov	r3, r1
 2824 000a FB70     		strb	r3, [r7, #3]
1435:../Libraries/StdPeripheralDriver/src/stm32f10x_tim.c ****   /* Check the parameters */
1436:../Libraries/StdPeripheralDriver/src/stm32f10x_tim.c ****   assert_param(IS_TIM_LIST2_PERIPH(TIMx));
1437:../Libraries/StdPeripheralDriver/src/stm32f10x_tim.c ****   assert_param(IS_FUNCTIONAL_STATE(NewState));
1438:../Libraries/StdPeripheralDriver/src/stm32f10x_tim.c ****   if (NewState != DISABLE)
 2825              		.loc 1 1438 0
 2826 000c FB78     		ldrb	r3, [r7, #3]	@ zero_extendqisi2
 2827 000e 002B     		cmp	r3, #0
 2828 0010 08D0     		beq	.L88
1439:../Libraries/StdPeripheralDriver/src/stm32f10x_tim.c ****   {
1440:../Libraries/StdPeripheralDriver/src/stm32f10x_tim.c ****     /* Set the COM Bit */
1441:../Libraries/StdPeripheralDriver/src/stm32f10x_tim.c ****     TIMx->CR2 |= TIM_CR2_CCUS;
 2829              		.loc 1 1441 0
 2830 0012 7B68     		ldr	r3, [r7, #4]
 2831 0014 9B88     		ldrh	r3, [r3, #4]	@ movhi
 2832 0016 9BB2     		uxth	r3, r3
 2833 0018 43F00403 		orr	r3, r3, #4
 2834 001c 9AB2     		uxth	r2, r3
 2835 001e 7B68     		ldr	r3, [r7, #4]
 2836 0020 9A80     		strh	r2, [r3, #4]	@ movhi
 2837 0022 07E0     		b	.L87
 2838              	.L88:
1442:../Libraries/StdPeripheralDriver/src/stm32f10x_tim.c ****   }
1443:../Libraries/StdPeripheralDriver/src/stm32f10x_tim.c ****   else
1444:../Libraries/StdPeripheralDriver/src/stm32f10x_tim.c ****   {
1445:../Libraries/StdPeripheralDriver/src/stm32f10x_tim.c ****     /* Reset the COM Bit */
1446:../Libraries/StdPeripheralDriver/src/stm32f10x_tim.c ****     TIMx->CR2 &= (uint16_t)~((uint16_t)TIM_CR2_CCUS);
 2839              		.loc 1 1446 0
 2840 0024 7B68     		ldr	r3, [r7, #4]
 2841 0026 9B88     		ldrh	r3, [r3, #4]	@ movhi
 2842 0028 9BB2     		uxth	r3, r3
 2843 002a 23F00403 		bic	r3, r3, #4
 2844 002e 9AB2     		uxth	r2, r3
 2845 0030 7B68     		ldr	r3, [r7, #4]
 2846 0032 9A80     		strh	r2, [r3, #4]	@ movhi
 2847              	.L87:
1447:../Libraries/StdPeripheralDriver/src/stm32f10x_tim.c ****   }
1448:../Libraries/StdPeripheralDriver/src/stm32f10x_tim.c **** }
 2848              		.loc 1 1448 0
 2849 0034 0C37     		adds	r7, r7, #12
 2850 0036 BD46     		mov	sp, r7
 2851              		@ sp needed
 2852 0038 5DF8047B 		ldr	r7, [sp], #4
 2853 003c 7047     		bx	lr
 2854              		.cfi_endproc
 2855              	.LFE63:
 2857 003e 00BF     		.section	.text.TIM_SelectCCDMA,"ax",%progbits
 2858              		.align	2
 2859              		.global	TIM_SelectCCDMA
 2860              		.thumb
 2861              		.thumb_func
 2863              	TIM_SelectCCDMA:
 2864              	.LFB64:
1449:../Libraries/StdPeripheralDriver/src/stm32f10x_tim.c **** 
1450:../Libraries/StdPeripheralDriver/src/stm32f10x_tim.c **** /**
1451:../Libraries/StdPeripheralDriver/src/stm32f10x_tim.c ****   * @brief  Selects the TIMx peripheral Capture Compare DMA source.
1452:../Libraries/StdPeripheralDriver/src/stm32f10x_tim.c ****   * @param  TIMx: where x can be  1, 2, 3, 4, 5, 8, 15, 16 or 17 to select 
1453:../Libraries/StdPeripheralDriver/src/stm32f10x_tim.c ****   *         the TIM peripheral.
1454:../Libraries/StdPeripheralDriver/src/stm32f10x_tim.c ****   * @param  NewState: new state of the Capture Compare DMA source
1455:../Libraries/StdPeripheralDriver/src/stm32f10x_tim.c ****   *   This parameter can be: ENABLE or DISABLE.
1456:../Libraries/StdPeripheralDriver/src/stm32f10x_tim.c ****   * @retval None
1457:../Libraries/StdPeripheralDriver/src/stm32f10x_tim.c ****   */
1458:../Libraries/StdPeripheralDriver/src/stm32f10x_tim.c **** void TIM_SelectCCDMA(TIM_TypeDef* TIMx, FunctionalState NewState)
1459:../Libraries/StdPeripheralDriver/src/stm32f10x_tim.c **** {
 2865              		.loc 1 1459 0
 2866              		.cfi_startproc
 2867              		@ args = 0, pretend = 0, frame = 8
 2868              		@ frame_needed = 1, uses_anonymous_args = 0
 2869              		@ link register save eliminated.
 2870 0000 80B4     		push	{r7}
 2871              		.cfi_def_cfa_offset 4
 2872              		.cfi_offset 7, -4
 2873 0002 83B0     		sub	sp, sp, #12
 2874              		.cfi_def_cfa_offset 16
 2875 0004 00AF     		add	r7, sp, #0
 2876              		.cfi_def_cfa_register 7
 2877 0006 7860     		str	r0, [r7, #4]
 2878 0008 0B46     		mov	r3, r1
 2879 000a FB70     		strb	r3, [r7, #3]
1460:../Libraries/StdPeripheralDriver/src/stm32f10x_tim.c ****   /* Check the parameters */
1461:../Libraries/StdPeripheralDriver/src/stm32f10x_tim.c ****   assert_param(IS_TIM_LIST4_PERIPH(TIMx));
1462:../Libraries/StdPeripheralDriver/src/stm32f10x_tim.c ****   assert_param(IS_FUNCTIONAL_STATE(NewState));
1463:../Libraries/StdPeripheralDriver/src/stm32f10x_tim.c ****   if (NewState != DISABLE)
 2880              		.loc 1 1463 0
 2881 000c FB78     		ldrb	r3, [r7, #3]	@ zero_extendqisi2
 2882 000e 002B     		cmp	r3, #0
 2883 0010 08D0     		beq	.L91
1464:../Libraries/StdPeripheralDriver/src/stm32f10x_tim.c ****   {
1465:../Libraries/StdPeripheralDriver/src/stm32f10x_tim.c ****     /* Set the CCDS Bit */
1466:../Libraries/StdPeripheralDriver/src/stm32f10x_tim.c ****     TIMx->CR2 |= TIM_CR2_CCDS;
 2884              		.loc 1 1466 0
 2885 0012 7B68     		ldr	r3, [r7, #4]
 2886 0014 9B88     		ldrh	r3, [r3, #4]	@ movhi
 2887 0016 9BB2     		uxth	r3, r3
 2888 0018 43F00803 		orr	r3, r3, #8
 2889 001c 9AB2     		uxth	r2, r3
 2890 001e 7B68     		ldr	r3, [r7, #4]
 2891 0020 9A80     		strh	r2, [r3, #4]	@ movhi
 2892 0022 07E0     		b	.L90
 2893              	.L91:
1467:../Libraries/StdPeripheralDriver/src/stm32f10x_tim.c ****   }
1468:../Libraries/StdPeripheralDriver/src/stm32f10x_tim.c ****   else
1469:../Libraries/StdPeripheralDriver/src/stm32f10x_tim.c ****   {
1470:../Libraries/StdPeripheralDriver/src/stm32f10x_tim.c ****     /* Reset the CCDS Bit */
1471:../Libraries/StdPeripheralDriver/src/stm32f10x_tim.c ****     TIMx->CR2 &= (uint16_t)~((uint16_t)TIM_CR2_CCDS);
 2894              		.loc 1 1471 0
 2895 0024 7B68     		ldr	r3, [r7, #4]
 2896 0026 9B88     		ldrh	r3, [r3, #4]	@ movhi
 2897 0028 9BB2     		uxth	r3, r3
 2898 002a 23F00803 		bic	r3, r3, #8
 2899 002e 9AB2     		uxth	r2, r3
 2900 0030 7B68     		ldr	r3, [r7, #4]
 2901 0032 9A80     		strh	r2, [r3, #4]	@ movhi
 2902              	.L90:
1472:../Libraries/StdPeripheralDriver/src/stm32f10x_tim.c ****   }
1473:../Libraries/StdPeripheralDriver/src/stm32f10x_tim.c **** }
 2903              		.loc 1 1473 0
 2904 0034 0C37     		adds	r7, r7, #12
 2905 0036 BD46     		mov	sp, r7
 2906              		@ sp needed
 2907 0038 5DF8047B 		ldr	r7, [sp], #4
 2908 003c 7047     		bx	lr
 2909              		.cfi_endproc
 2910              	.LFE64:
 2912 003e 00BF     		.section	.text.TIM_CCPreloadControl,"ax",%progbits
 2913              		.align	2
 2914              		.global	TIM_CCPreloadControl
 2915              		.thumb
 2916              		.thumb_func
 2918              	TIM_CCPreloadControl:
 2919              	.LFB65:
1474:../Libraries/StdPeripheralDriver/src/stm32f10x_tim.c **** 
1475:../Libraries/StdPeripheralDriver/src/stm32f10x_tim.c **** /**
1476:../Libraries/StdPeripheralDriver/src/stm32f10x_tim.c ****   * @brief  Sets or Resets the TIM peripheral Capture Compare Preload Control bit.
1477:../Libraries/StdPeripheralDriver/src/stm32f10x_tim.c ****   * @param  TIMx: where x can be   1, 2, 3, 4, 5, 8 or 15 
1478:../Libraries/StdPeripheralDriver/src/stm32f10x_tim.c ****   *         to select the TIMx peripheral
1479:../Libraries/StdPeripheralDriver/src/stm32f10x_tim.c ****   * @param  NewState: new state of the Capture Compare Preload Control bit
1480:../Libraries/StdPeripheralDriver/src/stm32f10x_tim.c ****   *   This parameter can be: ENABLE or DISABLE.
1481:../Libraries/StdPeripheralDriver/src/stm32f10x_tim.c ****   * @retval None
1482:../Libraries/StdPeripheralDriver/src/stm32f10x_tim.c ****   */
1483:../Libraries/StdPeripheralDriver/src/stm32f10x_tim.c **** void TIM_CCPreloadControl(TIM_TypeDef* TIMx, FunctionalState NewState)
1484:../Libraries/StdPeripheralDriver/src/stm32f10x_tim.c **** { 
 2920              		.loc 1 1484 0
 2921              		.cfi_startproc
 2922              		@ args = 0, pretend = 0, frame = 8
 2923              		@ frame_needed = 1, uses_anonymous_args = 0
 2924              		@ link register save eliminated.
 2925 0000 80B4     		push	{r7}
 2926              		.cfi_def_cfa_offset 4
 2927              		.cfi_offset 7, -4
 2928 0002 83B0     		sub	sp, sp, #12
 2929              		.cfi_def_cfa_offset 16
 2930 0004 00AF     		add	r7, sp, #0
 2931              		.cfi_def_cfa_register 7
 2932 0006 7860     		str	r0, [r7, #4]
 2933 0008 0B46     		mov	r3, r1
 2934 000a FB70     		strb	r3, [r7, #3]
1485:../Libraries/StdPeripheralDriver/src/stm32f10x_tim.c ****   /* Check the parameters */
1486:../Libraries/StdPeripheralDriver/src/stm32f10x_tim.c ****   assert_param(IS_TIM_LIST5_PERIPH(TIMx));
1487:../Libraries/StdPeripheralDriver/src/stm32f10x_tim.c ****   assert_param(IS_FUNCTIONAL_STATE(NewState));
1488:../Libraries/StdPeripheralDriver/src/stm32f10x_tim.c ****   if (NewState != DISABLE)
 2935              		.loc 1 1488 0
 2936 000c FB78     		ldrb	r3, [r7, #3]	@ zero_extendqisi2
 2937 000e 002B     		cmp	r3, #0
 2938 0010 08D0     		beq	.L94
1489:../Libraries/StdPeripheralDriver/src/stm32f10x_tim.c ****   {
1490:../Libraries/StdPeripheralDriver/src/stm32f10x_tim.c ****     /* Set the CCPC Bit */
1491:../Libraries/StdPeripheralDriver/src/stm32f10x_tim.c ****     TIMx->CR2 |= TIM_CR2_CCPC;
 2939              		.loc 1 1491 0
 2940 0012 7B68     		ldr	r3, [r7, #4]
 2941 0014 9B88     		ldrh	r3, [r3, #4]	@ movhi
 2942 0016 9BB2     		uxth	r3, r3
 2943 0018 43F00103 		orr	r3, r3, #1
 2944 001c 9AB2     		uxth	r2, r3
 2945 001e 7B68     		ldr	r3, [r7, #4]
 2946 0020 9A80     		strh	r2, [r3, #4]	@ movhi
 2947 0022 07E0     		b	.L93
 2948              	.L94:
1492:../Libraries/StdPeripheralDriver/src/stm32f10x_tim.c ****   }
1493:../Libraries/StdPeripheralDriver/src/stm32f10x_tim.c ****   else
1494:../Libraries/StdPeripheralDriver/src/stm32f10x_tim.c ****   {
1495:../Libraries/StdPeripheralDriver/src/stm32f10x_tim.c ****     /* Reset the CCPC Bit */
1496:../Libraries/StdPeripheralDriver/src/stm32f10x_tim.c ****     TIMx->CR2 &= (uint16_t)~((uint16_t)TIM_CR2_CCPC);
 2949              		.loc 1 1496 0
 2950 0024 7B68     		ldr	r3, [r7, #4]
 2951 0026 9B88     		ldrh	r3, [r3, #4]	@ movhi
 2952 0028 9BB2     		uxth	r3, r3
 2953 002a 23F00103 		bic	r3, r3, #1
 2954 002e 9AB2     		uxth	r2, r3
 2955 0030 7B68     		ldr	r3, [r7, #4]
 2956 0032 9A80     		strh	r2, [r3, #4]	@ movhi
 2957              	.L93:
1497:../Libraries/StdPeripheralDriver/src/stm32f10x_tim.c ****   }
1498:../Libraries/StdPeripheralDriver/src/stm32f10x_tim.c **** }
 2958              		.loc 1 1498 0
 2959 0034 0C37     		adds	r7, r7, #12
 2960 0036 BD46     		mov	sp, r7
 2961              		@ sp needed
 2962 0038 5DF8047B 		ldr	r7, [sp], #4
 2963 003c 7047     		bx	lr
 2964              		.cfi_endproc
 2965              	.LFE65:
 2967 003e 00BF     		.section	.text.TIM_OC1PreloadConfig,"ax",%progbits
 2968              		.align	2
 2969              		.global	TIM_OC1PreloadConfig
 2970              		.thumb
 2971              		.thumb_func
 2973              	TIM_OC1PreloadConfig:
 2974              	.LFB66:
1499:../Libraries/StdPeripheralDriver/src/stm32f10x_tim.c **** 
1500:../Libraries/StdPeripheralDriver/src/stm32f10x_tim.c **** /**
1501:../Libraries/StdPeripheralDriver/src/stm32f10x_tim.c ****   * @brief  Enables or disables the TIMx peripheral Preload register on CCR1.
1502:../Libraries/StdPeripheralDriver/src/stm32f10x_tim.c ****   * @param  TIMx: where x can be  1 to 17 except 6 and 7 to select the TIM peripheral.
1503:../Libraries/StdPeripheralDriver/src/stm32f10x_tim.c ****   * @param  TIM_OCPreload: new state of the TIMx peripheral Preload register
1504:../Libraries/StdPeripheralDriver/src/stm32f10x_tim.c ****   *   This parameter can be one of the following values:
1505:../Libraries/StdPeripheralDriver/src/stm32f10x_tim.c ****   *     @arg TIM_OCPreload_Enable
1506:../Libraries/StdPeripheralDriver/src/stm32f10x_tim.c ****   *     @arg TIM_OCPreload_Disable
1507:../Libraries/StdPeripheralDriver/src/stm32f10x_tim.c ****   * @retval None
1508:../Libraries/StdPeripheralDriver/src/stm32f10x_tim.c ****   */
1509:../Libraries/StdPeripheralDriver/src/stm32f10x_tim.c **** void TIM_OC1PreloadConfig(TIM_TypeDef* TIMx, uint16_t TIM_OCPreload)
1510:../Libraries/StdPeripheralDriver/src/stm32f10x_tim.c **** {
 2975              		.loc 1 1510 0
 2976              		.cfi_startproc
 2977              		@ args = 0, pretend = 0, frame = 16
 2978              		@ frame_needed = 1, uses_anonymous_args = 0
 2979              		@ link register save eliminated.
 2980 0000 80B4     		push	{r7}
 2981              		.cfi_def_cfa_offset 4
 2982              		.cfi_offset 7, -4
 2983 0002 85B0     		sub	sp, sp, #20
 2984              		.cfi_def_cfa_offset 24
 2985 0004 00AF     		add	r7, sp, #0
 2986              		.cfi_def_cfa_register 7
 2987 0006 7860     		str	r0, [r7, #4]
 2988 0008 0B46     		mov	r3, r1
 2989 000a 7B80     		strh	r3, [r7, #2]	@ movhi
1511:../Libraries/StdPeripheralDriver/src/stm32f10x_tim.c ****   uint16_t tmpccmr1 = 0;
 2990              		.loc 1 1511 0
 2991 000c 0023     		movs	r3, #0
 2992 000e FB81     		strh	r3, [r7, #14]	@ movhi
1512:../Libraries/StdPeripheralDriver/src/stm32f10x_tim.c ****   /* Check the parameters */
1513:../Libraries/StdPeripheralDriver/src/stm32f10x_tim.c ****   assert_param(IS_TIM_LIST8_PERIPH(TIMx));
1514:../Libraries/StdPeripheralDriver/src/stm32f10x_tim.c ****   assert_param(IS_TIM_OCPRELOAD_STATE(TIM_OCPreload));
1515:../Libraries/StdPeripheralDriver/src/stm32f10x_tim.c ****   tmpccmr1 = TIMx->CCMR1;
 2993              		.loc 1 1515 0
 2994 0010 7B68     		ldr	r3, [r7, #4]
 2995 0012 1B8B     		ldrh	r3, [r3, #24]	@ movhi
 2996 0014 FB81     		strh	r3, [r7, #14]	@ movhi
1516:../Libraries/StdPeripheralDriver/src/stm32f10x_tim.c ****   /* Reset the OC1PE Bit */
1517:../Libraries/StdPeripheralDriver/src/stm32f10x_tim.c ****   tmpccmr1 &= (uint16_t)~((uint16_t)TIM_CCMR1_OC1PE);
 2997              		.loc 1 1517 0
 2998 0016 FB89     		ldrh	r3, [r7, #14]	@ movhi
 2999 0018 23F00803 		bic	r3, r3, #8
 3000 001c FB81     		strh	r3, [r7, #14]	@ movhi
1518:../Libraries/StdPeripheralDriver/src/stm32f10x_tim.c ****   /* Enable or Disable the Output Compare Preload feature */
1519:../Libraries/StdPeripheralDriver/src/stm32f10x_tim.c ****   tmpccmr1 |= TIM_OCPreload;
 3001              		.loc 1 1519 0
 3002 001e FA89     		ldrh	r2, [r7, #14]	@ movhi
 3003 0020 7B88     		ldrh	r3, [r7, #2]	@ movhi
 3004 0022 1343     		orrs	r3, r3, r2
 3005 0024 FB81     		strh	r3, [r7, #14]	@ movhi
1520:../Libraries/StdPeripheralDriver/src/stm32f10x_tim.c ****   /* Write to TIMx CCMR1 register */
1521:../Libraries/StdPeripheralDriver/src/stm32f10x_tim.c ****   TIMx->CCMR1 = tmpccmr1;
 3006              		.loc 1 1521 0
 3007 0026 7B68     		ldr	r3, [r7, #4]
 3008 0028 FA89     		ldrh	r2, [r7, #14]	@ movhi
 3009 002a 1A83     		strh	r2, [r3, #24]	@ movhi
1522:../Libraries/StdPeripheralDriver/src/stm32f10x_tim.c **** }
 3010              		.loc 1 1522 0
 3011 002c 1437     		adds	r7, r7, #20
 3012 002e BD46     		mov	sp, r7
 3013              		@ sp needed
 3014 0030 5DF8047B 		ldr	r7, [sp], #4
 3015 0034 7047     		bx	lr
 3016              		.cfi_endproc
 3017              	.LFE66:
 3019 0036 00BF     		.section	.text.TIM_OC2PreloadConfig,"ax",%progbits
 3020              		.align	2
 3021              		.global	TIM_OC2PreloadConfig
 3022              		.thumb
 3023              		.thumb_func
 3025              	TIM_OC2PreloadConfig:
 3026              	.LFB67:
1523:../Libraries/StdPeripheralDriver/src/stm32f10x_tim.c **** 
1524:../Libraries/StdPeripheralDriver/src/stm32f10x_tim.c **** /**
1525:../Libraries/StdPeripheralDriver/src/stm32f10x_tim.c ****   * @brief  Enables or disables the TIMx peripheral Preload register on CCR2.
1526:../Libraries/StdPeripheralDriver/src/stm32f10x_tim.c ****   * @param  TIMx: where x can be  1, 2, 3, 4, 5, 8, 9, 12 or 15 to select 
1527:../Libraries/StdPeripheralDriver/src/stm32f10x_tim.c ****   *         the TIM peripheral.
1528:../Libraries/StdPeripheralDriver/src/stm32f10x_tim.c ****   * @param  TIM_OCPreload: new state of the TIMx peripheral Preload register
1529:../Libraries/StdPeripheralDriver/src/stm32f10x_tim.c ****   *   This parameter can be one of the following values:
1530:../Libraries/StdPeripheralDriver/src/stm32f10x_tim.c ****   *     @arg TIM_OCPreload_Enable
1531:../Libraries/StdPeripheralDriver/src/stm32f10x_tim.c ****   *     @arg TIM_OCPreload_Disable
1532:../Libraries/StdPeripheralDriver/src/stm32f10x_tim.c ****   * @retval None
1533:../Libraries/StdPeripheralDriver/src/stm32f10x_tim.c ****   */
1534:../Libraries/StdPeripheralDriver/src/stm32f10x_tim.c **** void TIM_OC2PreloadConfig(TIM_TypeDef* TIMx, uint16_t TIM_OCPreload)
1535:../Libraries/StdPeripheralDriver/src/stm32f10x_tim.c **** {
 3027              		.loc 1 1535 0
 3028              		.cfi_startproc
 3029              		@ args = 0, pretend = 0, frame = 16
 3030              		@ frame_needed = 1, uses_anonymous_args = 0
 3031              		@ link register save eliminated.
 3032 0000 80B4     		push	{r7}
 3033              		.cfi_def_cfa_offset 4
 3034              		.cfi_offset 7, -4
 3035 0002 85B0     		sub	sp, sp, #20
 3036              		.cfi_def_cfa_offset 24
 3037 0004 00AF     		add	r7, sp, #0
 3038              		.cfi_def_cfa_register 7
 3039 0006 7860     		str	r0, [r7, #4]
 3040 0008 0B46     		mov	r3, r1
 3041 000a 7B80     		strh	r3, [r7, #2]	@ movhi
1536:../Libraries/StdPeripheralDriver/src/stm32f10x_tim.c ****   uint16_t tmpccmr1 = 0;
 3042              		.loc 1 1536 0
 3043 000c 0023     		movs	r3, #0
 3044 000e FB81     		strh	r3, [r7, #14]	@ movhi
1537:../Libraries/StdPeripheralDriver/src/stm32f10x_tim.c ****   /* Check the parameters */
1538:../Libraries/StdPeripheralDriver/src/stm32f10x_tim.c ****   assert_param(IS_TIM_LIST6_PERIPH(TIMx));
1539:../Libraries/StdPeripheralDriver/src/stm32f10x_tim.c ****   assert_param(IS_TIM_OCPRELOAD_STATE(TIM_OCPreload));
1540:../Libraries/StdPeripheralDriver/src/stm32f10x_tim.c ****   tmpccmr1 = TIMx->CCMR1;
 3045              		.loc 1 1540 0
 3046 0010 7B68     		ldr	r3, [r7, #4]
 3047 0012 1B8B     		ldrh	r3, [r3, #24]	@ movhi
 3048 0014 FB81     		strh	r3, [r7, #14]	@ movhi
1541:../Libraries/StdPeripheralDriver/src/stm32f10x_tim.c ****   /* Reset the OC2PE Bit */
1542:../Libraries/StdPeripheralDriver/src/stm32f10x_tim.c ****   tmpccmr1 &= (uint16_t)~((uint16_t)TIM_CCMR1_OC2PE);
 3049              		.loc 1 1542 0
 3050 0016 FB89     		ldrh	r3, [r7, #14]	@ movhi
 3051 0018 23F40063 		bic	r3, r3, #2048
 3052 001c FB81     		strh	r3, [r7, #14]	@ movhi
1543:../Libraries/StdPeripheralDriver/src/stm32f10x_tim.c ****   /* Enable or Disable the Output Compare Preload feature */
1544:../Libraries/StdPeripheralDriver/src/stm32f10x_tim.c ****   tmpccmr1 |= (uint16_t)(TIM_OCPreload << 8);
 3053              		.loc 1 1544 0
 3054 001e 7B88     		ldrh	r3, [r7, #2]	@ movhi
 3055 0020 1B02     		lsls	r3, r3, #8
 3056 0022 9AB2     		uxth	r2, r3
 3057 0024 FB89     		ldrh	r3, [r7, #14]	@ movhi
 3058 0026 1343     		orrs	r3, r3, r2
 3059 0028 FB81     		strh	r3, [r7, #14]	@ movhi
1545:../Libraries/StdPeripheralDriver/src/stm32f10x_tim.c ****   /* Write to TIMx CCMR1 register */
1546:../Libraries/StdPeripheralDriver/src/stm32f10x_tim.c ****   TIMx->CCMR1 = tmpccmr1;
 3060              		.loc 1 1546 0
 3061 002a 7B68     		ldr	r3, [r7, #4]
 3062 002c FA89     		ldrh	r2, [r7, #14]	@ movhi
 3063 002e 1A83     		strh	r2, [r3, #24]	@ movhi
1547:../Libraries/StdPeripheralDriver/src/stm32f10x_tim.c **** }
 3064              		.loc 1 1547 0
 3065 0030 1437     		adds	r7, r7, #20
 3066 0032 BD46     		mov	sp, r7
 3067              		@ sp needed
 3068 0034 5DF8047B 		ldr	r7, [sp], #4
 3069 0038 7047     		bx	lr
 3070              		.cfi_endproc
 3071              	.LFE67:
 3073 003a 00BF     		.section	.text.TIM_OC3PreloadConfig,"ax",%progbits
 3074              		.align	2
 3075              		.global	TIM_OC3PreloadConfig
 3076              		.thumb
 3077              		.thumb_func
 3079              	TIM_OC3PreloadConfig:
 3080              	.LFB68:
1548:../Libraries/StdPeripheralDriver/src/stm32f10x_tim.c **** 
1549:../Libraries/StdPeripheralDriver/src/stm32f10x_tim.c **** /**
1550:../Libraries/StdPeripheralDriver/src/stm32f10x_tim.c ****   * @brief  Enables or disables the TIMx peripheral Preload register on CCR3.
1551:../Libraries/StdPeripheralDriver/src/stm32f10x_tim.c ****   * @param  TIMx: where x can be  1, 2, 3, 4, 5 or 8 to select the TIM peripheral.
1552:../Libraries/StdPeripheralDriver/src/stm32f10x_tim.c ****   * @param  TIM_OCPreload: new state of the TIMx peripheral Preload register
1553:../Libraries/StdPeripheralDriver/src/stm32f10x_tim.c ****   *   This parameter can be one of the following values:
1554:../Libraries/StdPeripheralDriver/src/stm32f10x_tim.c ****   *     @arg TIM_OCPreload_Enable
1555:../Libraries/StdPeripheralDriver/src/stm32f10x_tim.c ****   *     @arg TIM_OCPreload_Disable
1556:../Libraries/StdPeripheralDriver/src/stm32f10x_tim.c ****   * @retval None
1557:../Libraries/StdPeripheralDriver/src/stm32f10x_tim.c ****   */
1558:../Libraries/StdPeripheralDriver/src/stm32f10x_tim.c **** void TIM_OC3PreloadConfig(TIM_TypeDef* TIMx, uint16_t TIM_OCPreload)
1559:../Libraries/StdPeripheralDriver/src/stm32f10x_tim.c **** {
 3081              		.loc 1 1559 0
 3082              		.cfi_startproc
 3083              		@ args = 0, pretend = 0, frame = 16
 3084              		@ frame_needed = 1, uses_anonymous_args = 0
 3085              		@ link register save eliminated.
 3086 0000 80B4     		push	{r7}
 3087              		.cfi_def_cfa_offset 4
 3088              		.cfi_offset 7, -4
 3089 0002 85B0     		sub	sp, sp, #20
 3090              		.cfi_def_cfa_offset 24
 3091 0004 00AF     		add	r7, sp, #0
 3092              		.cfi_def_cfa_register 7
 3093 0006 7860     		str	r0, [r7, #4]
 3094 0008 0B46     		mov	r3, r1
 3095 000a 7B80     		strh	r3, [r7, #2]	@ movhi
1560:../Libraries/StdPeripheralDriver/src/stm32f10x_tim.c ****   uint16_t tmpccmr2 = 0;
 3096              		.loc 1 1560 0
 3097 000c 0023     		movs	r3, #0
 3098 000e FB81     		strh	r3, [r7, #14]	@ movhi
1561:../Libraries/StdPeripheralDriver/src/stm32f10x_tim.c ****   /* Check the parameters */
1562:../Libraries/StdPeripheralDriver/src/stm32f10x_tim.c ****   assert_param(IS_TIM_LIST3_PERIPH(TIMx));
1563:../Libraries/StdPeripheralDriver/src/stm32f10x_tim.c ****   assert_param(IS_TIM_OCPRELOAD_STATE(TIM_OCPreload));
1564:../Libraries/StdPeripheralDriver/src/stm32f10x_tim.c ****   tmpccmr2 = TIMx->CCMR2;
 3099              		.loc 1 1564 0
 3100 0010 7B68     		ldr	r3, [r7, #4]
 3101 0012 9B8B     		ldrh	r3, [r3, #28]	@ movhi
 3102 0014 FB81     		strh	r3, [r7, #14]	@ movhi
1565:../Libraries/StdPeripheralDriver/src/stm32f10x_tim.c ****   /* Reset the OC3PE Bit */
1566:../Libraries/StdPeripheralDriver/src/stm32f10x_tim.c ****   tmpccmr2 &= (uint16_t)~((uint16_t)TIM_CCMR2_OC3PE);
 3103              		.loc 1 1566 0
 3104 0016 FB89     		ldrh	r3, [r7, #14]	@ movhi
 3105 0018 23F00803 		bic	r3, r3, #8
 3106 001c FB81     		strh	r3, [r7, #14]	@ movhi
1567:../Libraries/StdPeripheralDriver/src/stm32f10x_tim.c ****   /* Enable or Disable the Output Compare Preload feature */
1568:../Libraries/StdPeripheralDriver/src/stm32f10x_tim.c ****   tmpccmr2 |= TIM_OCPreload;
 3107              		.loc 1 1568 0
 3108 001e FA89     		ldrh	r2, [r7, #14]	@ movhi
 3109 0020 7B88     		ldrh	r3, [r7, #2]	@ movhi
 3110 0022 1343     		orrs	r3, r3, r2
 3111 0024 FB81     		strh	r3, [r7, #14]	@ movhi
1569:../Libraries/StdPeripheralDriver/src/stm32f10x_tim.c ****   /* Write to TIMx CCMR2 register */
1570:../Libraries/StdPeripheralDriver/src/stm32f10x_tim.c ****   TIMx->CCMR2 = tmpccmr2;
 3112              		.loc 1 1570 0
 3113 0026 7B68     		ldr	r3, [r7, #4]
 3114 0028 FA89     		ldrh	r2, [r7, #14]	@ movhi
 3115 002a 9A83     		strh	r2, [r3, #28]	@ movhi
1571:../Libraries/StdPeripheralDriver/src/stm32f10x_tim.c **** }
 3116              		.loc 1 1571 0
 3117 002c 1437     		adds	r7, r7, #20
 3118 002e BD46     		mov	sp, r7
 3119              		@ sp needed
 3120 0030 5DF8047B 		ldr	r7, [sp], #4
 3121 0034 7047     		bx	lr
 3122              		.cfi_endproc
 3123              	.LFE68:
 3125 0036 00BF     		.section	.text.TIM_OC4PreloadConfig,"ax",%progbits
 3126              		.align	2
 3127              		.global	TIM_OC4PreloadConfig
 3128              		.thumb
 3129              		.thumb_func
 3131              	TIM_OC4PreloadConfig:
 3132              	.LFB69:
1572:../Libraries/StdPeripheralDriver/src/stm32f10x_tim.c **** 
1573:../Libraries/StdPeripheralDriver/src/stm32f10x_tim.c **** /**
1574:../Libraries/StdPeripheralDriver/src/stm32f10x_tim.c ****   * @brief  Enables or disables the TIMx peripheral Preload register on CCR4.
1575:../Libraries/StdPeripheralDriver/src/stm32f10x_tim.c ****   * @param  TIMx: where x can be  1, 2, 3, 4, 5 or 8 to select the TIM peripheral.
1576:../Libraries/StdPeripheralDriver/src/stm32f10x_tim.c ****   * @param  TIM_OCPreload: new state of the TIMx peripheral Preload register
1577:../Libraries/StdPeripheralDriver/src/stm32f10x_tim.c ****   *   This parameter can be one of the following values:
1578:../Libraries/StdPeripheralDriver/src/stm32f10x_tim.c ****   *     @arg TIM_OCPreload_Enable
1579:../Libraries/StdPeripheralDriver/src/stm32f10x_tim.c ****   *     @arg TIM_OCPreload_Disable
1580:../Libraries/StdPeripheralDriver/src/stm32f10x_tim.c ****   * @retval None
1581:../Libraries/StdPeripheralDriver/src/stm32f10x_tim.c ****   */
1582:../Libraries/StdPeripheralDriver/src/stm32f10x_tim.c **** void TIM_OC4PreloadConfig(TIM_TypeDef* TIMx, uint16_t TIM_OCPreload)
1583:../Libraries/StdPeripheralDriver/src/stm32f10x_tim.c **** {
 3133              		.loc 1 1583 0
 3134              		.cfi_startproc
 3135              		@ args = 0, pretend = 0, frame = 16
 3136              		@ frame_needed = 1, uses_anonymous_args = 0
 3137              		@ link register save eliminated.
 3138 0000 80B4     		push	{r7}
 3139              		.cfi_def_cfa_offset 4
 3140              		.cfi_offset 7, -4
 3141 0002 85B0     		sub	sp, sp, #20
 3142              		.cfi_def_cfa_offset 24
 3143 0004 00AF     		add	r7, sp, #0
 3144              		.cfi_def_cfa_register 7
 3145 0006 7860     		str	r0, [r7, #4]
 3146 0008 0B46     		mov	r3, r1
 3147 000a 7B80     		strh	r3, [r7, #2]	@ movhi
1584:../Libraries/StdPeripheralDriver/src/stm32f10x_tim.c ****   uint16_t tmpccmr2 = 0;
 3148              		.loc 1 1584 0
 3149 000c 0023     		movs	r3, #0
 3150 000e FB81     		strh	r3, [r7, #14]	@ movhi
1585:../Libraries/StdPeripheralDriver/src/stm32f10x_tim.c ****   /* Check the parameters */
1586:../Libraries/StdPeripheralDriver/src/stm32f10x_tim.c ****   assert_param(IS_TIM_LIST3_PERIPH(TIMx));
1587:../Libraries/StdPeripheralDriver/src/stm32f10x_tim.c ****   assert_param(IS_TIM_OCPRELOAD_STATE(TIM_OCPreload));
1588:../Libraries/StdPeripheralDriver/src/stm32f10x_tim.c ****   tmpccmr2 = TIMx->CCMR2;
 3151              		.loc 1 1588 0
 3152 0010 7B68     		ldr	r3, [r7, #4]
 3153 0012 9B8B     		ldrh	r3, [r3, #28]	@ movhi
 3154 0014 FB81     		strh	r3, [r7, #14]	@ movhi
1589:../Libraries/StdPeripheralDriver/src/stm32f10x_tim.c ****   /* Reset the OC4PE Bit */
1590:../Libraries/StdPeripheralDriver/src/stm32f10x_tim.c ****   tmpccmr2 &= (uint16_t)~((uint16_t)TIM_CCMR2_OC4PE);
 3155              		.loc 1 1590 0
 3156 0016 FB89     		ldrh	r3, [r7, #14]	@ movhi
 3157 0018 23F40063 		bic	r3, r3, #2048
 3158 001c FB81     		strh	r3, [r7, #14]	@ movhi
1591:../Libraries/StdPeripheralDriver/src/stm32f10x_tim.c ****   /* Enable or Disable the Output Compare Preload feature */
1592:../Libraries/StdPeripheralDriver/src/stm32f10x_tim.c ****   tmpccmr2 |= (uint16_t)(TIM_OCPreload << 8);
 3159              		.loc 1 1592 0
 3160 001e 7B88     		ldrh	r3, [r7, #2]	@ movhi
 3161 0020 1B02     		lsls	r3, r3, #8
 3162 0022 9AB2     		uxth	r2, r3
 3163 0024 FB89     		ldrh	r3, [r7, #14]	@ movhi
 3164 0026 1343     		orrs	r3, r3, r2
 3165 0028 FB81     		strh	r3, [r7, #14]	@ movhi
1593:../Libraries/StdPeripheralDriver/src/stm32f10x_tim.c ****   /* Write to TIMx CCMR2 register */
1594:../Libraries/StdPeripheralDriver/src/stm32f10x_tim.c ****   TIMx->CCMR2 = tmpccmr2;
 3166              		.loc 1 1594 0
 3167 002a 7B68     		ldr	r3, [r7, #4]
 3168 002c FA89     		ldrh	r2, [r7, #14]	@ movhi
 3169 002e 9A83     		strh	r2, [r3, #28]	@ movhi
1595:../Libraries/StdPeripheralDriver/src/stm32f10x_tim.c **** }
 3170              		.loc 1 1595 0
 3171 0030 1437     		adds	r7, r7, #20
 3172 0032 BD46     		mov	sp, r7
 3173              		@ sp needed
 3174 0034 5DF8047B 		ldr	r7, [sp], #4
 3175 0038 7047     		bx	lr
 3176              		.cfi_endproc
 3177              	.LFE69:
 3179 003a 00BF     		.section	.text.TIM_OC1FastConfig,"ax",%progbits
 3180              		.align	2
 3181              		.global	TIM_OC1FastConfig
 3182              		.thumb
 3183              		.thumb_func
 3185              	TIM_OC1FastConfig:
 3186              	.LFB70:
1596:../Libraries/StdPeripheralDriver/src/stm32f10x_tim.c **** 
1597:../Libraries/StdPeripheralDriver/src/stm32f10x_tim.c **** /**
1598:../Libraries/StdPeripheralDriver/src/stm32f10x_tim.c ****   * @brief  Configures the TIMx Output Compare 1 Fast feature.
1599:../Libraries/StdPeripheralDriver/src/stm32f10x_tim.c ****   * @param  TIMx: where x can be  1 to 17 except 6 and 7 to select the TIM peripheral.
1600:../Libraries/StdPeripheralDriver/src/stm32f10x_tim.c ****   * @param  TIM_OCFast: new state of the Output Compare Fast Enable Bit.
1601:../Libraries/StdPeripheralDriver/src/stm32f10x_tim.c ****   *   This parameter can be one of the following values:
1602:../Libraries/StdPeripheralDriver/src/stm32f10x_tim.c ****   *     @arg TIM_OCFast_Enable: TIM output compare fast enable
1603:../Libraries/StdPeripheralDriver/src/stm32f10x_tim.c ****   *     @arg TIM_OCFast_Disable: TIM output compare fast disable
1604:../Libraries/StdPeripheralDriver/src/stm32f10x_tim.c ****   * @retval None
1605:../Libraries/StdPeripheralDriver/src/stm32f10x_tim.c ****   */
1606:../Libraries/StdPeripheralDriver/src/stm32f10x_tim.c **** void TIM_OC1FastConfig(TIM_TypeDef* TIMx, uint16_t TIM_OCFast)
1607:../Libraries/StdPeripheralDriver/src/stm32f10x_tim.c **** {
 3187              		.loc 1 1607 0
 3188              		.cfi_startproc
 3189              		@ args = 0, pretend = 0, frame = 16
 3190              		@ frame_needed = 1, uses_anonymous_args = 0
 3191              		@ link register save eliminated.
 3192 0000 80B4     		push	{r7}
 3193              		.cfi_def_cfa_offset 4
 3194              		.cfi_offset 7, -4
 3195 0002 85B0     		sub	sp, sp, #20
 3196              		.cfi_def_cfa_offset 24
 3197 0004 00AF     		add	r7, sp, #0
 3198              		.cfi_def_cfa_register 7
 3199 0006 7860     		str	r0, [r7, #4]
 3200 0008 0B46     		mov	r3, r1
 3201 000a 7B80     		strh	r3, [r7, #2]	@ movhi
1608:../Libraries/StdPeripheralDriver/src/stm32f10x_tim.c ****   uint16_t tmpccmr1 = 0;
 3202              		.loc 1 1608 0
 3203 000c 0023     		movs	r3, #0
 3204 000e FB81     		strh	r3, [r7, #14]	@ movhi
1609:../Libraries/StdPeripheralDriver/src/stm32f10x_tim.c ****   /* Check the parameters */
1610:../Libraries/StdPeripheralDriver/src/stm32f10x_tim.c ****   assert_param(IS_TIM_LIST8_PERIPH(TIMx));
1611:../Libraries/StdPeripheralDriver/src/stm32f10x_tim.c ****   assert_param(IS_TIM_OCFAST_STATE(TIM_OCFast));
1612:../Libraries/StdPeripheralDriver/src/stm32f10x_tim.c ****   /* Get the TIMx CCMR1 register value */
1613:../Libraries/StdPeripheralDriver/src/stm32f10x_tim.c ****   tmpccmr1 = TIMx->CCMR1;
 3205              		.loc 1 1613 0
 3206 0010 7B68     		ldr	r3, [r7, #4]
 3207 0012 1B8B     		ldrh	r3, [r3, #24]	@ movhi
 3208 0014 FB81     		strh	r3, [r7, #14]	@ movhi
1614:../Libraries/StdPeripheralDriver/src/stm32f10x_tim.c ****   /* Reset the OC1FE Bit */
1615:../Libraries/StdPeripheralDriver/src/stm32f10x_tim.c ****   tmpccmr1 &= (uint16_t)~((uint16_t)TIM_CCMR1_OC1FE);
 3209              		.loc 1 1615 0
 3210 0016 FB89     		ldrh	r3, [r7, #14]	@ movhi
 3211 0018 23F00403 		bic	r3, r3, #4
 3212 001c FB81     		strh	r3, [r7, #14]	@ movhi
1616:../Libraries/StdPeripheralDriver/src/stm32f10x_tim.c ****   /* Enable or Disable the Output Compare Fast Bit */
1617:../Libraries/StdPeripheralDriver/src/stm32f10x_tim.c ****   tmpccmr1 |= TIM_OCFast;
 3213              		.loc 1 1617 0
 3214 001e FA89     		ldrh	r2, [r7, #14]	@ movhi
 3215 0020 7B88     		ldrh	r3, [r7, #2]	@ movhi
 3216 0022 1343     		orrs	r3, r3, r2
 3217 0024 FB81     		strh	r3, [r7, #14]	@ movhi
1618:../Libraries/StdPeripheralDriver/src/stm32f10x_tim.c ****   /* Write to TIMx CCMR1 */
1619:../Libraries/StdPeripheralDriver/src/stm32f10x_tim.c ****   TIMx->CCMR1 = tmpccmr1;
 3218              		.loc 1 1619 0
 3219 0026 7B68     		ldr	r3, [r7, #4]
 3220 0028 FA89     		ldrh	r2, [r7, #14]	@ movhi
 3221 002a 1A83     		strh	r2, [r3, #24]	@ movhi
1620:../Libraries/StdPeripheralDriver/src/stm32f10x_tim.c **** }
 3222              		.loc 1 1620 0
 3223 002c 1437     		adds	r7, r7, #20
 3224 002e BD46     		mov	sp, r7
 3225              		@ sp needed
 3226 0030 5DF8047B 		ldr	r7, [sp], #4
 3227 0034 7047     		bx	lr
 3228              		.cfi_endproc
 3229              	.LFE70:
 3231 0036 00BF     		.section	.text.TIM_OC2FastConfig,"ax",%progbits
 3232              		.align	2
 3233              		.global	TIM_OC2FastConfig
 3234              		.thumb
 3235              		.thumb_func
 3237              	TIM_OC2FastConfig:
 3238              	.LFB71:
1621:../Libraries/StdPeripheralDriver/src/stm32f10x_tim.c **** 
1622:../Libraries/StdPeripheralDriver/src/stm32f10x_tim.c **** /**
1623:../Libraries/StdPeripheralDriver/src/stm32f10x_tim.c ****   * @brief  Configures the TIMx Output Compare 2 Fast feature.
1624:../Libraries/StdPeripheralDriver/src/stm32f10x_tim.c ****   * @param  TIMx: where x can be  1, 2, 3, 4, 5, 8, 9, 12 or 15 to select 
1625:../Libraries/StdPeripheralDriver/src/stm32f10x_tim.c ****   *         the TIM peripheral.
1626:../Libraries/StdPeripheralDriver/src/stm32f10x_tim.c ****   * @param  TIM_OCFast: new state of the Output Compare Fast Enable Bit.
1627:../Libraries/StdPeripheralDriver/src/stm32f10x_tim.c ****   *   This parameter can be one of the following values:
1628:../Libraries/StdPeripheralDriver/src/stm32f10x_tim.c ****   *     @arg TIM_OCFast_Enable: TIM output compare fast enable
1629:../Libraries/StdPeripheralDriver/src/stm32f10x_tim.c ****   *     @arg TIM_OCFast_Disable: TIM output compare fast disable
1630:../Libraries/StdPeripheralDriver/src/stm32f10x_tim.c ****   * @retval None
1631:../Libraries/StdPeripheralDriver/src/stm32f10x_tim.c ****   */
1632:../Libraries/StdPeripheralDriver/src/stm32f10x_tim.c **** void TIM_OC2FastConfig(TIM_TypeDef* TIMx, uint16_t TIM_OCFast)
1633:../Libraries/StdPeripheralDriver/src/stm32f10x_tim.c **** {
 3239              		.loc 1 1633 0
 3240              		.cfi_startproc
 3241              		@ args = 0, pretend = 0, frame = 16
 3242              		@ frame_needed = 1, uses_anonymous_args = 0
 3243              		@ link register save eliminated.
 3244 0000 80B4     		push	{r7}
 3245              		.cfi_def_cfa_offset 4
 3246              		.cfi_offset 7, -4
 3247 0002 85B0     		sub	sp, sp, #20
 3248              		.cfi_def_cfa_offset 24
 3249 0004 00AF     		add	r7, sp, #0
 3250              		.cfi_def_cfa_register 7
 3251 0006 7860     		str	r0, [r7, #4]
 3252 0008 0B46     		mov	r3, r1
 3253 000a 7B80     		strh	r3, [r7, #2]	@ movhi
1634:../Libraries/StdPeripheralDriver/src/stm32f10x_tim.c ****   uint16_t tmpccmr1 = 0;
 3254              		.loc 1 1634 0
 3255 000c 0023     		movs	r3, #0
 3256 000e FB81     		strh	r3, [r7, #14]	@ movhi
1635:../Libraries/StdPeripheralDriver/src/stm32f10x_tim.c ****   /* Check the parameters */
1636:../Libraries/StdPeripheralDriver/src/stm32f10x_tim.c ****   assert_param(IS_TIM_LIST6_PERIPH(TIMx));
1637:../Libraries/StdPeripheralDriver/src/stm32f10x_tim.c ****   assert_param(IS_TIM_OCFAST_STATE(TIM_OCFast));
1638:../Libraries/StdPeripheralDriver/src/stm32f10x_tim.c ****   /* Get the TIMx CCMR1 register value */
1639:../Libraries/StdPeripheralDriver/src/stm32f10x_tim.c ****   tmpccmr1 = TIMx->CCMR1;
 3257              		.loc 1 1639 0
 3258 0010 7B68     		ldr	r3, [r7, #4]
 3259 0012 1B8B     		ldrh	r3, [r3, #24]	@ movhi
 3260 0014 FB81     		strh	r3, [r7, #14]	@ movhi
1640:../Libraries/StdPeripheralDriver/src/stm32f10x_tim.c ****   /* Reset the OC2FE Bit */
1641:../Libraries/StdPeripheralDriver/src/stm32f10x_tim.c ****   tmpccmr1 &= (uint16_t)~((uint16_t)TIM_CCMR1_OC2FE);
 3261              		.loc 1 1641 0
 3262 0016 FB89     		ldrh	r3, [r7, #14]	@ movhi
 3263 0018 23F48063 		bic	r3, r3, #1024
 3264 001c FB81     		strh	r3, [r7, #14]	@ movhi
1642:../Libraries/StdPeripheralDriver/src/stm32f10x_tim.c ****   /* Enable or Disable the Output Compare Fast Bit */
1643:../Libraries/StdPeripheralDriver/src/stm32f10x_tim.c ****   tmpccmr1 |= (uint16_t)(TIM_OCFast << 8);
 3265              		.loc 1 1643 0
 3266 001e 7B88     		ldrh	r3, [r7, #2]	@ movhi
 3267 0020 1B02     		lsls	r3, r3, #8
 3268 0022 9AB2     		uxth	r2, r3
 3269 0024 FB89     		ldrh	r3, [r7, #14]	@ movhi
 3270 0026 1343     		orrs	r3, r3, r2
 3271 0028 FB81     		strh	r3, [r7, #14]	@ movhi
1644:../Libraries/StdPeripheralDriver/src/stm32f10x_tim.c ****   /* Write to TIMx CCMR1 */
1645:../Libraries/StdPeripheralDriver/src/stm32f10x_tim.c ****   TIMx->CCMR1 = tmpccmr1;
 3272              		.loc 1 1645 0
 3273 002a 7B68     		ldr	r3, [r7, #4]
 3274 002c FA89     		ldrh	r2, [r7, #14]	@ movhi
 3275 002e 1A83     		strh	r2, [r3, #24]	@ movhi
1646:../Libraries/StdPeripheralDriver/src/stm32f10x_tim.c **** }
 3276              		.loc 1 1646 0
 3277 0030 1437     		adds	r7, r7, #20
 3278 0032 BD46     		mov	sp, r7
 3279              		@ sp needed
 3280 0034 5DF8047B 		ldr	r7, [sp], #4
 3281 0038 7047     		bx	lr
 3282              		.cfi_endproc
 3283              	.LFE71:
 3285 003a 00BF     		.section	.text.TIM_OC3FastConfig,"ax",%progbits
 3286              		.align	2
 3287              		.global	TIM_OC3FastConfig
 3288              		.thumb
 3289              		.thumb_func
 3291              	TIM_OC3FastConfig:
 3292              	.LFB72:
1647:../Libraries/StdPeripheralDriver/src/stm32f10x_tim.c **** 
1648:../Libraries/StdPeripheralDriver/src/stm32f10x_tim.c **** /**
1649:../Libraries/StdPeripheralDriver/src/stm32f10x_tim.c ****   * @brief  Configures the TIMx Output Compare 3 Fast feature.
1650:../Libraries/StdPeripheralDriver/src/stm32f10x_tim.c ****   * @param  TIMx: where x can be  1, 2, 3, 4, 5 or 8 to select the TIM peripheral.
1651:../Libraries/StdPeripheralDriver/src/stm32f10x_tim.c ****   * @param  TIM_OCFast: new state of the Output Compare Fast Enable Bit.
1652:../Libraries/StdPeripheralDriver/src/stm32f10x_tim.c ****   *   This parameter can be one of the following values:
1653:../Libraries/StdPeripheralDriver/src/stm32f10x_tim.c ****   *     @arg TIM_OCFast_Enable: TIM output compare fast enable
1654:../Libraries/StdPeripheralDriver/src/stm32f10x_tim.c ****   *     @arg TIM_OCFast_Disable: TIM output compare fast disable
1655:../Libraries/StdPeripheralDriver/src/stm32f10x_tim.c ****   * @retval None
1656:../Libraries/StdPeripheralDriver/src/stm32f10x_tim.c ****   */
1657:../Libraries/StdPeripheralDriver/src/stm32f10x_tim.c **** void TIM_OC3FastConfig(TIM_TypeDef* TIMx, uint16_t TIM_OCFast)
1658:../Libraries/StdPeripheralDriver/src/stm32f10x_tim.c **** {
 3293              		.loc 1 1658 0
 3294              		.cfi_startproc
 3295              		@ args = 0, pretend = 0, frame = 16
 3296              		@ frame_needed = 1, uses_anonymous_args = 0
 3297              		@ link register save eliminated.
 3298 0000 80B4     		push	{r7}
 3299              		.cfi_def_cfa_offset 4
 3300              		.cfi_offset 7, -4
 3301 0002 85B0     		sub	sp, sp, #20
 3302              		.cfi_def_cfa_offset 24
 3303 0004 00AF     		add	r7, sp, #0
 3304              		.cfi_def_cfa_register 7
 3305 0006 7860     		str	r0, [r7, #4]
 3306 0008 0B46     		mov	r3, r1
 3307 000a 7B80     		strh	r3, [r7, #2]	@ movhi
1659:../Libraries/StdPeripheralDriver/src/stm32f10x_tim.c ****   uint16_t tmpccmr2 = 0;
 3308              		.loc 1 1659 0
 3309 000c 0023     		movs	r3, #0
 3310 000e FB81     		strh	r3, [r7, #14]	@ movhi
1660:../Libraries/StdPeripheralDriver/src/stm32f10x_tim.c ****   /* Check the parameters */
1661:../Libraries/StdPeripheralDriver/src/stm32f10x_tim.c ****   assert_param(IS_TIM_LIST3_PERIPH(TIMx));
1662:../Libraries/StdPeripheralDriver/src/stm32f10x_tim.c ****   assert_param(IS_TIM_OCFAST_STATE(TIM_OCFast));
1663:../Libraries/StdPeripheralDriver/src/stm32f10x_tim.c ****   /* Get the TIMx CCMR2 register value */
1664:../Libraries/StdPeripheralDriver/src/stm32f10x_tim.c ****   tmpccmr2 = TIMx->CCMR2;
 3311              		.loc 1 1664 0
 3312 0010 7B68     		ldr	r3, [r7, #4]
 3313 0012 9B8B     		ldrh	r3, [r3, #28]	@ movhi
 3314 0014 FB81     		strh	r3, [r7, #14]	@ movhi
1665:../Libraries/StdPeripheralDriver/src/stm32f10x_tim.c ****   /* Reset the OC3FE Bit */
1666:../Libraries/StdPeripheralDriver/src/stm32f10x_tim.c ****   tmpccmr2 &= (uint16_t)~((uint16_t)TIM_CCMR2_OC3FE);
 3315              		.loc 1 1666 0
 3316 0016 FB89     		ldrh	r3, [r7, #14]	@ movhi
 3317 0018 23F00403 		bic	r3, r3, #4
 3318 001c FB81     		strh	r3, [r7, #14]	@ movhi
1667:../Libraries/StdPeripheralDriver/src/stm32f10x_tim.c ****   /* Enable or Disable the Output Compare Fast Bit */
1668:../Libraries/StdPeripheralDriver/src/stm32f10x_tim.c ****   tmpccmr2 |= TIM_OCFast;
 3319              		.loc 1 1668 0
 3320 001e FA89     		ldrh	r2, [r7, #14]	@ movhi
 3321 0020 7B88     		ldrh	r3, [r7, #2]	@ movhi
 3322 0022 1343     		orrs	r3, r3, r2
 3323 0024 FB81     		strh	r3, [r7, #14]	@ movhi
1669:../Libraries/StdPeripheralDriver/src/stm32f10x_tim.c ****   /* Write to TIMx CCMR2 */
1670:../Libraries/StdPeripheralDriver/src/stm32f10x_tim.c ****   TIMx->CCMR2 = tmpccmr2;
 3324              		.loc 1 1670 0
 3325 0026 7B68     		ldr	r3, [r7, #4]
 3326 0028 FA89     		ldrh	r2, [r7, #14]	@ movhi
 3327 002a 9A83     		strh	r2, [r3, #28]	@ movhi
1671:../Libraries/StdPeripheralDriver/src/stm32f10x_tim.c **** }
 3328              		.loc 1 1671 0
 3329 002c 1437     		adds	r7, r7, #20
 3330 002e BD46     		mov	sp, r7
 3331              		@ sp needed
 3332 0030 5DF8047B 		ldr	r7, [sp], #4
 3333 0034 7047     		bx	lr
 3334              		.cfi_endproc
 3335              	.LFE72:
 3337 0036 00BF     		.section	.text.TIM_OC4FastConfig,"ax",%progbits
 3338              		.align	2
 3339              		.global	TIM_OC4FastConfig
 3340              		.thumb
 3341              		.thumb_func
 3343              	TIM_OC4FastConfig:
 3344              	.LFB73:
1672:../Libraries/StdPeripheralDriver/src/stm32f10x_tim.c **** 
1673:../Libraries/StdPeripheralDriver/src/stm32f10x_tim.c **** /**
1674:../Libraries/StdPeripheralDriver/src/stm32f10x_tim.c ****   * @brief  Configures the TIMx Output Compare 4 Fast feature.
1675:../Libraries/StdPeripheralDriver/src/stm32f10x_tim.c ****   * @param  TIMx: where x can be  1, 2, 3, 4, 5 or 8 to select the TIM peripheral.
1676:../Libraries/StdPeripheralDriver/src/stm32f10x_tim.c ****   * @param  TIM_OCFast: new state of the Output Compare Fast Enable Bit.
1677:../Libraries/StdPeripheralDriver/src/stm32f10x_tim.c ****   *   This parameter can be one of the following values:
1678:../Libraries/StdPeripheralDriver/src/stm32f10x_tim.c ****   *     @arg TIM_OCFast_Enable: TIM output compare fast enable
1679:../Libraries/StdPeripheralDriver/src/stm32f10x_tim.c ****   *     @arg TIM_OCFast_Disable: TIM output compare fast disable
1680:../Libraries/StdPeripheralDriver/src/stm32f10x_tim.c ****   * @retval None
1681:../Libraries/StdPeripheralDriver/src/stm32f10x_tim.c ****   */
1682:../Libraries/StdPeripheralDriver/src/stm32f10x_tim.c **** void TIM_OC4FastConfig(TIM_TypeDef* TIMx, uint16_t TIM_OCFast)
1683:../Libraries/StdPeripheralDriver/src/stm32f10x_tim.c **** {
 3345              		.loc 1 1683 0
 3346              		.cfi_startproc
 3347              		@ args = 0, pretend = 0, frame = 16
 3348              		@ frame_needed = 1, uses_anonymous_args = 0
 3349              		@ link register save eliminated.
 3350 0000 80B4     		push	{r7}
 3351              		.cfi_def_cfa_offset 4
 3352              		.cfi_offset 7, -4
 3353 0002 85B0     		sub	sp, sp, #20
 3354              		.cfi_def_cfa_offset 24
 3355 0004 00AF     		add	r7, sp, #0
 3356              		.cfi_def_cfa_register 7
 3357 0006 7860     		str	r0, [r7, #4]
 3358 0008 0B46     		mov	r3, r1
 3359 000a 7B80     		strh	r3, [r7, #2]	@ movhi
1684:../Libraries/StdPeripheralDriver/src/stm32f10x_tim.c ****   uint16_t tmpccmr2 = 0;
 3360              		.loc 1 1684 0
 3361 000c 0023     		movs	r3, #0
 3362 000e FB81     		strh	r3, [r7, #14]	@ movhi
1685:../Libraries/StdPeripheralDriver/src/stm32f10x_tim.c ****   /* Check the parameters */
1686:../Libraries/StdPeripheralDriver/src/stm32f10x_tim.c ****   assert_param(IS_TIM_LIST3_PERIPH(TIMx));
1687:../Libraries/StdPeripheralDriver/src/stm32f10x_tim.c ****   assert_param(IS_TIM_OCFAST_STATE(TIM_OCFast));
1688:../Libraries/StdPeripheralDriver/src/stm32f10x_tim.c ****   /* Get the TIMx CCMR2 register value */
1689:../Libraries/StdPeripheralDriver/src/stm32f10x_tim.c ****   tmpccmr2 = TIMx->CCMR2;
 3363              		.loc 1 1689 0
 3364 0010 7B68     		ldr	r3, [r7, #4]
 3365 0012 9B8B     		ldrh	r3, [r3, #28]	@ movhi
 3366 0014 FB81     		strh	r3, [r7, #14]	@ movhi
1690:../Libraries/StdPeripheralDriver/src/stm32f10x_tim.c ****   /* Reset the OC4FE Bit */
1691:../Libraries/StdPeripheralDriver/src/stm32f10x_tim.c ****   tmpccmr2 &= (uint16_t)~((uint16_t)TIM_CCMR2_OC4FE);
 3367              		.loc 1 1691 0
 3368 0016 FB89     		ldrh	r3, [r7, #14]	@ movhi
 3369 0018 23F48063 		bic	r3, r3, #1024
 3370 001c FB81     		strh	r3, [r7, #14]	@ movhi
1692:../Libraries/StdPeripheralDriver/src/stm32f10x_tim.c ****   /* Enable or Disable the Output Compare Fast Bit */
1693:../Libraries/StdPeripheralDriver/src/stm32f10x_tim.c ****   tmpccmr2 |= (uint16_t)(TIM_OCFast << 8);
 3371              		.loc 1 1693 0
 3372 001e 7B88     		ldrh	r3, [r7, #2]	@ movhi
 3373 0020 1B02     		lsls	r3, r3, #8
 3374 0022 9AB2     		uxth	r2, r3
 3375 0024 FB89     		ldrh	r3, [r7, #14]	@ movhi
 3376 0026 1343     		orrs	r3, r3, r2
 3377 0028 FB81     		strh	r3, [r7, #14]	@ movhi
1694:../Libraries/StdPeripheralDriver/src/stm32f10x_tim.c ****   /* Write to TIMx CCMR2 */
1695:../Libraries/StdPeripheralDriver/src/stm32f10x_tim.c ****   TIMx->CCMR2 = tmpccmr2;
 3378              		.loc 1 1695 0
 3379 002a 7B68     		ldr	r3, [r7, #4]
 3380 002c FA89     		ldrh	r2, [r7, #14]	@ movhi
 3381 002e 9A83     		strh	r2, [r3, #28]	@ movhi
1696:../Libraries/StdPeripheralDriver/src/stm32f10x_tim.c **** }
 3382              		.loc 1 1696 0
 3383 0030 1437     		adds	r7, r7, #20
 3384 0032 BD46     		mov	sp, r7
 3385              		@ sp needed
 3386 0034 5DF8047B 		ldr	r7, [sp], #4
 3387 0038 7047     		bx	lr
 3388              		.cfi_endproc
 3389              	.LFE73:
 3391 003a 00BF     		.section	.text.TIM_ClearOC1Ref,"ax",%progbits
 3392              		.align	2
 3393              		.global	TIM_ClearOC1Ref
 3394              		.thumb
 3395              		.thumb_func
 3397              	TIM_ClearOC1Ref:
 3398              	.LFB74:
1697:../Libraries/StdPeripheralDriver/src/stm32f10x_tim.c **** 
1698:../Libraries/StdPeripheralDriver/src/stm32f10x_tim.c **** /**
1699:../Libraries/StdPeripheralDriver/src/stm32f10x_tim.c ****   * @brief  Clears or safeguards the OCREF1 signal on an external event
1700:../Libraries/StdPeripheralDriver/src/stm32f10x_tim.c ****   * @param  TIMx: where x can be  1, 2, 3, 4, 5 or 8 to select the TIM peripheral.
1701:../Libraries/StdPeripheralDriver/src/stm32f10x_tim.c ****   * @param  TIM_OCClear: new state of the Output Compare Clear Enable Bit.
1702:../Libraries/StdPeripheralDriver/src/stm32f10x_tim.c ****   *   This parameter can be one of the following values:
1703:../Libraries/StdPeripheralDriver/src/stm32f10x_tim.c ****   *     @arg TIM_OCClear_Enable: TIM Output clear enable
1704:../Libraries/StdPeripheralDriver/src/stm32f10x_tim.c ****   *     @arg TIM_OCClear_Disable: TIM Output clear disable
1705:../Libraries/StdPeripheralDriver/src/stm32f10x_tim.c ****   * @retval None
1706:../Libraries/StdPeripheralDriver/src/stm32f10x_tim.c ****   */
1707:../Libraries/StdPeripheralDriver/src/stm32f10x_tim.c **** void TIM_ClearOC1Ref(TIM_TypeDef* TIMx, uint16_t TIM_OCClear)
1708:../Libraries/StdPeripheralDriver/src/stm32f10x_tim.c **** {
 3399              		.loc 1 1708 0
 3400              		.cfi_startproc
 3401              		@ args = 0, pretend = 0, frame = 16
 3402              		@ frame_needed = 1, uses_anonymous_args = 0
 3403              		@ link register save eliminated.
 3404 0000 80B4     		push	{r7}
 3405              		.cfi_def_cfa_offset 4
 3406              		.cfi_offset 7, -4
 3407 0002 85B0     		sub	sp, sp, #20
 3408              		.cfi_def_cfa_offset 24
 3409 0004 00AF     		add	r7, sp, #0
 3410              		.cfi_def_cfa_register 7
 3411 0006 7860     		str	r0, [r7, #4]
 3412 0008 0B46     		mov	r3, r1
 3413 000a 7B80     		strh	r3, [r7, #2]	@ movhi
1709:../Libraries/StdPeripheralDriver/src/stm32f10x_tim.c ****   uint16_t tmpccmr1 = 0;
 3414              		.loc 1 1709 0
 3415 000c 0023     		movs	r3, #0
 3416 000e FB81     		strh	r3, [r7, #14]	@ movhi
1710:../Libraries/StdPeripheralDriver/src/stm32f10x_tim.c ****   /* Check the parameters */
1711:../Libraries/StdPeripheralDriver/src/stm32f10x_tim.c ****   assert_param(IS_TIM_LIST3_PERIPH(TIMx));
1712:../Libraries/StdPeripheralDriver/src/stm32f10x_tim.c ****   assert_param(IS_TIM_OCCLEAR_STATE(TIM_OCClear));
1713:../Libraries/StdPeripheralDriver/src/stm32f10x_tim.c **** 
1714:../Libraries/StdPeripheralDriver/src/stm32f10x_tim.c ****   tmpccmr1 = TIMx->CCMR1;
 3417              		.loc 1 1714 0
 3418 0010 7B68     		ldr	r3, [r7, #4]
 3419 0012 1B8B     		ldrh	r3, [r3, #24]	@ movhi
 3420 0014 FB81     		strh	r3, [r7, #14]	@ movhi
1715:../Libraries/StdPeripheralDriver/src/stm32f10x_tim.c **** 
1716:../Libraries/StdPeripheralDriver/src/stm32f10x_tim.c ****   /* Reset the OC1CE Bit */
1717:../Libraries/StdPeripheralDriver/src/stm32f10x_tim.c ****   tmpccmr1 &= (uint16_t)~((uint16_t)TIM_CCMR1_OC1CE);
 3421              		.loc 1 1717 0
 3422 0016 FB89     		ldrh	r3, [r7, #14]	@ movhi
 3423 0018 23F08003 		bic	r3, r3, #128
 3424 001c FB81     		strh	r3, [r7, #14]	@ movhi
1718:../Libraries/StdPeripheralDriver/src/stm32f10x_tim.c ****   /* Enable or Disable the Output Compare Clear Bit */
1719:../Libraries/StdPeripheralDriver/src/stm32f10x_tim.c ****   tmpccmr1 |= TIM_OCClear;
 3425              		.loc 1 1719 0
 3426 001e FA89     		ldrh	r2, [r7, #14]	@ movhi
 3427 0020 7B88     		ldrh	r3, [r7, #2]	@ movhi
 3428 0022 1343     		orrs	r3, r3, r2
 3429 0024 FB81     		strh	r3, [r7, #14]	@ movhi
1720:../Libraries/StdPeripheralDriver/src/stm32f10x_tim.c ****   /* Write to TIMx CCMR1 register */
1721:../Libraries/StdPeripheralDriver/src/stm32f10x_tim.c ****   TIMx->CCMR1 = tmpccmr1;
 3430              		.loc 1 1721 0
 3431 0026 7B68     		ldr	r3, [r7, #4]
 3432 0028 FA89     		ldrh	r2, [r7, #14]	@ movhi
 3433 002a 1A83     		strh	r2, [r3, #24]	@ movhi
1722:../Libraries/StdPeripheralDriver/src/stm32f10x_tim.c **** }
 3434              		.loc 1 1722 0
 3435 002c 1437     		adds	r7, r7, #20
 3436 002e BD46     		mov	sp, r7
 3437              		@ sp needed
 3438 0030 5DF8047B 		ldr	r7, [sp], #4
 3439 0034 7047     		bx	lr
 3440              		.cfi_endproc
 3441              	.LFE74:
 3443 0036 00BF     		.section	.text.TIM_ClearOC2Ref,"ax",%progbits
 3444              		.align	2
 3445              		.global	TIM_ClearOC2Ref
 3446              		.thumb
 3447              		.thumb_func
 3449              	TIM_ClearOC2Ref:
 3450              	.LFB75:
1723:../Libraries/StdPeripheralDriver/src/stm32f10x_tim.c **** 
1724:../Libraries/StdPeripheralDriver/src/stm32f10x_tim.c **** /**
1725:../Libraries/StdPeripheralDriver/src/stm32f10x_tim.c ****   * @brief  Clears or safeguards the OCREF2 signal on an external event
1726:../Libraries/StdPeripheralDriver/src/stm32f10x_tim.c ****   * @param  TIMx: where x can be  1, 2, 3, 4, 5 or 8 to select the TIM peripheral.
1727:../Libraries/StdPeripheralDriver/src/stm32f10x_tim.c ****   * @param  TIM_OCClear: new state of the Output Compare Clear Enable Bit.
1728:../Libraries/StdPeripheralDriver/src/stm32f10x_tim.c ****   *   This parameter can be one of the following values:
1729:../Libraries/StdPeripheralDriver/src/stm32f10x_tim.c ****   *     @arg TIM_OCClear_Enable: TIM Output clear enable
1730:../Libraries/StdPeripheralDriver/src/stm32f10x_tim.c ****   *     @arg TIM_OCClear_Disable: TIM Output clear disable
1731:../Libraries/StdPeripheralDriver/src/stm32f10x_tim.c ****   * @retval None
1732:../Libraries/StdPeripheralDriver/src/stm32f10x_tim.c ****   */
1733:../Libraries/StdPeripheralDriver/src/stm32f10x_tim.c **** void TIM_ClearOC2Ref(TIM_TypeDef* TIMx, uint16_t TIM_OCClear)
1734:../Libraries/StdPeripheralDriver/src/stm32f10x_tim.c **** {
 3451              		.loc 1 1734 0
 3452              		.cfi_startproc
 3453              		@ args = 0, pretend = 0, frame = 16
 3454              		@ frame_needed = 1, uses_anonymous_args = 0
 3455              		@ link register save eliminated.
 3456 0000 80B4     		push	{r7}
 3457              		.cfi_def_cfa_offset 4
 3458              		.cfi_offset 7, -4
 3459 0002 85B0     		sub	sp, sp, #20
 3460              		.cfi_def_cfa_offset 24
 3461 0004 00AF     		add	r7, sp, #0
 3462              		.cfi_def_cfa_register 7
 3463 0006 7860     		str	r0, [r7, #4]
 3464 0008 0B46     		mov	r3, r1
 3465 000a 7B80     		strh	r3, [r7, #2]	@ movhi
1735:../Libraries/StdPeripheralDriver/src/stm32f10x_tim.c ****   uint16_t tmpccmr1 = 0;
 3466              		.loc 1 1735 0
 3467 000c 0023     		movs	r3, #0
 3468 000e FB81     		strh	r3, [r7, #14]	@ movhi
1736:../Libraries/StdPeripheralDriver/src/stm32f10x_tim.c ****   /* Check the parameters */
1737:../Libraries/StdPeripheralDriver/src/stm32f10x_tim.c ****   assert_param(IS_TIM_LIST3_PERIPH(TIMx));
1738:../Libraries/StdPeripheralDriver/src/stm32f10x_tim.c ****   assert_param(IS_TIM_OCCLEAR_STATE(TIM_OCClear));
1739:../Libraries/StdPeripheralDriver/src/stm32f10x_tim.c ****   tmpccmr1 = TIMx->CCMR1;
 3469              		.loc 1 1739 0
 3470 0010 7B68     		ldr	r3, [r7, #4]
 3471 0012 1B8B     		ldrh	r3, [r3, #24]	@ movhi
 3472 0014 FB81     		strh	r3, [r7, #14]	@ movhi
1740:../Libraries/StdPeripheralDriver/src/stm32f10x_tim.c ****   /* Reset the OC2CE Bit */
1741:../Libraries/StdPeripheralDriver/src/stm32f10x_tim.c ****   tmpccmr1 &= (uint16_t)~((uint16_t)TIM_CCMR1_OC2CE);
 3473              		.loc 1 1741 0
 3474 0016 FB89     		ldrh	r3, [r7, #14]	@ movhi
 3475 0018 C3F30E03 		ubfx	r3, r3, #0, #15
 3476 001c FB81     		strh	r3, [r7, #14]	@ movhi
1742:../Libraries/StdPeripheralDriver/src/stm32f10x_tim.c ****   /* Enable or Disable the Output Compare Clear Bit */
1743:../Libraries/StdPeripheralDriver/src/stm32f10x_tim.c ****   tmpccmr1 |= (uint16_t)(TIM_OCClear << 8);
 3477              		.loc 1 1743 0
 3478 001e 7B88     		ldrh	r3, [r7, #2]	@ movhi
 3479 0020 1B02     		lsls	r3, r3, #8
 3480 0022 9AB2     		uxth	r2, r3
 3481 0024 FB89     		ldrh	r3, [r7, #14]	@ movhi
 3482 0026 1343     		orrs	r3, r3, r2
 3483 0028 FB81     		strh	r3, [r7, #14]	@ movhi
1744:../Libraries/StdPeripheralDriver/src/stm32f10x_tim.c ****   /* Write to TIMx CCMR1 register */
1745:../Libraries/StdPeripheralDriver/src/stm32f10x_tim.c ****   TIMx->CCMR1 = tmpccmr1;
 3484              		.loc 1 1745 0
 3485 002a 7B68     		ldr	r3, [r7, #4]
 3486 002c FA89     		ldrh	r2, [r7, #14]	@ movhi
 3487 002e 1A83     		strh	r2, [r3, #24]	@ movhi
1746:../Libraries/StdPeripheralDriver/src/stm32f10x_tim.c **** }
 3488              		.loc 1 1746 0
 3489 0030 1437     		adds	r7, r7, #20
 3490 0032 BD46     		mov	sp, r7
 3491              		@ sp needed
 3492 0034 5DF8047B 		ldr	r7, [sp], #4
 3493 0038 7047     		bx	lr
 3494              		.cfi_endproc
 3495              	.LFE75:
 3497 003a 00BF     		.section	.text.TIM_ClearOC3Ref,"ax",%progbits
 3498              		.align	2
 3499              		.global	TIM_ClearOC3Ref
 3500              		.thumb
 3501              		.thumb_func
 3503              	TIM_ClearOC3Ref:
 3504              	.LFB76:
1747:../Libraries/StdPeripheralDriver/src/stm32f10x_tim.c **** 
1748:../Libraries/StdPeripheralDriver/src/stm32f10x_tim.c **** /**
1749:../Libraries/StdPeripheralDriver/src/stm32f10x_tim.c ****   * @brief  Clears or safeguards the OCREF3 signal on an external event
1750:../Libraries/StdPeripheralDriver/src/stm32f10x_tim.c ****   * @param  TIMx: where x can be  1, 2, 3, 4, 5 or 8 to select the TIM peripheral.
1751:../Libraries/StdPeripheralDriver/src/stm32f10x_tim.c ****   * @param  TIM_OCClear: new state of the Output Compare Clear Enable Bit.
1752:../Libraries/StdPeripheralDriver/src/stm32f10x_tim.c ****   *   This parameter can be one of the following values:
1753:../Libraries/StdPeripheralDriver/src/stm32f10x_tim.c ****   *     @arg TIM_OCClear_Enable: TIM Output clear enable
1754:../Libraries/StdPeripheralDriver/src/stm32f10x_tim.c ****   *     @arg TIM_OCClear_Disable: TIM Output clear disable
1755:../Libraries/StdPeripheralDriver/src/stm32f10x_tim.c ****   * @retval None
1756:../Libraries/StdPeripheralDriver/src/stm32f10x_tim.c ****   */
1757:../Libraries/StdPeripheralDriver/src/stm32f10x_tim.c **** void TIM_ClearOC3Ref(TIM_TypeDef* TIMx, uint16_t TIM_OCClear)
1758:../Libraries/StdPeripheralDriver/src/stm32f10x_tim.c **** {
 3505              		.loc 1 1758 0
 3506              		.cfi_startproc
 3507              		@ args = 0, pretend = 0, frame = 16
 3508              		@ frame_needed = 1, uses_anonymous_args = 0
 3509              		@ link register save eliminated.
 3510 0000 80B4     		push	{r7}
 3511              		.cfi_def_cfa_offset 4
 3512              		.cfi_offset 7, -4
 3513 0002 85B0     		sub	sp, sp, #20
 3514              		.cfi_def_cfa_offset 24
 3515 0004 00AF     		add	r7, sp, #0
 3516              		.cfi_def_cfa_register 7
 3517 0006 7860     		str	r0, [r7, #4]
 3518 0008 0B46     		mov	r3, r1
 3519 000a 7B80     		strh	r3, [r7, #2]	@ movhi
1759:../Libraries/StdPeripheralDriver/src/stm32f10x_tim.c ****   uint16_t tmpccmr2 = 0;
 3520              		.loc 1 1759 0
 3521 000c 0023     		movs	r3, #0
 3522 000e FB81     		strh	r3, [r7, #14]	@ movhi
1760:../Libraries/StdPeripheralDriver/src/stm32f10x_tim.c ****   /* Check the parameters */
1761:../Libraries/StdPeripheralDriver/src/stm32f10x_tim.c ****   assert_param(IS_TIM_LIST3_PERIPH(TIMx));
1762:../Libraries/StdPeripheralDriver/src/stm32f10x_tim.c ****   assert_param(IS_TIM_OCCLEAR_STATE(TIM_OCClear));
1763:../Libraries/StdPeripheralDriver/src/stm32f10x_tim.c ****   tmpccmr2 = TIMx->CCMR2;
 3523              		.loc 1 1763 0
 3524 0010 7B68     		ldr	r3, [r7, #4]
 3525 0012 9B8B     		ldrh	r3, [r3, #28]	@ movhi
 3526 0014 FB81     		strh	r3, [r7, #14]	@ movhi
1764:../Libraries/StdPeripheralDriver/src/stm32f10x_tim.c ****   /* Reset the OC3CE Bit */
1765:../Libraries/StdPeripheralDriver/src/stm32f10x_tim.c ****   tmpccmr2 &= (uint16_t)~((uint16_t)TIM_CCMR2_OC3CE);
 3527              		.loc 1 1765 0
 3528 0016 FB89     		ldrh	r3, [r7, #14]	@ movhi
 3529 0018 23F08003 		bic	r3, r3, #128
 3530 001c FB81     		strh	r3, [r7, #14]	@ movhi
1766:../Libraries/StdPeripheralDriver/src/stm32f10x_tim.c ****   /* Enable or Disable the Output Compare Clear Bit */
1767:../Libraries/StdPeripheralDriver/src/stm32f10x_tim.c ****   tmpccmr2 |= TIM_OCClear;
 3531              		.loc 1 1767 0
 3532 001e FA89     		ldrh	r2, [r7, #14]	@ movhi
 3533 0020 7B88     		ldrh	r3, [r7, #2]	@ movhi
 3534 0022 1343     		orrs	r3, r3, r2
 3535 0024 FB81     		strh	r3, [r7, #14]	@ movhi
1768:../Libraries/StdPeripheralDriver/src/stm32f10x_tim.c ****   /* Write to TIMx CCMR2 register */
1769:../Libraries/StdPeripheralDriver/src/stm32f10x_tim.c ****   TIMx->CCMR2 = tmpccmr2;
 3536              		.loc 1 1769 0
 3537 0026 7B68     		ldr	r3, [r7, #4]
 3538 0028 FA89     		ldrh	r2, [r7, #14]	@ movhi
 3539 002a 9A83     		strh	r2, [r3, #28]	@ movhi
1770:../Libraries/StdPeripheralDriver/src/stm32f10x_tim.c **** }
 3540              		.loc 1 1770 0
 3541 002c 1437     		adds	r7, r7, #20
 3542 002e BD46     		mov	sp, r7
 3543              		@ sp needed
 3544 0030 5DF8047B 		ldr	r7, [sp], #4
 3545 0034 7047     		bx	lr
 3546              		.cfi_endproc
 3547              	.LFE76:
 3549 0036 00BF     		.section	.text.TIM_ClearOC4Ref,"ax",%progbits
 3550              		.align	2
 3551              		.global	TIM_ClearOC4Ref
 3552              		.thumb
 3553              		.thumb_func
 3555              	TIM_ClearOC4Ref:
 3556              	.LFB77:
1771:../Libraries/StdPeripheralDriver/src/stm32f10x_tim.c **** 
1772:../Libraries/StdPeripheralDriver/src/stm32f10x_tim.c **** /**
1773:../Libraries/StdPeripheralDriver/src/stm32f10x_tim.c ****   * @brief  Clears or safeguards the OCREF4 signal on an external event
1774:../Libraries/StdPeripheralDriver/src/stm32f10x_tim.c ****   * @param  TIMx: where x can be  1, 2, 3, 4, 5 or 8 to select the TIM peripheral.
1775:../Libraries/StdPeripheralDriver/src/stm32f10x_tim.c ****   * @param  TIM_OCClear: new state of the Output Compare Clear Enable Bit.
1776:../Libraries/StdPeripheralDriver/src/stm32f10x_tim.c ****   *   This parameter can be one of the following values:
1777:../Libraries/StdPeripheralDriver/src/stm32f10x_tim.c ****   *     @arg TIM_OCClear_Enable: TIM Output clear enable
1778:../Libraries/StdPeripheralDriver/src/stm32f10x_tim.c ****   *     @arg TIM_OCClear_Disable: TIM Output clear disable
1779:../Libraries/StdPeripheralDriver/src/stm32f10x_tim.c ****   * @retval None
1780:../Libraries/StdPeripheralDriver/src/stm32f10x_tim.c ****   */
1781:../Libraries/StdPeripheralDriver/src/stm32f10x_tim.c **** void TIM_ClearOC4Ref(TIM_TypeDef* TIMx, uint16_t TIM_OCClear)
1782:../Libraries/StdPeripheralDriver/src/stm32f10x_tim.c **** {
 3557              		.loc 1 1782 0
 3558              		.cfi_startproc
 3559              		@ args = 0, pretend = 0, frame = 16
 3560              		@ frame_needed = 1, uses_anonymous_args = 0
 3561              		@ link register save eliminated.
 3562 0000 80B4     		push	{r7}
 3563              		.cfi_def_cfa_offset 4
 3564              		.cfi_offset 7, -4
 3565 0002 85B0     		sub	sp, sp, #20
 3566              		.cfi_def_cfa_offset 24
 3567 0004 00AF     		add	r7, sp, #0
 3568              		.cfi_def_cfa_register 7
 3569 0006 7860     		str	r0, [r7, #4]
 3570 0008 0B46     		mov	r3, r1
 3571 000a 7B80     		strh	r3, [r7, #2]	@ movhi
1783:../Libraries/StdPeripheralDriver/src/stm32f10x_tim.c ****   uint16_t tmpccmr2 = 0;
 3572              		.loc 1 1783 0
 3573 000c 0023     		movs	r3, #0
 3574 000e FB81     		strh	r3, [r7, #14]	@ movhi
1784:../Libraries/StdPeripheralDriver/src/stm32f10x_tim.c ****   /* Check the parameters */
1785:../Libraries/StdPeripheralDriver/src/stm32f10x_tim.c ****   assert_param(IS_TIM_LIST3_PERIPH(TIMx));
1786:../Libraries/StdPeripheralDriver/src/stm32f10x_tim.c ****   assert_param(IS_TIM_OCCLEAR_STATE(TIM_OCClear));
1787:../Libraries/StdPeripheralDriver/src/stm32f10x_tim.c ****   tmpccmr2 = TIMx->CCMR2;
 3575              		.loc 1 1787 0
 3576 0010 7B68     		ldr	r3, [r7, #4]
 3577 0012 9B8B     		ldrh	r3, [r3, #28]	@ movhi
 3578 0014 FB81     		strh	r3, [r7, #14]	@ movhi
1788:../Libraries/StdPeripheralDriver/src/stm32f10x_tim.c ****   /* Reset the OC4CE Bit */
1789:../Libraries/StdPeripheralDriver/src/stm32f10x_tim.c ****   tmpccmr2 &= (uint16_t)~((uint16_t)TIM_CCMR2_OC4CE);
 3579              		.loc 1 1789 0
 3580 0016 FB89     		ldrh	r3, [r7, #14]	@ movhi
 3581 0018 C3F30E03 		ubfx	r3, r3, #0, #15
 3582 001c FB81     		strh	r3, [r7, #14]	@ movhi
1790:../Libraries/StdPeripheralDriver/src/stm32f10x_tim.c ****   /* Enable or Disable the Output Compare Clear Bit */
1791:../Libraries/StdPeripheralDriver/src/stm32f10x_tim.c ****   tmpccmr2 |= (uint16_t)(TIM_OCClear << 8);
 3583              		.loc 1 1791 0
 3584 001e 7B88     		ldrh	r3, [r7, #2]	@ movhi
 3585 0020 1B02     		lsls	r3, r3, #8
 3586 0022 9AB2     		uxth	r2, r3
 3587 0024 FB89     		ldrh	r3, [r7, #14]	@ movhi
 3588 0026 1343     		orrs	r3, r3, r2
 3589 0028 FB81     		strh	r3, [r7, #14]	@ movhi
1792:../Libraries/StdPeripheralDriver/src/stm32f10x_tim.c ****   /* Write to TIMx CCMR2 register */
1793:../Libraries/StdPeripheralDriver/src/stm32f10x_tim.c ****   TIMx->CCMR2 = tmpccmr2;
 3590              		.loc 1 1793 0
 3591 002a 7B68     		ldr	r3, [r7, #4]
 3592 002c FA89     		ldrh	r2, [r7, #14]	@ movhi
 3593 002e 9A83     		strh	r2, [r3, #28]	@ movhi
1794:../Libraries/StdPeripheralDriver/src/stm32f10x_tim.c **** }
 3594              		.loc 1 1794 0
 3595 0030 1437     		adds	r7, r7, #20
 3596 0032 BD46     		mov	sp, r7
 3597              		@ sp needed
 3598 0034 5DF8047B 		ldr	r7, [sp], #4
 3599 0038 7047     		bx	lr
 3600              		.cfi_endproc
 3601              	.LFE77:
 3603 003a 00BF     		.section	.text.TIM_OC1PolarityConfig,"ax",%progbits
 3604              		.align	2
 3605              		.global	TIM_OC1PolarityConfig
 3606              		.thumb
 3607              		.thumb_func
 3609              	TIM_OC1PolarityConfig:
 3610              	.LFB78:
1795:../Libraries/StdPeripheralDriver/src/stm32f10x_tim.c **** 
1796:../Libraries/StdPeripheralDriver/src/stm32f10x_tim.c **** /**
1797:../Libraries/StdPeripheralDriver/src/stm32f10x_tim.c ****   * @brief  Configures the TIMx channel 1 polarity.
1798:../Libraries/StdPeripheralDriver/src/stm32f10x_tim.c ****   * @param  TIMx: where x can be 1 to 17 except 6 and 7 to select the TIM peripheral.
1799:../Libraries/StdPeripheralDriver/src/stm32f10x_tim.c ****   * @param  TIM_OCPolarity: specifies the OC1 Polarity
1800:../Libraries/StdPeripheralDriver/src/stm32f10x_tim.c ****   *   This parameter can be one of the following values:
1801:../Libraries/StdPeripheralDriver/src/stm32f10x_tim.c ****   *     @arg TIM_OCPolarity_High: Output Compare active high
1802:../Libraries/StdPeripheralDriver/src/stm32f10x_tim.c ****   *     @arg TIM_OCPolarity_Low: Output Compare active low
1803:../Libraries/StdPeripheralDriver/src/stm32f10x_tim.c ****   * @retval None
1804:../Libraries/StdPeripheralDriver/src/stm32f10x_tim.c ****   */
1805:../Libraries/StdPeripheralDriver/src/stm32f10x_tim.c **** void TIM_OC1PolarityConfig(TIM_TypeDef* TIMx, uint16_t TIM_OCPolarity)
1806:../Libraries/StdPeripheralDriver/src/stm32f10x_tim.c **** {
 3611              		.loc 1 1806 0
 3612              		.cfi_startproc
 3613              		@ args = 0, pretend = 0, frame = 16
 3614              		@ frame_needed = 1, uses_anonymous_args = 0
 3615              		@ link register save eliminated.
 3616 0000 80B4     		push	{r7}
 3617              		.cfi_def_cfa_offset 4
 3618              		.cfi_offset 7, -4
 3619 0002 85B0     		sub	sp, sp, #20
 3620              		.cfi_def_cfa_offset 24
 3621 0004 00AF     		add	r7, sp, #0
 3622              		.cfi_def_cfa_register 7
 3623 0006 7860     		str	r0, [r7, #4]
 3624 0008 0B46     		mov	r3, r1
 3625 000a 7B80     		strh	r3, [r7, #2]	@ movhi
1807:../Libraries/StdPeripheralDriver/src/stm32f10x_tim.c ****   uint16_t tmpccer = 0;
 3626              		.loc 1 1807 0
 3627 000c 0023     		movs	r3, #0
 3628 000e FB81     		strh	r3, [r7, #14]	@ movhi
1808:../Libraries/StdPeripheralDriver/src/stm32f10x_tim.c ****   /* Check the parameters */
1809:../Libraries/StdPeripheralDriver/src/stm32f10x_tim.c ****   assert_param(IS_TIM_LIST8_PERIPH(TIMx));
1810:../Libraries/StdPeripheralDriver/src/stm32f10x_tim.c ****   assert_param(IS_TIM_OC_POLARITY(TIM_OCPolarity));
1811:../Libraries/StdPeripheralDriver/src/stm32f10x_tim.c ****   tmpccer = TIMx->CCER;
 3629              		.loc 1 1811 0
 3630 0010 7B68     		ldr	r3, [r7, #4]
 3631 0012 1B8C     		ldrh	r3, [r3, #32]	@ movhi
 3632 0014 FB81     		strh	r3, [r7, #14]	@ movhi
1812:../Libraries/StdPeripheralDriver/src/stm32f10x_tim.c ****   /* Set or Reset the CC1P Bit */
1813:../Libraries/StdPeripheralDriver/src/stm32f10x_tim.c ****   tmpccer &= (uint16_t)~((uint16_t)TIM_CCER_CC1P);
 3633              		.loc 1 1813 0
 3634 0016 FB89     		ldrh	r3, [r7, #14]	@ movhi
 3635 0018 23F00203 		bic	r3, r3, #2
 3636 001c FB81     		strh	r3, [r7, #14]	@ movhi
1814:../Libraries/StdPeripheralDriver/src/stm32f10x_tim.c ****   tmpccer |= TIM_OCPolarity;
 3637              		.loc 1 1814 0
 3638 001e FA89     		ldrh	r2, [r7, #14]	@ movhi
 3639 0020 7B88     		ldrh	r3, [r7, #2]	@ movhi
 3640 0022 1343     		orrs	r3, r3, r2
 3641 0024 FB81     		strh	r3, [r7, #14]	@ movhi
1815:../Libraries/StdPeripheralDriver/src/stm32f10x_tim.c ****   /* Write to TIMx CCER register */
1816:../Libraries/StdPeripheralDriver/src/stm32f10x_tim.c ****   TIMx->CCER = tmpccer;
 3642              		.loc 1 1816 0
 3643 0026 7B68     		ldr	r3, [r7, #4]
 3644 0028 FA89     		ldrh	r2, [r7, #14]	@ movhi
 3645 002a 1A84     		strh	r2, [r3, #32]	@ movhi
1817:../Libraries/StdPeripheralDriver/src/stm32f10x_tim.c **** }
 3646              		.loc 1 1817 0
 3647 002c 1437     		adds	r7, r7, #20
 3648 002e BD46     		mov	sp, r7
 3649              		@ sp needed
 3650 0030 5DF8047B 		ldr	r7, [sp], #4
 3651 0034 7047     		bx	lr
 3652              		.cfi_endproc
 3653              	.LFE78:
 3655 0036 00BF     		.section	.text.TIM_OC1NPolarityConfig,"ax",%progbits
 3656              		.align	2
 3657              		.global	TIM_OC1NPolarityConfig
 3658              		.thumb
 3659              		.thumb_func
 3661              	TIM_OC1NPolarityConfig:
 3662              	.LFB79:
1818:../Libraries/StdPeripheralDriver/src/stm32f10x_tim.c **** 
1819:../Libraries/StdPeripheralDriver/src/stm32f10x_tim.c **** /**
1820:../Libraries/StdPeripheralDriver/src/stm32f10x_tim.c ****   * @brief  Configures the TIMx Channel 1N polarity.
1821:../Libraries/StdPeripheralDriver/src/stm32f10x_tim.c ****   * @param  TIMx: where x can be 1, 8, 15, 16 or 17 to select the TIM peripheral.
1822:../Libraries/StdPeripheralDriver/src/stm32f10x_tim.c ****   * @param  TIM_OCNPolarity: specifies the OC1N Polarity
1823:../Libraries/StdPeripheralDriver/src/stm32f10x_tim.c ****   *   This parameter can be one of the following values:
1824:../Libraries/StdPeripheralDriver/src/stm32f10x_tim.c ****   *     @arg TIM_OCNPolarity_High: Output Compare active high
1825:../Libraries/StdPeripheralDriver/src/stm32f10x_tim.c ****   *     @arg TIM_OCNPolarity_Low: Output Compare active low
1826:../Libraries/StdPeripheralDriver/src/stm32f10x_tim.c ****   * @retval None
1827:../Libraries/StdPeripheralDriver/src/stm32f10x_tim.c ****   */
1828:../Libraries/StdPeripheralDriver/src/stm32f10x_tim.c **** void TIM_OC1NPolarityConfig(TIM_TypeDef* TIMx, uint16_t TIM_OCNPolarity)
1829:../Libraries/StdPeripheralDriver/src/stm32f10x_tim.c **** {
 3663              		.loc 1 1829 0
 3664              		.cfi_startproc
 3665              		@ args = 0, pretend = 0, frame = 16
 3666              		@ frame_needed = 1, uses_anonymous_args = 0
 3667              		@ link register save eliminated.
 3668 0000 80B4     		push	{r7}
 3669              		.cfi_def_cfa_offset 4
 3670              		.cfi_offset 7, -4
 3671 0002 85B0     		sub	sp, sp, #20
 3672              		.cfi_def_cfa_offset 24
 3673 0004 00AF     		add	r7, sp, #0
 3674              		.cfi_def_cfa_register 7
 3675 0006 7860     		str	r0, [r7, #4]
 3676 0008 0B46     		mov	r3, r1
 3677 000a 7B80     		strh	r3, [r7, #2]	@ movhi
1830:../Libraries/StdPeripheralDriver/src/stm32f10x_tim.c ****   uint16_t tmpccer = 0;
 3678              		.loc 1 1830 0
 3679 000c 0023     		movs	r3, #0
 3680 000e FB81     		strh	r3, [r7, #14]	@ movhi
1831:../Libraries/StdPeripheralDriver/src/stm32f10x_tim.c ****   /* Check the parameters */
1832:../Libraries/StdPeripheralDriver/src/stm32f10x_tim.c ****   assert_param(IS_TIM_LIST2_PERIPH(TIMx));
1833:../Libraries/StdPeripheralDriver/src/stm32f10x_tim.c ****   assert_param(IS_TIM_OCN_POLARITY(TIM_OCNPolarity));
1834:../Libraries/StdPeripheralDriver/src/stm32f10x_tim.c ****    
1835:../Libraries/StdPeripheralDriver/src/stm32f10x_tim.c ****   tmpccer = TIMx->CCER;
 3681              		.loc 1 1835 0
 3682 0010 7B68     		ldr	r3, [r7, #4]
 3683 0012 1B8C     		ldrh	r3, [r3, #32]	@ movhi
 3684 0014 FB81     		strh	r3, [r7, #14]	@ movhi
1836:../Libraries/StdPeripheralDriver/src/stm32f10x_tim.c ****   /* Set or Reset the CC1NP Bit */
1837:../Libraries/StdPeripheralDriver/src/stm32f10x_tim.c ****   tmpccer &= (uint16_t)~((uint16_t)TIM_CCER_CC1NP);
 3685              		.loc 1 1837 0
 3686 0016 FB89     		ldrh	r3, [r7, #14]	@ movhi
 3687 0018 23F00803 		bic	r3, r3, #8
 3688 001c FB81     		strh	r3, [r7, #14]	@ movhi
1838:../Libraries/StdPeripheralDriver/src/stm32f10x_tim.c ****   tmpccer |= TIM_OCNPolarity;
 3689              		.loc 1 1838 0
 3690 001e FA89     		ldrh	r2, [r7, #14]	@ movhi
 3691 0020 7B88     		ldrh	r3, [r7, #2]	@ movhi
 3692 0022 1343     		orrs	r3, r3, r2
 3693 0024 FB81     		strh	r3, [r7, #14]	@ movhi
1839:../Libraries/StdPeripheralDriver/src/stm32f10x_tim.c ****   /* Write to TIMx CCER register */
1840:../Libraries/StdPeripheralDriver/src/stm32f10x_tim.c ****   TIMx->CCER = tmpccer;
 3694              		.loc 1 1840 0
 3695 0026 7B68     		ldr	r3, [r7, #4]
 3696 0028 FA89     		ldrh	r2, [r7, #14]	@ movhi
 3697 002a 1A84     		strh	r2, [r3, #32]	@ movhi
1841:../Libraries/StdPeripheralDriver/src/stm32f10x_tim.c **** }
 3698              		.loc 1 1841 0
 3699 002c 1437     		adds	r7, r7, #20
 3700 002e BD46     		mov	sp, r7
 3701              		@ sp needed
 3702 0030 5DF8047B 		ldr	r7, [sp], #4
 3703 0034 7047     		bx	lr
 3704              		.cfi_endproc
 3705              	.LFE79:
 3707 0036 00BF     		.section	.text.TIM_OC2PolarityConfig,"ax",%progbits
 3708              		.align	2
 3709              		.global	TIM_OC2PolarityConfig
 3710              		.thumb
 3711              		.thumb_func
 3713              	TIM_OC2PolarityConfig:
 3714              	.LFB80:
1842:../Libraries/StdPeripheralDriver/src/stm32f10x_tim.c **** 
1843:../Libraries/StdPeripheralDriver/src/stm32f10x_tim.c **** /**
1844:../Libraries/StdPeripheralDriver/src/stm32f10x_tim.c ****   * @brief  Configures the TIMx channel 2 polarity.
1845:../Libraries/StdPeripheralDriver/src/stm32f10x_tim.c ****   * @param  TIMx: where x can be 1, 2, 3, 4, 5, 8, 9, 12 or 15 to select the TIM peripheral.
1846:../Libraries/StdPeripheralDriver/src/stm32f10x_tim.c ****   * @param  TIM_OCPolarity: specifies the OC2 Polarity
1847:../Libraries/StdPeripheralDriver/src/stm32f10x_tim.c ****   *   This parameter can be one of the following values:
1848:../Libraries/StdPeripheralDriver/src/stm32f10x_tim.c ****   *     @arg TIM_OCPolarity_High: Output Compare active high
1849:../Libraries/StdPeripheralDriver/src/stm32f10x_tim.c ****   *     @arg TIM_OCPolarity_Low: Output Compare active low
1850:../Libraries/StdPeripheralDriver/src/stm32f10x_tim.c ****   * @retval None
1851:../Libraries/StdPeripheralDriver/src/stm32f10x_tim.c ****   */
1852:../Libraries/StdPeripheralDriver/src/stm32f10x_tim.c **** void TIM_OC2PolarityConfig(TIM_TypeDef* TIMx, uint16_t TIM_OCPolarity)
1853:../Libraries/StdPeripheralDriver/src/stm32f10x_tim.c **** {
 3715              		.loc 1 1853 0
 3716              		.cfi_startproc
 3717              		@ args = 0, pretend = 0, frame = 16
 3718              		@ frame_needed = 1, uses_anonymous_args = 0
 3719              		@ link register save eliminated.
 3720 0000 80B4     		push	{r7}
 3721              		.cfi_def_cfa_offset 4
 3722              		.cfi_offset 7, -4
 3723 0002 85B0     		sub	sp, sp, #20
 3724              		.cfi_def_cfa_offset 24
 3725 0004 00AF     		add	r7, sp, #0
 3726              		.cfi_def_cfa_register 7
 3727 0006 7860     		str	r0, [r7, #4]
 3728 0008 0B46     		mov	r3, r1
 3729 000a 7B80     		strh	r3, [r7, #2]	@ movhi
1854:../Libraries/StdPeripheralDriver/src/stm32f10x_tim.c ****   uint16_t tmpccer = 0;
 3730              		.loc 1 1854 0
 3731 000c 0023     		movs	r3, #0
 3732 000e FB81     		strh	r3, [r7, #14]	@ movhi
1855:../Libraries/StdPeripheralDriver/src/stm32f10x_tim.c ****   /* Check the parameters */
1856:../Libraries/StdPeripheralDriver/src/stm32f10x_tim.c ****   assert_param(IS_TIM_LIST6_PERIPH(TIMx));
1857:../Libraries/StdPeripheralDriver/src/stm32f10x_tim.c ****   assert_param(IS_TIM_OC_POLARITY(TIM_OCPolarity));
1858:../Libraries/StdPeripheralDriver/src/stm32f10x_tim.c ****   tmpccer = TIMx->CCER;
 3733              		.loc 1 1858 0
 3734 0010 7B68     		ldr	r3, [r7, #4]
 3735 0012 1B8C     		ldrh	r3, [r3, #32]	@ movhi
 3736 0014 FB81     		strh	r3, [r7, #14]	@ movhi
1859:../Libraries/StdPeripheralDriver/src/stm32f10x_tim.c ****   /* Set or Reset the CC2P Bit */
1860:../Libraries/StdPeripheralDriver/src/stm32f10x_tim.c ****   tmpccer &= (uint16_t)~((uint16_t)TIM_CCER_CC2P);
 3737              		.loc 1 1860 0
 3738 0016 FB89     		ldrh	r3, [r7, #14]	@ movhi
 3739 0018 23F02003 		bic	r3, r3, #32
 3740 001c FB81     		strh	r3, [r7, #14]	@ movhi
1861:../Libraries/StdPeripheralDriver/src/stm32f10x_tim.c ****   tmpccer |= (uint16_t)(TIM_OCPolarity << 4);
 3741              		.loc 1 1861 0
 3742 001e 7B88     		ldrh	r3, [r7, #2]	@ movhi
 3743 0020 1B01     		lsls	r3, r3, #4
 3744 0022 9AB2     		uxth	r2, r3
 3745 0024 FB89     		ldrh	r3, [r7, #14]	@ movhi
 3746 0026 1343     		orrs	r3, r3, r2
 3747 0028 FB81     		strh	r3, [r7, #14]	@ movhi
1862:../Libraries/StdPeripheralDriver/src/stm32f10x_tim.c ****   /* Write to TIMx CCER register */
1863:../Libraries/StdPeripheralDriver/src/stm32f10x_tim.c ****   TIMx->CCER = tmpccer;
 3748              		.loc 1 1863 0
 3749 002a 7B68     		ldr	r3, [r7, #4]
 3750 002c FA89     		ldrh	r2, [r7, #14]	@ movhi
 3751 002e 1A84     		strh	r2, [r3, #32]	@ movhi
1864:../Libraries/StdPeripheralDriver/src/stm32f10x_tim.c **** }
 3752              		.loc 1 1864 0
 3753 0030 1437     		adds	r7, r7, #20
 3754 0032 BD46     		mov	sp, r7
 3755              		@ sp needed
 3756 0034 5DF8047B 		ldr	r7, [sp], #4
 3757 0038 7047     		bx	lr
 3758              		.cfi_endproc
 3759              	.LFE80:
 3761 003a 00BF     		.section	.text.TIM_OC2NPolarityConfig,"ax",%progbits
 3762              		.align	2
 3763              		.global	TIM_OC2NPolarityConfig
 3764              		.thumb
 3765              		.thumb_func
 3767              	TIM_OC2NPolarityConfig:
 3768              	.LFB81:
1865:../Libraries/StdPeripheralDriver/src/stm32f10x_tim.c **** 
1866:../Libraries/StdPeripheralDriver/src/stm32f10x_tim.c **** /**
1867:../Libraries/StdPeripheralDriver/src/stm32f10x_tim.c ****   * @brief  Configures the TIMx Channel 2N polarity.
1868:../Libraries/StdPeripheralDriver/src/stm32f10x_tim.c ****   * @param  TIMx: where x can be 1 or 8 to select the TIM peripheral.
1869:../Libraries/StdPeripheralDriver/src/stm32f10x_tim.c ****   * @param  TIM_OCNPolarity: specifies the OC2N Polarity
1870:../Libraries/StdPeripheralDriver/src/stm32f10x_tim.c ****   *   This parameter can be one of the following values:
1871:../Libraries/StdPeripheralDriver/src/stm32f10x_tim.c ****   *     @arg TIM_OCNPolarity_High: Output Compare active high
1872:../Libraries/StdPeripheralDriver/src/stm32f10x_tim.c ****   *     @arg TIM_OCNPolarity_Low: Output Compare active low
1873:../Libraries/StdPeripheralDriver/src/stm32f10x_tim.c ****   * @retval None
1874:../Libraries/StdPeripheralDriver/src/stm32f10x_tim.c ****   */
1875:../Libraries/StdPeripheralDriver/src/stm32f10x_tim.c **** void TIM_OC2NPolarityConfig(TIM_TypeDef* TIMx, uint16_t TIM_OCNPolarity)
1876:../Libraries/StdPeripheralDriver/src/stm32f10x_tim.c **** {
 3769              		.loc 1 1876 0
 3770              		.cfi_startproc
 3771              		@ args = 0, pretend = 0, frame = 16
 3772              		@ frame_needed = 1, uses_anonymous_args = 0
 3773              		@ link register save eliminated.
 3774 0000 80B4     		push	{r7}
 3775              		.cfi_def_cfa_offset 4
 3776              		.cfi_offset 7, -4
 3777 0002 85B0     		sub	sp, sp, #20
 3778              		.cfi_def_cfa_offset 24
 3779 0004 00AF     		add	r7, sp, #0
 3780              		.cfi_def_cfa_register 7
 3781 0006 7860     		str	r0, [r7, #4]
 3782 0008 0B46     		mov	r3, r1
 3783 000a 7B80     		strh	r3, [r7, #2]	@ movhi
1877:../Libraries/StdPeripheralDriver/src/stm32f10x_tim.c ****   uint16_t tmpccer = 0;
 3784              		.loc 1 1877 0
 3785 000c 0023     		movs	r3, #0
 3786 000e FB81     		strh	r3, [r7, #14]	@ movhi
1878:../Libraries/StdPeripheralDriver/src/stm32f10x_tim.c ****   /* Check the parameters */
1879:../Libraries/StdPeripheralDriver/src/stm32f10x_tim.c ****   assert_param(IS_TIM_LIST1_PERIPH(TIMx));
1880:../Libraries/StdPeripheralDriver/src/stm32f10x_tim.c ****   assert_param(IS_TIM_OCN_POLARITY(TIM_OCNPolarity));
1881:../Libraries/StdPeripheralDriver/src/stm32f10x_tim.c ****   
1882:../Libraries/StdPeripheralDriver/src/stm32f10x_tim.c ****   tmpccer = TIMx->CCER;
 3787              		.loc 1 1882 0
 3788 0010 7B68     		ldr	r3, [r7, #4]
 3789 0012 1B8C     		ldrh	r3, [r3, #32]	@ movhi
 3790 0014 FB81     		strh	r3, [r7, #14]	@ movhi
1883:../Libraries/StdPeripheralDriver/src/stm32f10x_tim.c ****   /* Set or Reset the CC2NP Bit */
1884:../Libraries/StdPeripheralDriver/src/stm32f10x_tim.c ****   tmpccer &= (uint16_t)~((uint16_t)TIM_CCER_CC2NP);
 3791              		.loc 1 1884 0
 3792 0016 FB89     		ldrh	r3, [r7, #14]	@ movhi
 3793 0018 23F08003 		bic	r3, r3, #128
 3794 001c FB81     		strh	r3, [r7, #14]	@ movhi
1885:../Libraries/StdPeripheralDriver/src/stm32f10x_tim.c ****   tmpccer |= (uint16_t)(TIM_OCNPolarity << 4);
 3795              		.loc 1 1885 0
 3796 001e 7B88     		ldrh	r3, [r7, #2]	@ movhi
 3797 0020 1B01     		lsls	r3, r3, #4
 3798 0022 9AB2     		uxth	r2, r3
 3799 0024 FB89     		ldrh	r3, [r7, #14]	@ movhi
 3800 0026 1343     		orrs	r3, r3, r2
 3801 0028 FB81     		strh	r3, [r7, #14]	@ movhi
1886:../Libraries/StdPeripheralDriver/src/stm32f10x_tim.c ****   /* Write to TIMx CCER register */
1887:../Libraries/StdPeripheralDriver/src/stm32f10x_tim.c ****   TIMx->CCER = tmpccer;
 3802              		.loc 1 1887 0
 3803 002a 7B68     		ldr	r3, [r7, #4]
 3804 002c FA89     		ldrh	r2, [r7, #14]	@ movhi
 3805 002e 1A84     		strh	r2, [r3, #32]	@ movhi
1888:../Libraries/StdPeripheralDriver/src/stm32f10x_tim.c **** }
 3806              		.loc 1 1888 0
 3807 0030 1437     		adds	r7, r7, #20
 3808 0032 BD46     		mov	sp, r7
 3809              		@ sp needed
 3810 0034 5DF8047B 		ldr	r7, [sp], #4
 3811 0038 7047     		bx	lr
 3812              		.cfi_endproc
 3813              	.LFE81:
 3815 003a 00BF     		.section	.text.TIM_OC3PolarityConfig,"ax",%progbits
 3816              		.align	2
 3817              		.global	TIM_OC3PolarityConfig
 3818              		.thumb
 3819              		.thumb_func
 3821              	TIM_OC3PolarityConfig:
 3822              	.LFB82:
1889:../Libraries/StdPeripheralDriver/src/stm32f10x_tim.c **** 
1890:../Libraries/StdPeripheralDriver/src/stm32f10x_tim.c **** /**
1891:../Libraries/StdPeripheralDriver/src/stm32f10x_tim.c ****   * @brief  Configures the TIMx channel 3 polarity.
1892:../Libraries/StdPeripheralDriver/src/stm32f10x_tim.c ****   * @param  TIMx: where x can be 1, 2, 3, 4, 5 or 8 to select the TIM peripheral.
1893:../Libraries/StdPeripheralDriver/src/stm32f10x_tim.c ****   * @param  TIM_OCPolarity: specifies the OC3 Polarity
1894:../Libraries/StdPeripheralDriver/src/stm32f10x_tim.c ****   *   This parameter can be one of the following values:
1895:../Libraries/StdPeripheralDriver/src/stm32f10x_tim.c ****   *     @arg TIM_OCPolarity_High: Output Compare active high
1896:../Libraries/StdPeripheralDriver/src/stm32f10x_tim.c ****   *     @arg TIM_OCPolarity_Low: Output Compare active low
1897:../Libraries/StdPeripheralDriver/src/stm32f10x_tim.c ****   * @retval None
1898:../Libraries/StdPeripheralDriver/src/stm32f10x_tim.c ****   */
1899:../Libraries/StdPeripheralDriver/src/stm32f10x_tim.c **** void TIM_OC3PolarityConfig(TIM_TypeDef* TIMx, uint16_t TIM_OCPolarity)
1900:../Libraries/StdPeripheralDriver/src/stm32f10x_tim.c **** {
 3823              		.loc 1 1900 0
 3824              		.cfi_startproc
 3825              		@ args = 0, pretend = 0, frame = 16
 3826              		@ frame_needed = 1, uses_anonymous_args = 0
 3827              		@ link register save eliminated.
 3828 0000 80B4     		push	{r7}
 3829              		.cfi_def_cfa_offset 4
 3830              		.cfi_offset 7, -4
 3831 0002 85B0     		sub	sp, sp, #20
 3832              		.cfi_def_cfa_offset 24
 3833 0004 00AF     		add	r7, sp, #0
 3834              		.cfi_def_cfa_register 7
 3835 0006 7860     		str	r0, [r7, #4]
 3836 0008 0B46     		mov	r3, r1
 3837 000a 7B80     		strh	r3, [r7, #2]	@ movhi
1901:../Libraries/StdPeripheralDriver/src/stm32f10x_tim.c ****   uint16_t tmpccer = 0;
 3838              		.loc 1 1901 0
 3839 000c 0023     		movs	r3, #0
 3840 000e FB81     		strh	r3, [r7, #14]	@ movhi
1902:../Libraries/StdPeripheralDriver/src/stm32f10x_tim.c ****   /* Check the parameters */
1903:../Libraries/StdPeripheralDriver/src/stm32f10x_tim.c ****   assert_param(IS_TIM_LIST3_PERIPH(TIMx));
1904:../Libraries/StdPeripheralDriver/src/stm32f10x_tim.c ****   assert_param(IS_TIM_OC_POLARITY(TIM_OCPolarity));
1905:../Libraries/StdPeripheralDriver/src/stm32f10x_tim.c ****   tmpccer = TIMx->CCER;
 3841              		.loc 1 1905 0
 3842 0010 7B68     		ldr	r3, [r7, #4]
 3843 0012 1B8C     		ldrh	r3, [r3, #32]	@ movhi
 3844 0014 FB81     		strh	r3, [r7, #14]	@ movhi
1906:../Libraries/StdPeripheralDriver/src/stm32f10x_tim.c ****   /* Set or Reset the CC3P Bit */
1907:../Libraries/StdPeripheralDriver/src/stm32f10x_tim.c ****   tmpccer &= (uint16_t)~((uint16_t)TIM_CCER_CC3P);
 3845              		.loc 1 1907 0
 3846 0016 FB89     		ldrh	r3, [r7, #14]	@ movhi
 3847 0018 23F40073 		bic	r3, r3, #512
 3848 001c FB81     		strh	r3, [r7, #14]	@ movhi
1908:../Libraries/StdPeripheralDriver/src/stm32f10x_tim.c ****   tmpccer |= (uint16_t)(TIM_OCPolarity << 8);
 3849              		.loc 1 1908 0
 3850 001e 7B88     		ldrh	r3, [r7, #2]	@ movhi
 3851 0020 1B02     		lsls	r3, r3, #8
 3852 0022 9AB2     		uxth	r2, r3
 3853 0024 FB89     		ldrh	r3, [r7, #14]	@ movhi
 3854 0026 1343     		orrs	r3, r3, r2
 3855 0028 FB81     		strh	r3, [r7, #14]	@ movhi
1909:../Libraries/StdPeripheralDriver/src/stm32f10x_tim.c ****   /* Write to TIMx CCER register */
1910:../Libraries/StdPeripheralDriver/src/stm32f10x_tim.c ****   TIMx->CCER = tmpccer;
 3856              		.loc 1 1910 0
 3857 002a 7B68     		ldr	r3, [r7, #4]
 3858 002c FA89     		ldrh	r2, [r7, #14]	@ movhi
 3859 002e 1A84     		strh	r2, [r3, #32]	@ movhi
1911:../Libraries/StdPeripheralDriver/src/stm32f10x_tim.c **** }
 3860              		.loc 1 1911 0
 3861 0030 1437     		adds	r7, r7, #20
 3862 0032 BD46     		mov	sp, r7
 3863              		@ sp needed
 3864 0034 5DF8047B 		ldr	r7, [sp], #4
 3865 0038 7047     		bx	lr
 3866              		.cfi_endproc
 3867              	.LFE82:
 3869 003a 00BF     		.section	.text.TIM_OC3NPolarityConfig,"ax",%progbits
 3870              		.align	2
 3871              		.global	TIM_OC3NPolarityConfig
 3872              		.thumb
 3873              		.thumb_func
 3875              	TIM_OC3NPolarityConfig:
 3876              	.LFB83:
1912:../Libraries/StdPeripheralDriver/src/stm32f10x_tim.c **** 
1913:../Libraries/StdPeripheralDriver/src/stm32f10x_tim.c **** /**
1914:../Libraries/StdPeripheralDriver/src/stm32f10x_tim.c ****   * @brief  Configures the TIMx Channel 3N polarity.
1915:../Libraries/StdPeripheralDriver/src/stm32f10x_tim.c ****   * @param  TIMx: where x can be 1 or 8 to select the TIM peripheral.
1916:../Libraries/StdPeripheralDriver/src/stm32f10x_tim.c ****   * @param  TIM_OCNPolarity: specifies the OC3N Polarity
1917:../Libraries/StdPeripheralDriver/src/stm32f10x_tim.c ****   *   This parameter can be one of the following values:
1918:../Libraries/StdPeripheralDriver/src/stm32f10x_tim.c ****   *     @arg TIM_OCNPolarity_High: Output Compare active high
1919:../Libraries/StdPeripheralDriver/src/stm32f10x_tim.c ****   *     @arg TIM_OCNPolarity_Low: Output Compare active low
1920:../Libraries/StdPeripheralDriver/src/stm32f10x_tim.c ****   * @retval None
1921:../Libraries/StdPeripheralDriver/src/stm32f10x_tim.c ****   */
1922:../Libraries/StdPeripheralDriver/src/stm32f10x_tim.c **** void TIM_OC3NPolarityConfig(TIM_TypeDef* TIMx, uint16_t TIM_OCNPolarity)
1923:../Libraries/StdPeripheralDriver/src/stm32f10x_tim.c **** {
 3877              		.loc 1 1923 0
 3878              		.cfi_startproc
 3879              		@ args = 0, pretend = 0, frame = 16
 3880              		@ frame_needed = 1, uses_anonymous_args = 0
 3881              		@ link register save eliminated.
 3882 0000 80B4     		push	{r7}
 3883              		.cfi_def_cfa_offset 4
 3884              		.cfi_offset 7, -4
 3885 0002 85B0     		sub	sp, sp, #20
 3886              		.cfi_def_cfa_offset 24
 3887 0004 00AF     		add	r7, sp, #0
 3888              		.cfi_def_cfa_register 7
 3889 0006 7860     		str	r0, [r7, #4]
 3890 0008 0B46     		mov	r3, r1
 3891 000a 7B80     		strh	r3, [r7, #2]	@ movhi
1924:../Libraries/StdPeripheralDriver/src/stm32f10x_tim.c ****   uint16_t tmpccer = 0;
 3892              		.loc 1 1924 0
 3893 000c 0023     		movs	r3, #0
 3894 000e FB81     		strh	r3, [r7, #14]	@ movhi
1925:../Libraries/StdPeripheralDriver/src/stm32f10x_tim.c ****  
1926:../Libraries/StdPeripheralDriver/src/stm32f10x_tim.c ****   /* Check the parameters */
1927:../Libraries/StdPeripheralDriver/src/stm32f10x_tim.c ****   assert_param(IS_TIM_LIST1_PERIPH(TIMx));
1928:../Libraries/StdPeripheralDriver/src/stm32f10x_tim.c ****   assert_param(IS_TIM_OCN_POLARITY(TIM_OCNPolarity));
1929:../Libraries/StdPeripheralDriver/src/stm32f10x_tim.c ****     
1930:../Libraries/StdPeripheralDriver/src/stm32f10x_tim.c ****   tmpccer = TIMx->CCER;
 3895              		.loc 1 1930 0
 3896 0010 7B68     		ldr	r3, [r7, #4]
 3897 0012 1B8C     		ldrh	r3, [r3, #32]	@ movhi
 3898 0014 FB81     		strh	r3, [r7, #14]	@ movhi
1931:../Libraries/StdPeripheralDriver/src/stm32f10x_tim.c ****   /* Set or Reset the CC3NP Bit */
1932:../Libraries/StdPeripheralDriver/src/stm32f10x_tim.c ****   tmpccer &= (uint16_t)~((uint16_t)TIM_CCER_CC3NP);
 3899              		.loc 1 1932 0
 3900 0016 FB89     		ldrh	r3, [r7, #14]	@ movhi
 3901 0018 23F40063 		bic	r3, r3, #2048
 3902 001c FB81     		strh	r3, [r7, #14]	@ movhi
1933:../Libraries/StdPeripheralDriver/src/stm32f10x_tim.c ****   tmpccer |= (uint16_t)(TIM_OCNPolarity << 8);
 3903              		.loc 1 1933 0
 3904 001e 7B88     		ldrh	r3, [r7, #2]	@ movhi
 3905 0020 1B02     		lsls	r3, r3, #8
 3906 0022 9AB2     		uxth	r2, r3
 3907 0024 FB89     		ldrh	r3, [r7, #14]	@ movhi
 3908 0026 1343     		orrs	r3, r3, r2
 3909 0028 FB81     		strh	r3, [r7, #14]	@ movhi
1934:../Libraries/StdPeripheralDriver/src/stm32f10x_tim.c ****   /* Write to TIMx CCER register */
1935:../Libraries/StdPeripheralDriver/src/stm32f10x_tim.c ****   TIMx->CCER = tmpccer;
 3910              		.loc 1 1935 0
 3911 002a 7B68     		ldr	r3, [r7, #4]
 3912 002c FA89     		ldrh	r2, [r7, #14]	@ movhi
 3913 002e 1A84     		strh	r2, [r3, #32]	@ movhi
1936:../Libraries/StdPeripheralDriver/src/stm32f10x_tim.c **** }
 3914              		.loc 1 1936 0
 3915 0030 1437     		adds	r7, r7, #20
 3916 0032 BD46     		mov	sp, r7
 3917              		@ sp needed
 3918 0034 5DF8047B 		ldr	r7, [sp], #4
 3919 0038 7047     		bx	lr
 3920              		.cfi_endproc
 3921              	.LFE83:
 3923 003a 00BF     		.section	.text.TIM_OC4PolarityConfig,"ax",%progbits
 3924              		.align	2
 3925              		.global	TIM_OC4PolarityConfig
 3926              		.thumb
 3927              		.thumb_func
 3929              	TIM_OC4PolarityConfig:
 3930              	.LFB84:
1937:../Libraries/StdPeripheralDriver/src/stm32f10x_tim.c **** 
1938:../Libraries/StdPeripheralDriver/src/stm32f10x_tim.c **** /**
1939:../Libraries/StdPeripheralDriver/src/stm32f10x_tim.c ****   * @brief  Configures the TIMx channel 4 polarity.
1940:../Libraries/StdPeripheralDriver/src/stm32f10x_tim.c ****   * @param  TIMx: where x can be 1, 2, 3, 4, 5 or 8 to select the TIM peripheral.
1941:../Libraries/StdPeripheralDriver/src/stm32f10x_tim.c ****   * @param  TIM_OCPolarity: specifies the OC4 Polarity
1942:../Libraries/StdPeripheralDriver/src/stm32f10x_tim.c ****   *   This parameter can be one of the following values:
1943:../Libraries/StdPeripheralDriver/src/stm32f10x_tim.c ****   *     @arg TIM_OCPolarity_High: Output Compare active high
1944:../Libraries/StdPeripheralDriver/src/stm32f10x_tim.c ****   *     @arg TIM_OCPolarity_Low: Output Compare active low
1945:../Libraries/StdPeripheralDriver/src/stm32f10x_tim.c ****   * @retval None
1946:../Libraries/StdPeripheralDriver/src/stm32f10x_tim.c ****   */
1947:../Libraries/StdPeripheralDriver/src/stm32f10x_tim.c **** void TIM_OC4PolarityConfig(TIM_TypeDef* TIMx, uint16_t TIM_OCPolarity)
1948:../Libraries/StdPeripheralDriver/src/stm32f10x_tim.c **** {
 3931              		.loc 1 1948 0
 3932              		.cfi_startproc
 3933              		@ args = 0, pretend = 0, frame = 16
 3934              		@ frame_needed = 1, uses_anonymous_args = 0
 3935              		@ link register save eliminated.
 3936 0000 80B4     		push	{r7}
 3937              		.cfi_def_cfa_offset 4
 3938              		.cfi_offset 7, -4
 3939 0002 85B0     		sub	sp, sp, #20
 3940              		.cfi_def_cfa_offset 24
 3941 0004 00AF     		add	r7, sp, #0
 3942              		.cfi_def_cfa_register 7
 3943 0006 7860     		str	r0, [r7, #4]
 3944 0008 0B46     		mov	r3, r1
 3945 000a 7B80     		strh	r3, [r7, #2]	@ movhi
1949:../Libraries/StdPeripheralDriver/src/stm32f10x_tim.c ****   uint16_t tmpccer = 0;
 3946              		.loc 1 1949 0
 3947 000c 0023     		movs	r3, #0
 3948 000e FB81     		strh	r3, [r7, #14]	@ movhi
1950:../Libraries/StdPeripheralDriver/src/stm32f10x_tim.c ****   /* Check the parameters */
1951:../Libraries/StdPeripheralDriver/src/stm32f10x_tim.c ****   assert_param(IS_TIM_LIST3_PERIPH(TIMx));
1952:../Libraries/StdPeripheralDriver/src/stm32f10x_tim.c ****   assert_param(IS_TIM_OC_POLARITY(TIM_OCPolarity));
1953:../Libraries/StdPeripheralDriver/src/stm32f10x_tim.c ****   tmpccer = TIMx->CCER;
 3949              		.loc 1 1953 0
 3950 0010 7B68     		ldr	r3, [r7, #4]
 3951 0012 1B8C     		ldrh	r3, [r3, #32]	@ movhi
 3952 0014 FB81     		strh	r3, [r7, #14]	@ movhi
1954:../Libraries/StdPeripheralDriver/src/stm32f10x_tim.c ****   /* Set or Reset the CC4P Bit */
1955:../Libraries/StdPeripheralDriver/src/stm32f10x_tim.c ****   tmpccer &= (uint16_t)~((uint16_t)TIM_CCER_CC4P);
 3953              		.loc 1 1955 0
 3954 0016 FB89     		ldrh	r3, [r7, #14]	@ movhi
 3955 0018 23F40053 		bic	r3, r3, #8192
 3956 001c FB81     		strh	r3, [r7, #14]	@ movhi
1956:../Libraries/StdPeripheralDriver/src/stm32f10x_tim.c ****   tmpccer |= (uint16_t)(TIM_OCPolarity << 12);
 3957              		.loc 1 1956 0
 3958 001e 7B88     		ldrh	r3, [r7, #2]	@ movhi
 3959 0020 1B03     		lsls	r3, r3, #12
 3960 0022 9AB2     		uxth	r2, r3
 3961 0024 FB89     		ldrh	r3, [r7, #14]	@ movhi
 3962 0026 1343     		orrs	r3, r3, r2
 3963 0028 FB81     		strh	r3, [r7, #14]	@ movhi
1957:../Libraries/StdPeripheralDriver/src/stm32f10x_tim.c ****   /* Write to TIMx CCER register */
1958:../Libraries/StdPeripheralDriver/src/stm32f10x_tim.c ****   TIMx->CCER = tmpccer;
 3964              		.loc 1 1958 0
 3965 002a 7B68     		ldr	r3, [r7, #4]
 3966 002c FA89     		ldrh	r2, [r7, #14]	@ movhi
 3967 002e 1A84     		strh	r2, [r3, #32]	@ movhi
1959:../Libraries/StdPeripheralDriver/src/stm32f10x_tim.c **** }
 3968              		.loc 1 1959 0
 3969 0030 1437     		adds	r7, r7, #20
 3970 0032 BD46     		mov	sp, r7
 3971              		@ sp needed
 3972 0034 5DF8047B 		ldr	r7, [sp], #4
 3973 0038 7047     		bx	lr
 3974              		.cfi_endproc
 3975              	.LFE84:
 3977 003a 00BF     		.section	.text.TIM_CCxCmd,"ax",%progbits
 3978              		.align	2
 3979              		.global	TIM_CCxCmd
 3980              		.thumb
 3981              		.thumb_func
 3983              	TIM_CCxCmd:
 3984              	.LFB85:
1960:../Libraries/StdPeripheralDriver/src/stm32f10x_tim.c **** 
1961:../Libraries/StdPeripheralDriver/src/stm32f10x_tim.c **** /**
1962:../Libraries/StdPeripheralDriver/src/stm32f10x_tim.c ****   * @brief  Enables or disables the TIM Capture Compare Channel x.
1963:../Libraries/StdPeripheralDriver/src/stm32f10x_tim.c ****   * @param  TIMx: where x can be 1 to 17 except 6 and 7 to select the TIM peripheral.
1964:../Libraries/StdPeripheralDriver/src/stm32f10x_tim.c ****   * @param  TIM_Channel: specifies the TIM Channel
1965:../Libraries/StdPeripheralDriver/src/stm32f10x_tim.c ****   *   This parameter can be one of the following values:
1966:../Libraries/StdPeripheralDriver/src/stm32f10x_tim.c ****   *     @arg TIM_Channel_1: TIM Channel 1
1967:../Libraries/StdPeripheralDriver/src/stm32f10x_tim.c ****   *     @arg TIM_Channel_2: TIM Channel 2
1968:../Libraries/StdPeripheralDriver/src/stm32f10x_tim.c ****   *     @arg TIM_Channel_3: TIM Channel 3
1969:../Libraries/StdPeripheralDriver/src/stm32f10x_tim.c ****   *     @arg TIM_Channel_4: TIM Channel 4
1970:../Libraries/StdPeripheralDriver/src/stm32f10x_tim.c ****   * @param  TIM_CCx: specifies the TIM Channel CCxE bit new state.
1971:../Libraries/StdPeripheralDriver/src/stm32f10x_tim.c ****   *   This parameter can be: TIM_CCx_Enable or TIM_CCx_Disable. 
1972:../Libraries/StdPeripheralDriver/src/stm32f10x_tim.c ****   * @retval None
1973:../Libraries/StdPeripheralDriver/src/stm32f10x_tim.c ****   */
1974:../Libraries/StdPeripheralDriver/src/stm32f10x_tim.c **** void TIM_CCxCmd(TIM_TypeDef* TIMx, uint16_t TIM_Channel, uint16_t TIM_CCx)
1975:../Libraries/StdPeripheralDriver/src/stm32f10x_tim.c **** {
 3985              		.loc 1 1975 0
 3986              		.cfi_startproc
 3987              		@ args = 0, pretend = 0, frame = 16
 3988              		@ frame_needed = 1, uses_anonymous_args = 0
 3989              		@ link register save eliminated.
 3990 0000 80B4     		push	{r7}
 3991              		.cfi_def_cfa_offset 4
 3992              		.cfi_offset 7, -4
 3993 0002 85B0     		sub	sp, sp, #20
 3994              		.cfi_def_cfa_offset 24
 3995 0004 00AF     		add	r7, sp, #0
 3996              		.cfi_def_cfa_register 7
 3997 0006 7860     		str	r0, [r7, #4]
 3998 0008 1346     		mov	r3, r2
 3999 000a 0A46     		mov	r2, r1	@ movhi
 4000 000c 7A80     		strh	r2, [r7, #2]	@ movhi
 4001 000e 3B80     		strh	r3, [r7]	@ movhi
1976:../Libraries/StdPeripheralDriver/src/stm32f10x_tim.c ****   uint16_t tmp = 0;
 4002              		.loc 1 1976 0
 4003 0010 0023     		movs	r3, #0
 4004 0012 FB81     		strh	r3, [r7, #14]	@ movhi
1977:../Libraries/StdPeripheralDriver/src/stm32f10x_tim.c **** 
1978:../Libraries/StdPeripheralDriver/src/stm32f10x_tim.c ****   /* Check the parameters */
1979:../Libraries/StdPeripheralDriver/src/stm32f10x_tim.c ****   assert_param(IS_TIM_LIST8_PERIPH(TIMx));
1980:../Libraries/StdPeripheralDriver/src/stm32f10x_tim.c ****   assert_param(IS_TIM_CHANNEL(TIM_Channel));
1981:../Libraries/StdPeripheralDriver/src/stm32f10x_tim.c ****   assert_param(IS_TIM_CCX(TIM_CCx));
1982:../Libraries/StdPeripheralDriver/src/stm32f10x_tim.c **** 
1983:../Libraries/StdPeripheralDriver/src/stm32f10x_tim.c ****   tmp = CCER_CCE_Set << TIM_Channel;
 4005              		.loc 1 1983 0
 4006 0014 7B88     		ldrh	r3, [r7, #2]
 4007 0016 0122     		movs	r2, #1
 4008 0018 02FA03F3 		lsl	r3, r2, r3
 4009 001c FB81     		strh	r3, [r7, #14]	@ movhi
1984:../Libraries/StdPeripheralDriver/src/stm32f10x_tim.c **** 
1985:../Libraries/StdPeripheralDriver/src/stm32f10x_tim.c ****   /* Reset the CCxE Bit */
1986:../Libraries/StdPeripheralDriver/src/stm32f10x_tim.c ****   TIMx->CCER &= (uint16_t)~ tmp;
 4010              		.loc 1 1986 0
 4011 001e 7B68     		ldr	r3, [r7, #4]
 4012 0020 1B8C     		ldrh	r3, [r3, #32]	@ movhi
 4013 0022 9AB2     		uxth	r2, r3
 4014 0024 FB89     		ldrh	r3, [r7, #14]	@ movhi
 4015 0026 DB43     		mvns	r3, r3
 4016 0028 9BB2     		uxth	r3, r3
 4017 002a 1340     		ands	r3, r3, r2
 4018 002c 9AB2     		uxth	r2, r3
 4019 002e 7B68     		ldr	r3, [r7, #4]
 4020 0030 1A84     		strh	r2, [r3, #32]	@ movhi
1987:../Libraries/StdPeripheralDriver/src/stm32f10x_tim.c **** 
1988:../Libraries/StdPeripheralDriver/src/stm32f10x_tim.c ****   /* Set or reset the CCxE Bit */ 
1989:../Libraries/StdPeripheralDriver/src/stm32f10x_tim.c ****   TIMx->CCER |=  (uint16_t)(TIM_CCx << TIM_Channel);
 4021              		.loc 1 1989 0
 4022 0032 7B68     		ldr	r3, [r7, #4]
 4023 0034 1B8C     		ldrh	r3, [r3, #32]	@ movhi
 4024 0036 9AB2     		uxth	r2, r3
 4025 0038 3988     		ldrh	r1, [r7]
 4026 003a 7B88     		ldrh	r3, [r7, #2]
 4027 003c 01FA03F3 		lsl	r3, r1, r3
 4028 0040 9BB2     		uxth	r3, r3
 4029 0042 1343     		orrs	r3, r3, r2
 4030 0044 9AB2     		uxth	r2, r3
 4031 0046 7B68     		ldr	r3, [r7, #4]
 4032 0048 1A84     		strh	r2, [r3, #32]	@ movhi
1990:../Libraries/StdPeripheralDriver/src/stm32f10x_tim.c **** }
 4033              		.loc 1 1990 0
 4034 004a 1437     		adds	r7, r7, #20
 4035 004c BD46     		mov	sp, r7
 4036              		@ sp needed
 4037 004e 5DF8047B 		ldr	r7, [sp], #4
 4038 0052 7047     		bx	lr
 4039              		.cfi_endproc
 4040              	.LFE85:
 4042              		.section	.text.TIM_CCxNCmd,"ax",%progbits
 4043              		.align	2
 4044              		.global	TIM_CCxNCmd
 4045              		.thumb
 4046              		.thumb_func
 4048              	TIM_CCxNCmd:
 4049              	.LFB86:
1991:../Libraries/StdPeripheralDriver/src/stm32f10x_tim.c **** 
1992:../Libraries/StdPeripheralDriver/src/stm32f10x_tim.c **** /**
1993:../Libraries/StdPeripheralDriver/src/stm32f10x_tim.c ****   * @brief  Enables or disables the TIM Capture Compare Channel xN.
1994:../Libraries/StdPeripheralDriver/src/stm32f10x_tim.c ****   * @param  TIMx: where x can be 1, 8, 15, 16 or 17 to select the TIM peripheral.
1995:../Libraries/StdPeripheralDriver/src/stm32f10x_tim.c ****   * @param  TIM_Channel: specifies the TIM Channel
1996:../Libraries/StdPeripheralDriver/src/stm32f10x_tim.c ****   *   This parameter can be one of the following values:
1997:../Libraries/StdPeripheralDriver/src/stm32f10x_tim.c ****   *     @arg TIM_Channel_1: TIM Channel 1
1998:../Libraries/StdPeripheralDriver/src/stm32f10x_tim.c ****   *     @arg TIM_Channel_2: TIM Channel 2
1999:../Libraries/StdPeripheralDriver/src/stm32f10x_tim.c ****   *     @arg TIM_Channel_3: TIM Channel 3
2000:../Libraries/StdPeripheralDriver/src/stm32f10x_tim.c ****   * @param  TIM_CCxN: specifies the TIM Channel CCxNE bit new state.
2001:../Libraries/StdPeripheralDriver/src/stm32f10x_tim.c ****   *   This parameter can be: TIM_CCxN_Enable or TIM_CCxN_Disable. 
2002:../Libraries/StdPeripheralDriver/src/stm32f10x_tim.c ****   * @retval None
2003:../Libraries/StdPeripheralDriver/src/stm32f10x_tim.c ****   */
2004:../Libraries/StdPeripheralDriver/src/stm32f10x_tim.c **** void TIM_CCxNCmd(TIM_TypeDef* TIMx, uint16_t TIM_Channel, uint16_t TIM_CCxN)
2005:../Libraries/StdPeripheralDriver/src/stm32f10x_tim.c **** {
 4050              		.loc 1 2005 0
 4051              		.cfi_startproc
 4052              		@ args = 0, pretend = 0, frame = 16
 4053              		@ frame_needed = 1, uses_anonymous_args = 0
 4054              		@ link register save eliminated.
 4055 0000 80B4     		push	{r7}
 4056              		.cfi_def_cfa_offset 4
 4057              		.cfi_offset 7, -4
 4058 0002 85B0     		sub	sp, sp, #20
 4059              		.cfi_def_cfa_offset 24
 4060 0004 00AF     		add	r7, sp, #0
 4061              		.cfi_def_cfa_register 7
 4062 0006 7860     		str	r0, [r7, #4]
 4063 0008 1346     		mov	r3, r2
 4064 000a 0A46     		mov	r2, r1	@ movhi
 4065 000c 7A80     		strh	r2, [r7, #2]	@ movhi
 4066 000e 3B80     		strh	r3, [r7]	@ movhi
2006:../Libraries/StdPeripheralDriver/src/stm32f10x_tim.c ****   uint16_t tmp = 0;
 4067              		.loc 1 2006 0
 4068 0010 0023     		movs	r3, #0
 4069 0012 FB81     		strh	r3, [r7, #14]	@ movhi
2007:../Libraries/StdPeripheralDriver/src/stm32f10x_tim.c **** 
2008:../Libraries/StdPeripheralDriver/src/stm32f10x_tim.c ****   /* Check the parameters */
2009:../Libraries/StdPeripheralDriver/src/stm32f10x_tim.c ****   assert_param(IS_TIM_LIST2_PERIPH(TIMx));
2010:../Libraries/StdPeripheralDriver/src/stm32f10x_tim.c ****   assert_param(IS_TIM_COMPLEMENTARY_CHANNEL(TIM_Channel));
2011:../Libraries/StdPeripheralDriver/src/stm32f10x_tim.c ****   assert_param(IS_TIM_CCXN(TIM_CCxN));
2012:../Libraries/StdPeripheralDriver/src/stm32f10x_tim.c **** 
2013:../Libraries/StdPeripheralDriver/src/stm32f10x_tim.c ****   tmp = CCER_CCNE_Set << TIM_Channel;
 4070              		.loc 1 2013 0
 4071 0014 7B88     		ldrh	r3, [r7, #2]
 4072 0016 0422     		movs	r2, #4
 4073 0018 02FA03F3 		lsl	r3, r2, r3
 4074 001c FB81     		strh	r3, [r7, #14]	@ movhi
2014:../Libraries/StdPeripheralDriver/src/stm32f10x_tim.c **** 
2015:../Libraries/StdPeripheralDriver/src/stm32f10x_tim.c ****   /* Reset the CCxNE Bit */
2016:../Libraries/StdPeripheralDriver/src/stm32f10x_tim.c ****   TIMx->CCER &= (uint16_t) ~tmp;
 4075              		.loc 1 2016 0
 4076 001e 7B68     		ldr	r3, [r7, #4]
 4077 0020 1B8C     		ldrh	r3, [r3, #32]	@ movhi
 4078 0022 9AB2     		uxth	r2, r3
 4079 0024 FB89     		ldrh	r3, [r7, #14]	@ movhi
 4080 0026 DB43     		mvns	r3, r3
 4081 0028 9BB2     		uxth	r3, r3
 4082 002a 1340     		ands	r3, r3, r2
 4083 002c 9AB2     		uxth	r2, r3
 4084 002e 7B68     		ldr	r3, [r7, #4]
 4085 0030 1A84     		strh	r2, [r3, #32]	@ movhi
2017:../Libraries/StdPeripheralDriver/src/stm32f10x_tim.c **** 
2018:../Libraries/StdPeripheralDriver/src/stm32f10x_tim.c ****   /* Set or reset the CCxNE Bit */ 
2019:../Libraries/StdPeripheralDriver/src/stm32f10x_tim.c ****   TIMx->CCER |=  (uint16_t)(TIM_CCxN << TIM_Channel);
 4086              		.loc 1 2019 0
 4087 0032 7B68     		ldr	r3, [r7, #4]
 4088 0034 1B8C     		ldrh	r3, [r3, #32]	@ movhi
 4089 0036 9AB2     		uxth	r2, r3
 4090 0038 3988     		ldrh	r1, [r7]
 4091 003a 7B88     		ldrh	r3, [r7, #2]
 4092 003c 01FA03F3 		lsl	r3, r1, r3
 4093 0040 9BB2     		uxth	r3, r3
 4094 0042 1343     		orrs	r3, r3, r2
 4095 0044 9AB2     		uxth	r2, r3
 4096 0046 7B68     		ldr	r3, [r7, #4]
 4097 0048 1A84     		strh	r2, [r3, #32]	@ movhi
2020:../Libraries/StdPeripheralDriver/src/stm32f10x_tim.c **** }
 4098              		.loc 1 2020 0
 4099 004a 1437     		adds	r7, r7, #20
 4100 004c BD46     		mov	sp, r7
 4101              		@ sp needed
 4102 004e 5DF8047B 		ldr	r7, [sp], #4
 4103 0052 7047     		bx	lr
 4104              		.cfi_endproc
 4105              	.LFE86:
 4107              		.section	.text.TIM_SelectOCxM,"ax",%progbits
 4108              		.align	2
 4109              		.global	TIM_SelectOCxM
 4110              		.thumb
 4111              		.thumb_func
 4113              	TIM_SelectOCxM:
 4114              	.LFB87:
2021:../Libraries/StdPeripheralDriver/src/stm32f10x_tim.c **** 
2022:../Libraries/StdPeripheralDriver/src/stm32f10x_tim.c **** /**
2023:../Libraries/StdPeripheralDriver/src/stm32f10x_tim.c ****   * @brief  Selects the TIM Output Compare Mode.
2024:../Libraries/StdPeripheralDriver/src/stm32f10x_tim.c ****   * @note   This function disables the selected channel before changing the Output
2025:../Libraries/StdPeripheralDriver/src/stm32f10x_tim.c ****   *         Compare Mode.
2026:../Libraries/StdPeripheralDriver/src/stm32f10x_tim.c ****   *         User has to enable this channel using TIM_CCxCmd and TIM_CCxNCmd functions.
2027:../Libraries/StdPeripheralDriver/src/stm32f10x_tim.c ****   * @param  TIMx: where x can be 1 to 17 except 6 and 7 to select the TIM peripheral.
2028:../Libraries/StdPeripheralDriver/src/stm32f10x_tim.c ****   * @param  TIM_Channel: specifies the TIM Channel
2029:../Libraries/StdPeripheralDriver/src/stm32f10x_tim.c ****   *   This parameter can be one of the following values:
2030:../Libraries/StdPeripheralDriver/src/stm32f10x_tim.c ****   *     @arg TIM_Channel_1: TIM Channel 1
2031:../Libraries/StdPeripheralDriver/src/stm32f10x_tim.c ****   *     @arg TIM_Channel_2: TIM Channel 2
2032:../Libraries/StdPeripheralDriver/src/stm32f10x_tim.c ****   *     @arg TIM_Channel_3: TIM Channel 3
2033:../Libraries/StdPeripheralDriver/src/stm32f10x_tim.c ****   *     @arg TIM_Channel_4: TIM Channel 4
2034:../Libraries/StdPeripheralDriver/src/stm32f10x_tim.c ****   * @param  TIM_OCMode: specifies the TIM Output Compare Mode.
2035:../Libraries/StdPeripheralDriver/src/stm32f10x_tim.c ****   *   This parameter can be one of the following values:
2036:../Libraries/StdPeripheralDriver/src/stm32f10x_tim.c ****   *     @arg TIM_OCMode_Timing
2037:../Libraries/StdPeripheralDriver/src/stm32f10x_tim.c ****   *     @arg TIM_OCMode_Active
2038:../Libraries/StdPeripheralDriver/src/stm32f10x_tim.c ****   *     @arg TIM_OCMode_Toggle
2039:../Libraries/StdPeripheralDriver/src/stm32f10x_tim.c ****   *     @arg TIM_OCMode_PWM1
2040:../Libraries/StdPeripheralDriver/src/stm32f10x_tim.c ****   *     @arg TIM_OCMode_PWM2
2041:../Libraries/StdPeripheralDriver/src/stm32f10x_tim.c ****   *     @arg TIM_ForcedAction_Active
2042:../Libraries/StdPeripheralDriver/src/stm32f10x_tim.c ****   *     @arg TIM_ForcedAction_InActive
2043:../Libraries/StdPeripheralDriver/src/stm32f10x_tim.c ****   * @retval None
2044:../Libraries/StdPeripheralDriver/src/stm32f10x_tim.c ****   */
2045:../Libraries/StdPeripheralDriver/src/stm32f10x_tim.c **** void TIM_SelectOCxM(TIM_TypeDef* TIMx, uint16_t TIM_Channel, uint16_t TIM_OCMode)
2046:../Libraries/StdPeripheralDriver/src/stm32f10x_tim.c **** {
 4115              		.loc 1 2046 0
 4116              		.cfi_startproc
 4117              		@ args = 0, pretend = 0, frame = 16
 4118              		@ frame_needed = 1, uses_anonymous_args = 0
 4119              		@ link register save eliminated.
 4120 0000 80B4     		push	{r7}
 4121              		.cfi_def_cfa_offset 4
 4122              		.cfi_offset 7, -4
 4123 0002 85B0     		sub	sp, sp, #20
 4124              		.cfi_def_cfa_offset 24
 4125 0004 00AF     		add	r7, sp, #0
 4126              		.cfi_def_cfa_register 7
 4127 0006 7860     		str	r0, [r7, #4]
 4128 0008 1346     		mov	r3, r2
 4129 000a 0A46     		mov	r2, r1	@ movhi
 4130 000c 7A80     		strh	r2, [r7, #2]	@ movhi
 4131 000e 3B80     		strh	r3, [r7]	@ movhi
2047:../Libraries/StdPeripheralDriver/src/stm32f10x_tim.c ****   uint32_t tmp = 0;
 4132              		.loc 1 2047 0
 4133 0010 0023     		movs	r3, #0
 4134 0012 FB60     		str	r3, [r7, #12]
2048:../Libraries/StdPeripheralDriver/src/stm32f10x_tim.c ****   uint16_t tmp1 = 0;
 4135              		.loc 1 2048 0
 4136 0014 0023     		movs	r3, #0
 4137 0016 7B81     		strh	r3, [r7, #10]	@ movhi
2049:../Libraries/StdPeripheralDriver/src/stm32f10x_tim.c **** 
2050:../Libraries/StdPeripheralDriver/src/stm32f10x_tim.c ****   /* Check the parameters */
2051:../Libraries/StdPeripheralDriver/src/stm32f10x_tim.c ****   assert_param(IS_TIM_LIST8_PERIPH(TIMx));
2052:../Libraries/StdPeripheralDriver/src/stm32f10x_tim.c ****   assert_param(IS_TIM_CHANNEL(TIM_Channel));
2053:../Libraries/StdPeripheralDriver/src/stm32f10x_tim.c ****   assert_param(IS_TIM_OCM(TIM_OCMode));
2054:../Libraries/StdPeripheralDriver/src/stm32f10x_tim.c **** 
2055:../Libraries/StdPeripheralDriver/src/stm32f10x_tim.c ****   tmp = (uint32_t) TIMx;
 4138              		.loc 1 2055 0
 4139 0018 7B68     		ldr	r3, [r7, #4]
 4140 001a FB60     		str	r3, [r7, #12]
2056:../Libraries/StdPeripheralDriver/src/stm32f10x_tim.c ****   tmp += CCMR_Offset;
 4141              		.loc 1 2056 0
 4142 001c FB68     		ldr	r3, [r7, #12]
 4143 001e 1833     		adds	r3, r3, #24
 4144 0020 FB60     		str	r3, [r7, #12]
2057:../Libraries/StdPeripheralDriver/src/stm32f10x_tim.c **** 
2058:../Libraries/StdPeripheralDriver/src/stm32f10x_tim.c ****   tmp1 = CCER_CCE_Set << (uint16_t)TIM_Channel;
 4145              		.loc 1 2058 0
 4146 0022 7B88     		ldrh	r3, [r7, #2]
 4147 0024 0122     		movs	r2, #1
 4148 0026 02FA03F3 		lsl	r3, r2, r3
 4149 002a 7B81     		strh	r3, [r7, #10]	@ movhi
2059:../Libraries/StdPeripheralDriver/src/stm32f10x_tim.c **** 
2060:../Libraries/StdPeripheralDriver/src/stm32f10x_tim.c ****   /* Disable the Channel: Reset the CCxE Bit */
2061:../Libraries/StdPeripheralDriver/src/stm32f10x_tim.c ****   TIMx->CCER &= (uint16_t) ~tmp1;
 4150              		.loc 1 2061 0
 4151 002c 7B68     		ldr	r3, [r7, #4]
 4152 002e 1B8C     		ldrh	r3, [r3, #32]	@ movhi
 4153 0030 9AB2     		uxth	r2, r3
 4154 0032 7B89     		ldrh	r3, [r7, #10]	@ movhi
 4155 0034 DB43     		mvns	r3, r3
 4156 0036 9BB2     		uxth	r3, r3
 4157 0038 1340     		ands	r3, r3, r2
 4158 003a 9AB2     		uxth	r2, r3
 4159 003c 7B68     		ldr	r3, [r7, #4]
 4160 003e 1A84     		strh	r2, [r3, #32]	@ movhi
2062:../Libraries/StdPeripheralDriver/src/stm32f10x_tim.c **** 
2063:../Libraries/StdPeripheralDriver/src/stm32f10x_tim.c ****   if((TIM_Channel == TIM_Channel_1) ||(TIM_Channel == TIM_Channel_3))
 4161              		.loc 1 2063 0
 4162 0040 7B88     		ldrh	r3, [r7, #2]
 4163 0042 002B     		cmp	r3, #0
 4164 0044 02D0     		beq	.L118
 4165              		.loc 1 2063 0 is_stmt 0 discriminator 1
 4166 0046 7B88     		ldrh	r3, [r7, #2]
 4167 0048 082B     		cmp	r3, #8
 4168 004a 12D1     		bne	.L119
 4169              	.L118:
2064:../Libraries/StdPeripheralDriver/src/stm32f10x_tim.c ****   {
2065:../Libraries/StdPeripheralDriver/src/stm32f10x_tim.c ****     tmp += (TIM_Channel>>1);
 4170              		.loc 1 2065 0 is_stmt 1
 4171 004c 7B88     		ldrh	r3, [r7, #2]
 4172 004e 5B08     		lsrs	r3, r3, #1
 4173 0050 9BB2     		uxth	r3, r3
 4174 0052 FA68     		ldr	r2, [r7, #12]
 4175 0054 1344     		add	r3, r3, r2
 4176 0056 FB60     		str	r3, [r7, #12]
2066:../Libraries/StdPeripheralDriver/src/stm32f10x_tim.c **** 
2067:../Libraries/StdPeripheralDriver/src/stm32f10x_tim.c ****     /* Reset the OCxM bits in the CCMRx register */
2068:../Libraries/StdPeripheralDriver/src/stm32f10x_tim.c ****     *(__IO uint32_t *) tmp &= (uint32_t)~((uint32_t)TIM_CCMR1_OC1M);
 4177              		.loc 1 2068 0
 4178 0058 FB68     		ldr	r3, [r7, #12]
 4179 005a FA68     		ldr	r2, [r7, #12]
 4180 005c 1268     		ldr	r2, [r2]
 4181 005e 22F07002 		bic	r2, r2, #112
 4182 0062 1A60     		str	r2, [r3]
2069:../Libraries/StdPeripheralDriver/src/stm32f10x_tim.c ****    
2070:../Libraries/StdPeripheralDriver/src/stm32f10x_tim.c ****     /* Configure the OCxM bits in the CCMRx register */
2071:../Libraries/StdPeripheralDriver/src/stm32f10x_tim.c ****     *(__IO uint32_t *) tmp |= TIM_OCMode;
 4183              		.loc 1 2071 0
 4184 0064 FB68     		ldr	r3, [r7, #12]
 4185 0066 FA68     		ldr	r2, [r7, #12]
 4186 0068 1168     		ldr	r1, [r2]
 4187 006a 3A88     		ldrh	r2, [r7]
 4188 006c 0A43     		orrs	r2, r2, r1
 4189 006e 1A60     		str	r2, [r3]
 4190 0070 15E0     		b	.L117
 4191              	.L119:
2072:../Libraries/StdPeripheralDriver/src/stm32f10x_tim.c ****   }
2073:../Libraries/StdPeripheralDriver/src/stm32f10x_tim.c ****   else
2074:../Libraries/StdPeripheralDriver/src/stm32f10x_tim.c ****   {
2075:../Libraries/StdPeripheralDriver/src/stm32f10x_tim.c ****     tmp += (uint16_t)(TIM_Channel - (uint16_t)4)>> (uint16_t)1;
 4192              		.loc 1 2075 0
 4193 0072 7B88     		ldrh	r3, [r7, #2]	@ movhi
 4194 0074 043B     		subs	r3, r3, #4
 4195 0076 9BB2     		uxth	r3, r3
 4196 0078 5B08     		lsrs	r3, r3, #1
 4197 007a 9BB2     		uxth	r3, r3
 4198 007c FA68     		ldr	r2, [r7, #12]
 4199 007e 1344     		add	r3, r3, r2
 4200 0080 FB60     		str	r3, [r7, #12]
2076:../Libraries/StdPeripheralDriver/src/stm32f10x_tim.c **** 
2077:../Libraries/StdPeripheralDriver/src/stm32f10x_tim.c ****     /* Reset the OCxM bits in the CCMRx register */
2078:../Libraries/StdPeripheralDriver/src/stm32f10x_tim.c ****     *(__IO uint32_t *) tmp &= (uint32_t)~((uint32_t)TIM_CCMR1_OC2M);
 4201              		.loc 1 2078 0
 4202 0082 FB68     		ldr	r3, [r7, #12]
 4203 0084 FA68     		ldr	r2, [r7, #12]
 4204 0086 1268     		ldr	r2, [r2]
 4205 0088 22F4E042 		bic	r2, r2, #28672
 4206 008c 1A60     		str	r2, [r3]
2079:../Libraries/StdPeripheralDriver/src/stm32f10x_tim.c ****     
2080:../Libraries/StdPeripheralDriver/src/stm32f10x_tim.c ****     /* Configure the OCxM bits in the CCMRx register */
2081:../Libraries/StdPeripheralDriver/src/stm32f10x_tim.c ****     *(__IO uint32_t *) tmp |= (uint16_t)(TIM_OCMode << 8);
 4207              		.loc 1 2081 0
 4208 008e FB68     		ldr	r3, [r7, #12]
 4209 0090 FA68     		ldr	r2, [r7, #12]
 4210 0092 1168     		ldr	r1, [r2]
 4211 0094 3A88     		ldrh	r2, [r7]	@ movhi
 4212 0096 1202     		lsls	r2, r2, #8
 4213 0098 92B2     		uxth	r2, r2
 4214 009a 0A43     		orrs	r2, r2, r1
 4215 009c 1A60     		str	r2, [r3]
 4216              	.L117:
2082:../Libraries/StdPeripheralDriver/src/stm32f10x_tim.c ****   }
2083:../Libraries/StdPeripheralDriver/src/stm32f10x_tim.c **** }
 4217              		.loc 1 2083 0
 4218 009e 1437     		adds	r7, r7, #20
 4219 00a0 BD46     		mov	sp, r7
 4220              		@ sp needed
 4221 00a2 5DF8047B 		ldr	r7, [sp], #4
 4222 00a6 7047     		bx	lr
 4223              		.cfi_endproc
 4224              	.LFE87:
 4226              		.section	.text.TIM_UpdateDisableConfig,"ax",%progbits
 4227              		.align	2
 4228              		.global	TIM_UpdateDisableConfig
 4229              		.thumb
 4230              		.thumb_func
 4232              	TIM_UpdateDisableConfig:
 4233              	.LFB88:
2084:../Libraries/StdPeripheralDriver/src/stm32f10x_tim.c **** 
2085:../Libraries/StdPeripheralDriver/src/stm32f10x_tim.c **** /**
2086:../Libraries/StdPeripheralDriver/src/stm32f10x_tim.c ****   * @brief  Enables or Disables the TIMx Update event.
2087:../Libraries/StdPeripheralDriver/src/stm32f10x_tim.c ****   * @param  TIMx: where x can be 1 to 17 to select the TIM peripheral.
2088:../Libraries/StdPeripheralDriver/src/stm32f10x_tim.c ****   * @param  NewState: new state of the TIMx UDIS bit
2089:../Libraries/StdPeripheralDriver/src/stm32f10x_tim.c ****   *   This parameter can be: ENABLE or DISABLE.
2090:../Libraries/StdPeripheralDriver/src/stm32f10x_tim.c ****   * @retval None
2091:../Libraries/StdPeripheralDriver/src/stm32f10x_tim.c ****   */
2092:../Libraries/StdPeripheralDriver/src/stm32f10x_tim.c **** void TIM_UpdateDisableConfig(TIM_TypeDef* TIMx, FunctionalState NewState)
2093:../Libraries/StdPeripheralDriver/src/stm32f10x_tim.c **** {
 4234              		.loc 1 2093 0
 4235              		.cfi_startproc
 4236              		@ args = 0, pretend = 0, frame = 8
 4237              		@ frame_needed = 1, uses_anonymous_args = 0
 4238              		@ link register save eliminated.
 4239 0000 80B4     		push	{r7}
 4240              		.cfi_def_cfa_offset 4
 4241              		.cfi_offset 7, -4
 4242 0002 83B0     		sub	sp, sp, #12
 4243              		.cfi_def_cfa_offset 16
 4244 0004 00AF     		add	r7, sp, #0
 4245              		.cfi_def_cfa_register 7
 4246 0006 7860     		str	r0, [r7, #4]
 4247 0008 0B46     		mov	r3, r1
 4248 000a FB70     		strb	r3, [r7, #3]
2094:../Libraries/StdPeripheralDriver/src/stm32f10x_tim.c ****   /* Check the parameters */
2095:../Libraries/StdPeripheralDriver/src/stm32f10x_tim.c ****   assert_param(IS_TIM_ALL_PERIPH(TIMx));
2096:../Libraries/StdPeripheralDriver/src/stm32f10x_tim.c ****   assert_param(IS_FUNCTIONAL_STATE(NewState));
2097:../Libraries/StdPeripheralDriver/src/stm32f10x_tim.c ****   if (NewState != DISABLE)
 4249              		.loc 1 2097 0
 4250 000c FB78     		ldrb	r3, [r7, #3]	@ zero_extendqisi2
 4251 000e 002B     		cmp	r3, #0
 4252 0010 08D0     		beq	.L122
2098:../Libraries/StdPeripheralDriver/src/stm32f10x_tim.c ****   {
2099:../Libraries/StdPeripheralDriver/src/stm32f10x_tim.c ****     /* Set the Update Disable Bit */
2100:../Libraries/StdPeripheralDriver/src/stm32f10x_tim.c ****     TIMx->CR1 |= TIM_CR1_UDIS;
 4253              		.loc 1 2100 0
 4254 0012 7B68     		ldr	r3, [r7, #4]
 4255 0014 1B88     		ldrh	r3, [r3]	@ movhi
 4256 0016 9BB2     		uxth	r3, r3
 4257 0018 43F00203 		orr	r3, r3, #2
 4258 001c 9AB2     		uxth	r2, r3
 4259 001e 7B68     		ldr	r3, [r7, #4]
 4260 0020 1A80     		strh	r2, [r3]	@ movhi
 4261 0022 07E0     		b	.L121
 4262              	.L122:
2101:../Libraries/StdPeripheralDriver/src/stm32f10x_tim.c ****   }
2102:../Libraries/StdPeripheralDriver/src/stm32f10x_tim.c ****   else
2103:../Libraries/StdPeripheralDriver/src/stm32f10x_tim.c ****   {
2104:../Libraries/StdPeripheralDriver/src/stm32f10x_tim.c ****     /* Reset the Update Disable Bit */
2105:../Libraries/StdPeripheralDriver/src/stm32f10x_tim.c ****     TIMx->CR1 &= (uint16_t)~((uint16_t)TIM_CR1_UDIS);
 4263              		.loc 1 2105 0
 4264 0024 7B68     		ldr	r3, [r7, #4]
 4265 0026 1B88     		ldrh	r3, [r3]	@ movhi
 4266 0028 9BB2     		uxth	r3, r3
 4267 002a 23F00203 		bic	r3, r3, #2
 4268 002e 9AB2     		uxth	r2, r3
 4269 0030 7B68     		ldr	r3, [r7, #4]
 4270 0032 1A80     		strh	r2, [r3]	@ movhi
 4271              	.L121:
2106:../Libraries/StdPeripheralDriver/src/stm32f10x_tim.c ****   }
2107:../Libraries/StdPeripheralDriver/src/stm32f10x_tim.c **** }
 4272              		.loc 1 2107 0
 4273 0034 0C37     		adds	r7, r7, #12
 4274 0036 BD46     		mov	sp, r7
 4275              		@ sp needed
 4276 0038 5DF8047B 		ldr	r7, [sp], #4
 4277 003c 7047     		bx	lr
 4278              		.cfi_endproc
 4279              	.LFE88:
 4281 003e 00BF     		.section	.text.TIM_UpdateRequestConfig,"ax",%progbits
 4282              		.align	2
 4283              		.global	TIM_UpdateRequestConfig
 4284              		.thumb
 4285              		.thumb_func
 4287              	TIM_UpdateRequestConfig:
 4288              	.LFB89:
2108:../Libraries/StdPeripheralDriver/src/stm32f10x_tim.c **** 
2109:../Libraries/StdPeripheralDriver/src/stm32f10x_tim.c **** /**
2110:../Libraries/StdPeripheralDriver/src/stm32f10x_tim.c ****   * @brief  Configures the TIMx Update Request Interrupt source.
2111:../Libraries/StdPeripheralDriver/src/stm32f10x_tim.c ****   * @param  TIMx: where x can be 1 to 17 to select the TIM peripheral.
2112:../Libraries/StdPeripheralDriver/src/stm32f10x_tim.c ****   * @param  TIM_UpdateSource: specifies the Update source.
2113:../Libraries/StdPeripheralDriver/src/stm32f10x_tim.c ****   *   This parameter can be one of the following values:
2114:../Libraries/StdPeripheralDriver/src/stm32f10x_tim.c ****   *     @arg TIM_UpdateSource_Regular: Source of update is the counter overflow/underflow
2115:../Libraries/StdPeripheralDriver/src/stm32f10x_tim.c ****                                        or the setting of UG bit, or an update generation
2116:../Libraries/StdPeripheralDriver/src/stm32f10x_tim.c ****                                        through the slave mode controller.
2117:../Libraries/StdPeripheralDriver/src/stm32f10x_tim.c ****   *     @arg TIM_UpdateSource_Global: Source of update is counter overflow/underflow.
2118:../Libraries/StdPeripheralDriver/src/stm32f10x_tim.c ****   * @retval None
2119:../Libraries/StdPeripheralDriver/src/stm32f10x_tim.c ****   */
2120:../Libraries/StdPeripheralDriver/src/stm32f10x_tim.c **** void TIM_UpdateRequestConfig(TIM_TypeDef* TIMx, uint16_t TIM_UpdateSource)
2121:../Libraries/StdPeripheralDriver/src/stm32f10x_tim.c **** {
 4289              		.loc 1 2121 0
 4290              		.cfi_startproc
 4291              		@ args = 0, pretend = 0, frame = 8
 4292              		@ frame_needed = 1, uses_anonymous_args = 0
 4293              		@ link register save eliminated.
 4294 0000 80B4     		push	{r7}
 4295              		.cfi_def_cfa_offset 4
 4296              		.cfi_offset 7, -4
 4297 0002 83B0     		sub	sp, sp, #12
 4298              		.cfi_def_cfa_offset 16
 4299 0004 00AF     		add	r7, sp, #0
 4300              		.cfi_def_cfa_register 7
 4301 0006 7860     		str	r0, [r7, #4]
 4302 0008 0B46     		mov	r3, r1
 4303 000a 7B80     		strh	r3, [r7, #2]	@ movhi
2122:../Libraries/StdPeripheralDriver/src/stm32f10x_tim.c ****   /* Check the parameters */
2123:../Libraries/StdPeripheralDriver/src/stm32f10x_tim.c ****   assert_param(IS_TIM_ALL_PERIPH(TIMx));
2124:../Libraries/StdPeripheralDriver/src/stm32f10x_tim.c ****   assert_param(IS_TIM_UPDATE_SOURCE(TIM_UpdateSource));
2125:../Libraries/StdPeripheralDriver/src/stm32f10x_tim.c ****   if (TIM_UpdateSource != TIM_UpdateSource_Global)
 4304              		.loc 1 2125 0
 4305 000c 7B88     		ldrh	r3, [r7, #2]
 4306 000e 002B     		cmp	r3, #0
 4307 0010 08D0     		beq	.L125
2126:../Libraries/StdPeripheralDriver/src/stm32f10x_tim.c ****   {
2127:../Libraries/StdPeripheralDriver/src/stm32f10x_tim.c ****     /* Set the URS Bit */
2128:../Libraries/StdPeripheralDriver/src/stm32f10x_tim.c ****     TIMx->CR1 |= TIM_CR1_URS;
 4308              		.loc 1 2128 0
 4309 0012 7B68     		ldr	r3, [r7, #4]
 4310 0014 1B88     		ldrh	r3, [r3]	@ movhi
 4311 0016 9BB2     		uxth	r3, r3
 4312 0018 43F00403 		orr	r3, r3, #4
 4313 001c 9AB2     		uxth	r2, r3
 4314 001e 7B68     		ldr	r3, [r7, #4]
 4315 0020 1A80     		strh	r2, [r3]	@ movhi
 4316 0022 07E0     		b	.L124
 4317              	.L125:
2129:../Libraries/StdPeripheralDriver/src/stm32f10x_tim.c ****   }
2130:../Libraries/StdPeripheralDriver/src/stm32f10x_tim.c ****   else
2131:../Libraries/StdPeripheralDriver/src/stm32f10x_tim.c ****   {
2132:../Libraries/StdPeripheralDriver/src/stm32f10x_tim.c ****     /* Reset the URS Bit */
2133:../Libraries/StdPeripheralDriver/src/stm32f10x_tim.c ****     TIMx->CR1 &= (uint16_t)~((uint16_t)TIM_CR1_URS);
 4318              		.loc 1 2133 0
 4319 0024 7B68     		ldr	r3, [r7, #4]
 4320 0026 1B88     		ldrh	r3, [r3]	@ movhi
 4321 0028 9BB2     		uxth	r3, r3
 4322 002a 23F00403 		bic	r3, r3, #4
 4323 002e 9AB2     		uxth	r2, r3
 4324 0030 7B68     		ldr	r3, [r7, #4]
 4325 0032 1A80     		strh	r2, [r3]	@ movhi
 4326              	.L124:
2134:../Libraries/StdPeripheralDriver/src/stm32f10x_tim.c ****   }
2135:../Libraries/StdPeripheralDriver/src/stm32f10x_tim.c **** }
 4327              		.loc 1 2135 0
 4328 0034 0C37     		adds	r7, r7, #12
 4329 0036 BD46     		mov	sp, r7
 4330              		@ sp needed
 4331 0038 5DF8047B 		ldr	r7, [sp], #4
 4332 003c 7047     		bx	lr
 4333              		.cfi_endproc
 4334              	.LFE89:
 4336 003e 00BF     		.section	.text.TIM_SelectHallSensor,"ax",%progbits
 4337              		.align	2
 4338              		.global	TIM_SelectHallSensor
 4339              		.thumb
 4340              		.thumb_func
 4342              	TIM_SelectHallSensor:
 4343              	.LFB90:
2136:../Libraries/StdPeripheralDriver/src/stm32f10x_tim.c **** 
2137:../Libraries/StdPeripheralDriver/src/stm32f10x_tim.c **** /**
2138:../Libraries/StdPeripheralDriver/src/stm32f10x_tim.c ****   * @brief  Enables or disables the TIMx's Hall sensor interface.
2139:../Libraries/StdPeripheralDriver/src/stm32f10x_tim.c ****   * @param  TIMx: where x can be 1, 2, 3, 4, 5 or 8 to select the TIM peripheral.
2140:../Libraries/StdPeripheralDriver/src/stm32f10x_tim.c ****   * @param  NewState: new state of the TIMx Hall sensor interface.
2141:../Libraries/StdPeripheralDriver/src/stm32f10x_tim.c ****   *   This parameter can be: ENABLE or DISABLE.
2142:../Libraries/StdPeripheralDriver/src/stm32f10x_tim.c ****   * @retval None
2143:../Libraries/StdPeripheralDriver/src/stm32f10x_tim.c ****   */
2144:../Libraries/StdPeripheralDriver/src/stm32f10x_tim.c **** void TIM_SelectHallSensor(TIM_TypeDef* TIMx, FunctionalState NewState)
2145:../Libraries/StdPeripheralDriver/src/stm32f10x_tim.c **** {
 4344              		.loc 1 2145 0
 4345              		.cfi_startproc
 4346              		@ args = 0, pretend = 0, frame = 8
 4347              		@ frame_needed = 1, uses_anonymous_args = 0
 4348              		@ link register save eliminated.
 4349 0000 80B4     		push	{r7}
 4350              		.cfi_def_cfa_offset 4
 4351              		.cfi_offset 7, -4
 4352 0002 83B0     		sub	sp, sp, #12
 4353              		.cfi_def_cfa_offset 16
 4354 0004 00AF     		add	r7, sp, #0
 4355              		.cfi_def_cfa_register 7
 4356 0006 7860     		str	r0, [r7, #4]
 4357 0008 0B46     		mov	r3, r1
 4358 000a FB70     		strb	r3, [r7, #3]
2146:../Libraries/StdPeripheralDriver/src/stm32f10x_tim.c ****   /* Check the parameters */
2147:../Libraries/StdPeripheralDriver/src/stm32f10x_tim.c ****   assert_param(IS_TIM_LIST6_PERIPH(TIMx));
2148:../Libraries/StdPeripheralDriver/src/stm32f10x_tim.c ****   assert_param(IS_FUNCTIONAL_STATE(NewState));
2149:../Libraries/StdPeripheralDriver/src/stm32f10x_tim.c ****   if (NewState != DISABLE)
 4359              		.loc 1 2149 0
 4360 000c FB78     		ldrb	r3, [r7, #3]	@ zero_extendqisi2
 4361 000e 002B     		cmp	r3, #0
 4362 0010 08D0     		beq	.L128
2150:../Libraries/StdPeripheralDriver/src/stm32f10x_tim.c ****   {
2151:../Libraries/StdPeripheralDriver/src/stm32f10x_tim.c ****     /* Set the TI1S Bit */
2152:../Libraries/StdPeripheralDriver/src/stm32f10x_tim.c ****     TIMx->CR2 |= TIM_CR2_TI1S;
 4363              		.loc 1 2152 0
 4364 0012 7B68     		ldr	r3, [r7, #4]
 4365 0014 9B88     		ldrh	r3, [r3, #4]	@ movhi
 4366 0016 9BB2     		uxth	r3, r3
 4367 0018 43F08003 		orr	r3, r3, #128
 4368 001c 9AB2     		uxth	r2, r3
 4369 001e 7B68     		ldr	r3, [r7, #4]
 4370 0020 9A80     		strh	r2, [r3, #4]	@ movhi
 4371 0022 07E0     		b	.L127
 4372              	.L128:
2153:../Libraries/StdPeripheralDriver/src/stm32f10x_tim.c ****   }
2154:../Libraries/StdPeripheralDriver/src/stm32f10x_tim.c ****   else
2155:../Libraries/StdPeripheralDriver/src/stm32f10x_tim.c ****   {
2156:../Libraries/StdPeripheralDriver/src/stm32f10x_tim.c ****     /* Reset the TI1S Bit */
2157:../Libraries/StdPeripheralDriver/src/stm32f10x_tim.c ****     TIMx->CR2 &= (uint16_t)~((uint16_t)TIM_CR2_TI1S);
 4373              		.loc 1 2157 0
 4374 0024 7B68     		ldr	r3, [r7, #4]
 4375 0026 9B88     		ldrh	r3, [r3, #4]	@ movhi
 4376 0028 9BB2     		uxth	r3, r3
 4377 002a 23F08003 		bic	r3, r3, #128
 4378 002e 9AB2     		uxth	r2, r3
 4379 0030 7B68     		ldr	r3, [r7, #4]
 4380 0032 9A80     		strh	r2, [r3, #4]	@ movhi
 4381              	.L127:
2158:../Libraries/StdPeripheralDriver/src/stm32f10x_tim.c ****   }
2159:../Libraries/StdPeripheralDriver/src/stm32f10x_tim.c **** }
 4382              		.loc 1 2159 0
 4383 0034 0C37     		adds	r7, r7, #12
 4384 0036 BD46     		mov	sp, r7
 4385              		@ sp needed
 4386 0038 5DF8047B 		ldr	r7, [sp], #4
 4387 003c 7047     		bx	lr
 4388              		.cfi_endproc
 4389              	.LFE90:
 4391 003e 00BF     		.section	.text.TIM_SelectOnePulseMode,"ax",%progbits
 4392              		.align	2
 4393              		.global	TIM_SelectOnePulseMode
 4394              		.thumb
 4395              		.thumb_func
 4397              	TIM_SelectOnePulseMode:
 4398              	.LFB91:
2160:../Libraries/StdPeripheralDriver/src/stm32f10x_tim.c **** 
2161:../Libraries/StdPeripheralDriver/src/stm32f10x_tim.c **** /**
2162:../Libraries/StdPeripheralDriver/src/stm32f10x_tim.c ****   * @brief  Selects the TIMx's One Pulse Mode.
2163:../Libraries/StdPeripheralDriver/src/stm32f10x_tim.c ****   * @param  TIMx: where x can be 1 to 17 to select the TIM peripheral.
2164:../Libraries/StdPeripheralDriver/src/stm32f10x_tim.c ****   * @param  TIM_OPMode: specifies the OPM Mode to be used.
2165:../Libraries/StdPeripheralDriver/src/stm32f10x_tim.c ****   *   This parameter can be one of the following values:
2166:../Libraries/StdPeripheralDriver/src/stm32f10x_tim.c ****   *     @arg TIM_OPMode_Single
2167:../Libraries/StdPeripheralDriver/src/stm32f10x_tim.c ****   *     @arg TIM_OPMode_Repetitive
2168:../Libraries/StdPeripheralDriver/src/stm32f10x_tim.c ****   * @retval None
2169:../Libraries/StdPeripheralDriver/src/stm32f10x_tim.c ****   */
2170:../Libraries/StdPeripheralDriver/src/stm32f10x_tim.c **** void TIM_SelectOnePulseMode(TIM_TypeDef* TIMx, uint16_t TIM_OPMode)
2171:../Libraries/StdPeripheralDriver/src/stm32f10x_tim.c **** {
 4399              		.loc 1 2171 0
 4400              		.cfi_startproc
 4401              		@ args = 0, pretend = 0, frame = 8
 4402              		@ frame_needed = 1, uses_anonymous_args = 0
 4403              		@ link register save eliminated.
 4404 0000 80B4     		push	{r7}
 4405              		.cfi_def_cfa_offset 4
 4406              		.cfi_offset 7, -4
 4407 0002 83B0     		sub	sp, sp, #12
 4408              		.cfi_def_cfa_offset 16
 4409 0004 00AF     		add	r7, sp, #0
 4410              		.cfi_def_cfa_register 7
 4411 0006 7860     		str	r0, [r7, #4]
 4412 0008 0B46     		mov	r3, r1
 4413 000a 7B80     		strh	r3, [r7, #2]	@ movhi
2172:../Libraries/StdPeripheralDriver/src/stm32f10x_tim.c ****   /* Check the parameters */
2173:../Libraries/StdPeripheralDriver/src/stm32f10x_tim.c ****   assert_param(IS_TIM_ALL_PERIPH(TIMx));
2174:../Libraries/StdPeripheralDriver/src/stm32f10x_tim.c ****   assert_param(IS_TIM_OPM_MODE(TIM_OPMode));
2175:../Libraries/StdPeripheralDriver/src/stm32f10x_tim.c ****   /* Reset the OPM Bit */
2176:../Libraries/StdPeripheralDriver/src/stm32f10x_tim.c ****   TIMx->CR1 &= (uint16_t)~((uint16_t)TIM_CR1_OPM);
 4414              		.loc 1 2176 0
 4415 000c 7B68     		ldr	r3, [r7, #4]
 4416 000e 1B88     		ldrh	r3, [r3]	@ movhi
 4417 0010 9BB2     		uxth	r3, r3
 4418 0012 23F00803 		bic	r3, r3, #8
 4419 0016 9AB2     		uxth	r2, r3
 4420 0018 7B68     		ldr	r3, [r7, #4]
 4421 001a 1A80     		strh	r2, [r3]	@ movhi
2177:../Libraries/StdPeripheralDriver/src/stm32f10x_tim.c ****   /* Configure the OPM Mode */
2178:../Libraries/StdPeripheralDriver/src/stm32f10x_tim.c ****   TIMx->CR1 |= TIM_OPMode;
 4422              		.loc 1 2178 0
 4423 001c 7B68     		ldr	r3, [r7, #4]
 4424 001e 1B88     		ldrh	r3, [r3]	@ movhi
 4425 0020 9AB2     		uxth	r2, r3
 4426 0022 7B88     		ldrh	r3, [r7, #2]	@ movhi
 4427 0024 1343     		orrs	r3, r3, r2
 4428 0026 9AB2     		uxth	r2, r3
 4429 0028 7B68     		ldr	r3, [r7, #4]
 4430 002a 1A80     		strh	r2, [r3]	@ movhi
2179:../Libraries/StdPeripheralDriver/src/stm32f10x_tim.c **** }
 4431              		.loc 1 2179 0
 4432 002c 0C37     		adds	r7, r7, #12
 4433 002e BD46     		mov	sp, r7
 4434              		@ sp needed
 4435 0030 5DF8047B 		ldr	r7, [sp], #4
 4436 0034 7047     		bx	lr
 4437              		.cfi_endproc
 4438              	.LFE91:
 4440 0036 00BF     		.section	.text.TIM_SelectOutputTrigger,"ax",%progbits
 4441              		.align	2
 4442              		.global	TIM_SelectOutputTrigger
 4443              		.thumb
 4444              		.thumb_func
 4446              	TIM_SelectOutputTrigger:
 4447              	.LFB92:
2180:../Libraries/StdPeripheralDriver/src/stm32f10x_tim.c **** 
2181:../Libraries/StdPeripheralDriver/src/stm32f10x_tim.c **** /**
2182:../Libraries/StdPeripheralDriver/src/stm32f10x_tim.c ****   * @brief  Selects the TIMx Trigger Output Mode.
2183:../Libraries/StdPeripheralDriver/src/stm32f10x_tim.c ****   * @param  TIMx: where x can be 1, 2, 3, 4, 5, 6, 7, 8, 9, 12 or 15 to select the TIM peripheral.
2184:../Libraries/StdPeripheralDriver/src/stm32f10x_tim.c ****   * @param  TIM_TRGOSource: specifies the Trigger Output source.
2185:../Libraries/StdPeripheralDriver/src/stm32f10x_tim.c ****   *   This paramter can be one of the following values:
2186:../Libraries/StdPeripheralDriver/src/stm32f10x_tim.c ****   *
2187:../Libraries/StdPeripheralDriver/src/stm32f10x_tim.c ****   *  - For all TIMx
2188:../Libraries/StdPeripheralDriver/src/stm32f10x_tim.c ****   *     @arg TIM_TRGOSource_Reset:  The UG bit in the TIM_EGR register is used as the trigger outpu
2189:../Libraries/StdPeripheralDriver/src/stm32f10x_tim.c ****   *     @arg TIM_TRGOSource_Enable: The Counter Enable CEN is used as the trigger output (TRGO).
2190:../Libraries/StdPeripheralDriver/src/stm32f10x_tim.c ****   *     @arg TIM_TRGOSource_Update: The update event is selected as the trigger output (TRGO).
2191:../Libraries/StdPeripheralDriver/src/stm32f10x_tim.c ****   *
2192:../Libraries/StdPeripheralDriver/src/stm32f10x_tim.c ****   *  - For all TIMx except TIM6 and TIM7
2193:../Libraries/StdPeripheralDriver/src/stm32f10x_tim.c ****   *     @arg TIM_TRGOSource_OC1: The trigger output sends a positive pulse when the CC1IF flag
2194:../Libraries/StdPeripheralDriver/src/stm32f10x_tim.c ****   *                              is to be set, as soon as a capture or compare match occurs (TRGO).
2195:../Libraries/StdPeripheralDriver/src/stm32f10x_tim.c ****   *     @arg TIM_TRGOSource_OC1Ref: OC1REF signal is used as the trigger output (TRGO).
2196:../Libraries/StdPeripheralDriver/src/stm32f10x_tim.c ****   *     @arg TIM_TRGOSource_OC2Ref: OC2REF signal is used as the trigger output (TRGO).
2197:../Libraries/StdPeripheralDriver/src/stm32f10x_tim.c ****   *     @arg TIM_TRGOSource_OC3Ref: OC3REF signal is used as the trigger output (TRGO).
2198:../Libraries/StdPeripheralDriver/src/stm32f10x_tim.c ****   *     @arg TIM_TRGOSource_OC4Ref: OC4REF signal is used as the trigger output (TRGO).
2199:../Libraries/StdPeripheralDriver/src/stm32f10x_tim.c ****   *
2200:../Libraries/StdPeripheralDriver/src/stm32f10x_tim.c ****   * @retval None
2201:../Libraries/StdPeripheralDriver/src/stm32f10x_tim.c ****   */
2202:../Libraries/StdPeripheralDriver/src/stm32f10x_tim.c **** void TIM_SelectOutputTrigger(TIM_TypeDef* TIMx, uint16_t TIM_TRGOSource)
2203:../Libraries/StdPeripheralDriver/src/stm32f10x_tim.c **** {
 4448              		.loc 1 2203 0
 4449              		.cfi_startproc
 4450              		@ args = 0, pretend = 0, frame = 8
 4451              		@ frame_needed = 1, uses_anonymous_args = 0
 4452              		@ link register save eliminated.
 4453 0000 80B4     		push	{r7}
 4454              		.cfi_def_cfa_offset 4
 4455              		.cfi_offset 7, -4
 4456 0002 83B0     		sub	sp, sp, #12
 4457              		.cfi_def_cfa_offset 16
 4458 0004 00AF     		add	r7, sp, #0
 4459              		.cfi_def_cfa_register 7
 4460 0006 7860     		str	r0, [r7, #4]
 4461 0008 0B46     		mov	r3, r1
 4462 000a 7B80     		strh	r3, [r7, #2]	@ movhi
2204:../Libraries/StdPeripheralDriver/src/stm32f10x_tim.c ****   /* Check the parameters */
2205:../Libraries/StdPeripheralDriver/src/stm32f10x_tim.c ****   assert_param(IS_TIM_LIST7_PERIPH(TIMx));
2206:../Libraries/StdPeripheralDriver/src/stm32f10x_tim.c ****   assert_param(IS_TIM_TRGO_SOURCE(TIM_TRGOSource));
2207:../Libraries/StdPeripheralDriver/src/stm32f10x_tim.c ****   /* Reset the MMS Bits */
2208:../Libraries/StdPeripheralDriver/src/stm32f10x_tim.c ****   TIMx->CR2 &= (uint16_t)~((uint16_t)TIM_CR2_MMS);
 4463              		.loc 1 2208 0
 4464 000c 7B68     		ldr	r3, [r7, #4]
 4465 000e 9B88     		ldrh	r3, [r3, #4]	@ movhi
 4466 0010 9BB2     		uxth	r3, r3
 4467 0012 23F07003 		bic	r3, r3, #112
 4468 0016 9AB2     		uxth	r2, r3
 4469 0018 7B68     		ldr	r3, [r7, #4]
 4470 001a 9A80     		strh	r2, [r3, #4]	@ movhi
2209:../Libraries/StdPeripheralDriver/src/stm32f10x_tim.c ****   /* Select the TRGO source */
2210:../Libraries/StdPeripheralDriver/src/stm32f10x_tim.c ****   TIMx->CR2 |=  TIM_TRGOSource;
 4471              		.loc 1 2210 0
 4472 001c 7B68     		ldr	r3, [r7, #4]
 4473 001e 9B88     		ldrh	r3, [r3, #4]	@ movhi
 4474 0020 9AB2     		uxth	r2, r3
 4475 0022 7B88     		ldrh	r3, [r7, #2]	@ movhi
 4476 0024 1343     		orrs	r3, r3, r2
 4477 0026 9AB2     		uxth	r2, r3
 4478 0028 7B68     		ldr	r3, [r7, #4]
 4479 002a 9A80     		strh	r2, [r3, #4]	@ movhi
2211:../Libraries/StdPeripheralDriver/src/stm32f10x_tim.c **** }
 4480              		.loc 1 2211 0
 4481 002c 0C37     		adds	r7, r7, #12
 4482 002e BD46     		mov	sp, r7
 4483              		@ sp needed
 4484 0030 5DF8047B 		ldr	r7, [sp], #4
 4485 0034 7047     		bx	lr
 4486              		.cfi_endproc
 4487              	.LFE92:
 4489 0036 00BF     		.section	.text.TIM_SelectSlaveMode,"ax",%progbits
 4490              		.align	2
 4491              		.global	TIM_SelectSlaveMode
 4492              		.thumb
 4493              		.thumb_func
 4495              	TIM_SelectSlaveMode:
 4496              	.LFB93:
2212:../Libraries/StdPeripheralDriver/src/stm32f10x_tim.c **** 
2213:../Libraries/StdPeripheralDriver/src/stm32f10x_tim.c **** /**
2214:../Libraries/StdPeripheralDriver/src/stm32f10x_tim.c ****   * @brief  Selects the TIMx Slave Mode.
2215:../Libraries/StdPeripheralDriver/src/stm32f10x_tim.c ****   * @param  TIMx: where x can be 1, 2, 3, 4, 5, 8, 9, 12 or 15 to select the TIM peripheral.
2216:../Libraries/StdPeripheralDriver/src/stm32f10x_tim.c ****   * @param  TIM_SlaveMode: specifies the Timer Slave Mode.
2217:../Libraries/StdPeripheralDriver/src/stm32f10x_tim.c ****   *   This parameter can be one of the following values:
2218:../Libraries/StdPeripheralDriver/src/stm32f10x_tim.c ****   *     @arg TIM_SlaveMode_Reset: Rising edge of the selected trigger signal (TRGI) re-initializes
2219:../Libraries/StdPeripheralDriver/src/stm32f10x_tim.c ****   *                               the counter and triggers an update of the registers.
2220:../Libraries/StdPeripheralDriver/src/stm32f10x_tim.c ****   *     @arg TIM_SlaveMode_Gated:     The counter clock is enabled when the trigger signal (TRGI) i
2221:../Libraries/StdPeripheralDriver/src/stm32f10x_tim.c ****   *     @arg TIM_SlaveMode_Trigger:   The counter starts at a rising edge of the trigger TRGI.
2222:../Libraries/StdPeripheralDriver/src/stm32f10x_tim.c ****   *     @arg TIM_SlaveMode_External1: Rising edges of the selected trigger (TRGI) clock the counter
2223:../Libraries/StdPeripheralDriver/src/stm32f10x_tim.c ****   * @retval None
2224:../Libraries/StdPeripheralDriver/src/stm32f10x_tim.c ****   */
2225:../Libraries/StdPeripheralDriver/src/stm32f10x_tim.c **** void TIM_SelectSlaveMode(TIM_TypeDef* TIMx, uint16_t TIM_SlaveMode)
2226:../Libraries/StdPeripheralDriver/src/stm32f10x_tim.c **** {
 4497              		.loc 1 2226 0
 4498              		.cfi_startproc
 4499              		@ args = 0, pretend = 0, frame = 8
 4500              		@ frame_needed = 1, uses_anonymous_args = 0
 4501              		@ link register save eliminated.
 4502 0000 80B4     		push	{r7}
 4503              		.cfi_def_cfa_offset 4
 4504              		.cfi_offset 7, -4
 4505 0002 83B0     		sub	sp, sp, #12
 4506              		.cfi_def_cfa_offset 16
 4507 0004 00AF     		add	r7, sp, #0
 4508              		.cfi_def_cfa_register 7
 4509 0006 7860     		str	r0, [r7, #4]
 4510 0008 0B46     		mov	r3, r1
 4511 000a 7B80     		strh	r3, [r7, #2]	@ movhi
2227:../Libraries/StdPeripheralDriver/src/stm32f10x_tim.c ****   /* Check the parameters */
2228:../Libraries/StdPeripheralDriver/src/stm32f10x_tim.c ****   assert_param(IS_TIM_LIST6_PERIPH(TIMx));
2229:../Libraries/StdPeripheralDriver/src/stm32f10x_tim.c ****   assert_param(IS_TIM_SLAVE_MODE(TIM_SlaveMode));
2230:../Libraries/StdPeripheralDriver/src/stm32f10x_tim.c ****  /* Reset the SMS Bits */
2231:../Libraries/StdPeripheralDriver/src/stm32f10x_tim.c ****   TIMx->SMCR &= (uint16_t)~((uint16_t)TIM_SMCR_SMS);
 4512              		.loc 1 2231 0
 4513 000c 7B68     		ldr	r3, [r7, #4]
 4514 000e 1B89     		ldrh	r3, [r3, #8]	@ movhi
 4515 0010 9BB2     		uxth	r3, r3
 4516 0012 23F00703 		bic	r3, r3, #7
 4517 0016 9AB2     		uxth	r2, r3
 4518 0018 7B68     		ldr	r3, [r7, #4]
 4519 001a 1A81     		strh	r2, [r3, #8]	@ movhi
2232:../Libraries/StdPeripheralDriver/src/stm32f10x_tim.c ****   /* Select the Slave Mode */
2233:../Libraries/StdPeripheralDriver/src/stm32f10x_tim.c ****   TIMx->SMCR |= TIM_SlaveMode;
 4520              		.loc 1 2233 0
 4521 001c 7B68     		ldr	r3, [r7, #4]
 4522 001e 1B89     		ldrh	r3, [r3, #8]	@ movhi
 4523 0020 9AB2     		uxth	r2, r3
 4524 0022 7B88     		ldrh	r3, [r7, #2]	@ movhi
 4525 0024 1343     		orrs	r3, r3, r2
 4526 0026 9AB2     		uxth	r2, r3
 4527 0028 7B68     		ldr	r3, [r7, #4]
 4528 002a 1A81     		strh	r2, [r3, #8]	@ movhi
2234:../Libraries/StdPeripheralDriver/src/stm32f10x_tim.c **** }
 4529              		.loc 1 2234 0
 4530 002c 0C37     		adds	r7, r7, #12
 4531 002e BD46     		mov	sp, r7
 4532              		@ sp needed
 4533 0030 5DF8047B 		ldr	r7, [sp], #4
 4534 0034 7047     		bx	lr
 4535              		.cfi_endproc
 4536              	.LFE93:
 4538 0036 00BF     		.section	.text.TIM_SelectMasterSlaveMode,"ax",%progbits
 4539              		.align	2
 4540              		.global	TIM_SelectMasterSlaveMode
 4541              		.thumb
 4542              		.thumb_func
 4544              	TIM_SelectMasterSlaveMode:
 4545              	.LFB94:
2235:../Libraries/StdPeripheralDriver/src/stm32f10x_tim.c **** 
2236:../Libraries/StdPeripheralDriver/src/stm32f10x_tim.c **** /**
2237:../Libraries/StdPeripheralDriver/src/stm32f10x_tim.c ****   * @brief  Sets or Resets the TIMx Master/Slave Mode.
2238:../Libraries/StdPeripheralDriver/src/stm32f10x_tim.c ****   * @param  TIMx: where x can be 1, 2, 3, 4, 5, 8, 9, 12 or 15 to select the TIM peripheral.
2239:../Libraries/StdPeripheralDriver/src/stm32f10x_tim.c ****   * @param  TIM_MasterSlaveMode: specifies the Timer Master Slave Mode.
2240:../Libraries/StdPeripheralDriver/src/stm32f10x_tim.c ****   *   This parameter can be one of the following values:
2241:../Libraries/StdPeripheralDriver/src/stm32f10x_tim.c ****   *     @arg TIM_MasterSlaveMode_Enable: synchronization between the current timer
2242:../Libraries/StdPeripheralDriver/src/stm32f10x_tim.c ****   *                                      and its slaves (through TRGO).
2243:../Libraries/StdPeripheralDriver/src/stm32f10x_tim.c ****   *     @arg TIM_MasterSlaveMode_Disable: No action
2244:../Libraries/StdPeripheralDriver/src/stm32f10x_tim.c ****   * @retval None
2245:../Libraries/StdPeripheralDriver/src/stm32f10x_tim.c ****   */
2246:../Libraries/StdPeripheralDriver/src/stm32f10x_tim.c **** void TIM_SelectMasterSlaveMode(TIM_TypeDef* TIMx, uint16_t TIM_MasterSlaveMode)
2247:../Libraries/StdPeripheralDriver/src/stm32f10x_tim.c **** {
 4546              		.loc 1 2247 0
 4547              		.cfi_startproc
 4548              		@ args = 0, pretend = 0, frame = 8
 4549              		@ frame_needed = 1, uses_anonymous_args = 0
 4550              		@ link register save eliminated.
 4551 0000 80B4     		push	{r7}
 4552              		.cfi_def_cfa_offset 4
 4553              		.cfi_offset 7, -4
 4554 0002 83B0     		sub	sp, sp, #12
 4555              		.cfi_def_cfa_offset 16
 4556 0004 00AF     		add	r7, sp, #0
 4557              		.cfi_def_cfa_register 7
 4558 0006 7860     		str	r0, [r7, #4]
 4559 0008 0B46     		mov	r3, r1
 4560 000a 7B80     		strh	r3, [r7, #2]	@ movhi
2248:../Libraries/StdPeripheralDriver/src/stm32f10x_tim.c ****   /* Check the parameters */
2249:../Libraries/StdPeripheralDriver/src/stm32f10x_tim.c ****   assert_param(IS_TIM_LIST6_PERIPH(TIMx));
2250:../Libraries/StdPeripheralDriver/src/stm32f10x_tim.c ****   assert_param(IS_TIM_MSM_STATE(TIM_MasterSlaveMode));
2251:../Libraries/StdPeripheralDriver/src/stm32f10x_tim.c ****   /* Reset the MSM Bit */
2252:../Libraries/StdPeripheralDriver/src/stm32f10x_tim.c ****   TIMx->SMCR &= (uint16_t)~((uint16_t)TIM_SMCR_MSM);
 4561              		.loc 1 2252 0
 4562 000c 7B68     		ldr	r3, [r7, #4]
 4563 000e 1B89     		ldrh	r3, [r3, #8]	@ movhi
 4564 0010 9BB2     		uxth	r3, r3
 4565 0012 23F08003 		bic	r3, r3, #128
 4566 0016 9AB2     		uxth	r2, r3
 4567 0018 7B68     		ldr	r3, [r7, #4]
 4568 001a 1A81     		strh	r2, [r3, #8]	@ movhi
2253:../Libraries/StdPeripheralDriver/src/stm32f10x_tim.c ****   
2254:../Libraries/StdPeripheralDriver/src/stm32f10x_tim.c ****   /* Set or Reset the MSM Bit */
2255:../Libraries/StdPeripheralDriver/src/stm32f10x_tim.c ****   TIMx->SMCR |= TIM_MasterSlaveMode;
 4569              		.loc 1 2255 0
 4570 001c 7B68     		ldr	r3, [r7, #4]
 4571 001e 1B89     		ldrh	r3, [r3, #8]	@ movhi
 4572 0020 9AB2     		uxth	r2, r3
 4573 0022 7B88     		ldrh	r3, [r7, #2]	@ movhi
 4574 0024 1343     		orrs	r3, r3, r2
 4575 0026 9AB2     		uxth	r2, r3
 4576 0028 7B68     		ldr	r3, [r7, #4]
 4577 002a 1A81     		strh	r2, [r3, #8]	@ movhi
2256:../Libraries/StdPeripheralDriver/src/stm32f10x_tim.c **** }
 4578              		.loc 1 2256 0
 4579 002c 0C37     		adds	r7, r7, #12
 4580 002e BD46     		mov	sp, r7
 4581              		@ sp needed
 4582 0030 5DF8047B 		ldr	r7, [sp], #4
 4583 0034 7047     		bx	lr
 4584              		.cfi_endproc
 4585              	.LFE94:
 4587 0036 00BF     		.section	.text.TIM_SetCounter,"ax",%progbits
 4588              		.align	2
 4589              		.global	TIM_SetCounter
 4590              		.thumb
 4591              		.thumb_func
 4593              	TIM_SetCounter:
 4594              	.LFB95:
2257:../Libraries/StdPeripheralDriver/src/stm32f10x_tim.c **** 
2258:../Libraries/StdPeripheralDriver/src/stm32f10x_tim.c **** /**
2259:../Libraries/StdPeripheralDriver/src/stm32f10x_tim.c ****   * @brief  Sets the TIMx Counter Register value
2260:../Libraries/StdPeripheralDriver/src/stm32f10x_tim.c ****   * @param  TIMx: where x can be 1 to 17 to select the TIM peripheral.
2261:../Libraries/StdPeripheralDriver/src/stm32f10x_tim.c ****   * @param  Counter: specifies the Counter register new value.
2262:../Libraries/StdPeripheralDriver/src/stm32f10x_tim.c ****   * @retval None
2263:../Libraries/StdPeripheralDriver/src/stm32f10x_tim.c ****   */
2264:../Libraries/StdPeripheralDriver/src/stm32f10x_tim.c **** void TIM_SetCounter(TIM_TypeDef* TIMx, uint16_t Counter)
2265:../Libraries/StdPeripheralDriver/src/stm32f10x_tim.c **** {
 4595              		.loc 1 2265 0
 4596              		.cfi_startproc
 4597              		@ args = 0, pretend = 0, frame = 8
 4598              		@ frame_needed = 1, uses_anonymous_args = 0
 4599              		@ link register save eliminated.
 4600 0000 80B4     		push	{r7}
 4601              		.cfi_def_cfa_offset 4
 4602              		.cfi_offset 7, -4
 4603 0002 83B0     		sub	sp, sp, #12
 4604              		.cfi_def_cfa_offset 16
 4605 0004 00AF     		add	r7, sp, #0
 4606              		.cfi_def_cfa_register 7
 4607 0006 7860     		str	r0, [r7, #4]
 4608 0008 0B46     		mov	r3, r1
 4609 000a 7B80     		strh	r3, [r7, #2]	@ movhi
2266:../Libraries/StdPeripheralDriver/src/stm32f10x_tim.c ****   /* Check the parameters */
2267:../Libraries/StdPeripheralDriver/src/stm32f10x_tim.c ****   assert_param(IS_TIM_ALL_PERIPH(TIMx));
2268:../Libraries/StdPeripheralDriver/src/stm32f10x_tim.c ****   /* Set the Counter Register value */
2269:../Libraries/StdPeripheralDriver/src/stm32f10x_tim.c ****   TIMx->CNT = Counter;
 4610              		.loc 1 2269 0
 4611 000c 7B68     		ldr	r3, [r7, #4]
 4612 000e 7A88     		ldrh	r2, [r7, #2]	@ movhi
 4613 0010 9A84     		strh	r2, [r3, #36]	@ movhi
2270:../Libraries/StdPeripheralDriver/src/stm32f10x_tim.c **** }
 4614              		.loc 1 2270 0
 4615 0012 0C37     		adds	r7, r7, #12
 4616 0014 BD46     		mov	sp, r7
 4617              		@ sp needed
 4618 0016 5DF8047B 		ldr	r7, [sp], #4
 4619 001a 7047     		bx	lr
 4620              		.cfi_endproc
 4621              	.LFE95:
 4623              		.section	.text.TIM_SetAutoreload,"ax",%progbits
 4624              		.align	2
 4625              		.global	TIM_SetAutoreload
 4626              		.thumb
 4627              		.thumb_func
 4629              	TIM_SetAutoreload:
 4630              	.LFB96:
2271:../Libraries/StdPeripheralDriver/src/stm32f10x_tim.c **** 
2272:../Libraries/StdPeripheralDriver/src/stm32f10x_tim.c **** /**
2273:../Libraries/StdPeripheralDriver/src/stm32f10x_tim.c ****   * @brief  Sets the TIMx Autoreload Register value
2274:../Libraries/StdPeripheralDriver/src/stm32f10x_tim.c ****   * @param  TIMx: where x can be 1 to 17 to select the TIM peripheral.
2275:../Libraries/StdPeripheralDriver/src/stm32f10x_tim.c ****   * @param  Autoreload: specifies the Autoreload register new value.
2276:../Libraries/StdPeripheralDriver/src/stm32f10x_tim.c ****   * @retval None
2277:../Libraries/StdPeripheralDriver/src/stm32f10x_tim.c ****   */
2278:../Libraries/StdPeripheralDriver/src/stm32f10x_tim.c **** void TIM_SetAutoreload(TIM_TypeDef* TIMx, uint16_t Autoreload)
2279:../Libraries/StdPeripheralDriver/src/stm32f10x_tim.c **** {
 4631              		.loc 1 2279 0
 4632              		.cfi_startproc
 4633              		@ args = 0, pretend = 0, frame = 8
 4634              		@ frame_needed = 1, uses_anonymous_args = 0
 4635              		@ link register save eliminated.
 4636 0000 80B4     		push	{r7}
 4637              		.cfi_def_cfa_offset 4
 4638              		.cfi_offset 7, -4
 4639 0002 83B0     		sub	sp, sp, #12
 4640              		.cfi_def_cfa_offset 16
 4641 0004 00AF     		add	r7, sp, #0
 4642              		.cfi_def_cfa_register 7
 4643 0006 7860     		str	r0, [r7, #4]
 4644 0008 0B46     		mov	r3, r1
 4645 000a 7B80     		strh	r3, [r7, #2]	@ movhi
2280:../Libraries/StdPeripheralDriver/src/stm32f10x_tim.c ****   /* Check the parameters */
2281:../Libraries/StdPeripheralDriver/src/stm32f10x_tim.c ****   assert_param(IS_TIM_ALL_PERIPH(TIMx));
2282:../Libraries/StdPeripheralDriver/src/stm32f10x_tim.c ****   /* Set the Autoreload Register value */
2283:../Libraries/StdPeripheralDriver/src/stm32f10x_tim.c ****   TIMx->ARR = Autoreload;
 4646              		.loc 1 2283 0
 4647 000c 7B68     		ldr	r3, [r7, #4]
 4648 000e 7A88     		ldrh	r2, [r7, #2]	@ movhi
 4649 0010 9A85     		strh	r2, [r3, #44]	@ movhi
2284:../Libraries/StdPeripheralDriver/src/stm32f10x_tim.c **** }
 4650              		.loc 1 2284 0
 4651 0012 0C37     		adds	r7, r7, #12
 4652 0014 BD46     		mov	sp, r7
 4653              		@ sp needed
 4654 0016 5DF8047B 		ldr	r7, [sp], #4
 4655 001a 7047     		bx	lr
 4656              		.cfi_endproc
 4657              	.LFE96:
 4659              		.section	.text.TIM_SetCompare1,"ax",%progbits
 4660              		.align	2
 4661              		.global	TIM_SetCompare1
 4662              		.thumb
 4663              		.thumb_func
 4665              	TIM_SetCompare1:
 4666              	.LFB97:
2285:../Libraries/StdPeripheralDriver/src/stm32f10x_tim.c **** 
2286:../Libraries/StdPeripheralDriver/src/stm32f10x_tim.c **** /**
2287:../Libraries/StdPeripheralDriver/src/stm32f10x_tim.c ****   * @brief  Sets the TIMx Capture Compare1 Register value
2288:../Libraries/StdPeripheralDriver/src/stm32f10x_tim.c ****   * @param  TIMx: where x can be 1 to 17 except 6 and 7 to select the TIM peripheral.
2289:../Libraries/StdPeripheralDriver/src/stm32f10x_tim.c ****   * @param  Compare1: specifies the Capture Compare1 register new value.
2290:../Libraries/StdPeripheralDriver/src/stm32f10x_tim.c ****   * @retval None
2291:../Libraries/StdPeripheralDriver/src/stm32f10x_tim.c ****   */
2292:../Libraries/StdPeripheralDriver/src/stm32f10x_tim.c **** void TIM_SetCompare1(TIM_TypeDef* TIMx, uint16_t Compare1)
2293:../Libraries/StdPeripheralDriver/src/stm32f10x_tim.c **** {
 4667              		.loc 1 2293 0
 4668              		.cfi_startproc
 4669              		@ args = 0, pretend = 0, frame = 8
 4670              		@ frame_needed = 1, uses_anonymous_args = 0
 4671              		@ link register save eliminated.
 4672 0000 80B4     		push	{r7}
 4673              		.cfi_def_cfa_offset 4
 4674              		.cfi_offset 7, -4
 4675 0002 83B0     		sub	sp, sp, #12
 4676              		.cfi_def_cfa_offset 16
 4677 0004 00AF     		add	r7, sp, #0
 4678              		.cfi_def_cfa_register 7
 4679 0006 7860     		str	r0, [r7, #4]
 4680 0008 0B46     		mov	r3, r1
 4681 000a 7B80     		strh	r3, [r7, #2]	@ movhi
2294:../Libraries/StdPeripheralDriver/src/stm32f10x_tim.c ****   /* Check the parameters */
2295:../Libraries/StdPeripheralDriver/src/stm32f10x_tim.c ****   assert_param(IS_TIM_LIST8_PERIPH(TIMx));
2296:../Libraries/StdPeripheralDriver/src/stm32f10x_tim.c ****   /* Set the Capture Compare1 Register value */
2297:../Libraries/StdPeripheralDriver/src/stm32f10x_tim.c ****   TIMx->CCR1 = Compare1;
 4682              		.loc 1 2297 0
 4683 000c 7B68     		ldr	r3, [r7, #4]
 4684 000e 7A88     		ldrh	r2, [r7, #2]	@ movhi
 4685 0010 9A86     		strh	r2, [r3, #52]	@ movhi
2298:../Libraries/StdPeripheralDriver/src/stm32f10x_tim.c **** }
 4686              		.loc 1 2298 0
 4687 0012 0C37     		adds	r7, r7, #12
 4688 0014 BD46     		mov	sp, r7
 4689              		@ sp needed
 4690 0016 5DF8047B 		ldr	r7, [sp], #4
 4691 001a 7047     		bx	lr
 4692              		.cfi_endproc
 4693              	.LFE97:
 4695              		.section	.text.TIM_SetCompare2,"ax",%progbits
 4696              		.align	2
 4697              		.global	TIM_SetCompare2
 4698              		.thumb
 4699              		.thumb_func
 4701              	TIM_SetCompare2:
 4702              	.LFB98:
2299:../Libraries/StdPeripheralDriver/src/stm32f10x_tim.c **** 
2300:../Libraries/StdPeripheralDriver/src/stm32f10x_tim.c **** /**
2301:../Libraries/StdPeripheralDriver/src/stm32f10x_tim.c ****   * @brief  Sets the TIMx Capture Compare2 Register value
2302:../Libraries/StdPeripheralDriver/src/stm32f10x_tim.c ****   * @param  TIMx: where x can be 1, 2, 3, 4, 5, 8, 9, 12 or 15 to select the TIM peripheral.
2303:../Libraries/StdPeripheralDriver/src/stm32f10x_tim.c ****   * @param  Compare2: specifies the Capture Compare2 register new value.
2304:../Libraries/StdPeripheralDriver/src/stm32f10x_tim.c ****   * @retval None
2305:../Libraries/StdPeripheralDriver/src/stm32f10x_tim.c ****   */
2306:../Libraries/StdPeripheralDriver/src/stm32f10x_tim.c **** void TIM_SetCompare2(TIM_TypeDef* TIMx, uint16_t Compare2)
2307:../Libraries/StdPeripheralDriver/src/stm32f10x_tim.c **** {
 4703              		.loc 1 2307 0
 4704              		.cfi_startproc
 4705              		@ args = 0, pretend = 0, frame = 8
 4706              		@ frame_needed = 1, uses_anonymous_args = 0
 4707              		@ link register save eliminated.
 4708 0000 80B4     		push	{r7}
 4709              		.cfi_def_cfa_offset 4
 4710              		.cfi_offset 7, -4
 4711 0002 83B0     		sub	sp, sp, #12
 4712              		.cfi_def_cfa_offset 16
 4713 0004 00AF     		add	r7, sp, #0
 4714              		.cfi_def_cfa_register 7
 4715 0006 7860     		str	r0, [r7, #4]
 4716 0008 0B46     		mov	r3, r1
 4717 000a 7B80     		strh	r3, [r7, #2]	@ movhi
2308:../Libraries/StdPeripheralDriver/src/stm32f10x_tim.c ****   /* Check the parameters */
2309:../Libraries/StdPeripheralDriver/src/stm32f10x_tim.c ****   assert_param(IS_TIM_LIST6_PERIPH(TIMx));
2310:../Libraries/StdPeripheralDriver/src/stm32f10x_tim.c ****   /* Set the Capture Compare2 Register value */
2311:../Libraries/StdPeripheralDriver/src/stm32f10x_tim.c ****   TIMx->CCR2 = Compare2;
 4718              		.loc 1 2311 0
 4719 000c 7B68     		ldr	r3, [r7, #4]
 4720 000e 7A88     		ldrh	r2, [r7, #2]	@ movhi
 4721 0010 1A87     		strh	r2, [r3, #56]	@ movhi
2312:../Libraries/StdPeripheralDriver/src/stm32f10x_tim.c **** }
 4722              		.loc 1 2312 0
 4723 0012 0C37     		adds	r7, r7, #12
 4724 0014 BD46     		mov	sp, r7
 4725              		@ sp needed
 4726 0016 5DF8047B 		ldr	r7, [sp], #4
 4727 001a 7047     		bx	lr
 4728              		.cfi_endproc
 4729              	.LFE98:
 4731              		.section	.text.TIM_SetCompare3,"ax",%progbits
 4732              		.align	2
 4733              		.global	TIM_SetCompare3
 4734              		.thumb
 4735              		.thumb_func
 4737              	TIM_SetCompare3:
 4738              	.LFB99:
2313:../Libraries/StdPeripheralDriver/src/stm32f10x_tim.c **** 
2314:../Libraries/StdPeripheralDriver/src/stm32f10x_tim.c **** /**
2315:../Libraries/StdPeripheralDriver/src/stm32f10x_tim.c ****   * @brief  Sets the TIMx Capture Compare3 Register value
2316:../Libraries/StdPeripheralDriver/src/stm32f10x_tim.c ****   * @param  TIMx: where x can be 1, 2, 3, 4, 5 or 8 to select the TIM peripheral.
2317:../Libraries/StdPeripheralDriver/src/stm32f10x_tim.c ****   * @param  Compare3: specifies the Capture Compare3 register new value.
2318:../Libraries/StdPeripheralDriver/src/stm32f10x_tim.c ****   * @retval None
2319:../Libraries/StdPeripheralDriver/src/stm32f10x_tim.c ****   */
2320:../Libraries/StdPeripheralDriver/src/stm32f10x_tim.c **** void TIM_SetCompare3(TIM_TypeDef* TIMx, uint16_t Compare3)
2321:../Libraries/StdPeripheralDriver/src/stm32f10x_tim.c **** {
 4739              		.loc 1 2321 0
 4740              		.cfi_startproc
 4741              		@ args = 0, pretend = 0, frame = 8
 4742              		@ frame_needed = 1, uses_anonymous_args = 0
 4743              		@ link register save eliminated.
 4744 0000 80B4     		push	{r7}
 4745              		.cfi_def_cfa_offset 4
 4746              		.cfi_offset 7, -4
 4747 0002 83B0     		sub	sp, sp, #12
 4748              		.cfi_def_cfa_offset 16
 4749 0004 00AF     		add	r7, sp, #0
 4750              		.cfi_def_cfa_register 7
 4751 0006 7860     		str	r0, [r7, #4]
 4752 0008 0B46     		mov	r3, r1
 4753 000a 7B80     		strh	r3, [r7, #2]	@ movhi
2322:../Libraries/StdPeripheralDriver/src/stm32f10x_tim.c ****   /* Check the parameters */
2323:../Libraries/StdPeripheralDriver/src/stm32f10x_tim.c ****   assert_param(IS_TIM_LIST3_PERIPH(TIMx));
2324:../Libraries/StdPeripheralDriver/src/stm32f10x_tim.c ****   /* Set the Capture Compare3 Register value */
2325:../Libraries/StdPeripheralDriver/src/stm32f10x_tim.c ****   TIMx->CCR3 = Compare3;
 4754              		.loc 1 2325 0
 4755 000c 7B68     		ldr	r3, [r7, #4]
 4756 000e 7A88     		ldrh	r2, [r7, #2]	@ movhi
 4757 0010 9A87     		strh	r2, [r3, #60]	@ movhi
2326:../Libraries/StdPeripheralDriver/src/stm32f10x_tim.c **** }
 4758              		.loc 1 2326 0
 4759 0012 0C37     		adds	r7, r7, #12
 4760 0014 BD46     		mov	sp, r7
 4761              		@ sp needed
 4762 0016 5DF8047B 		ldr	r7, [sp], #4
 4763 001a 7047     		bx	lr
 4764              		.cfi_endproc
 4765              	.LFE99:
 4767              		.section	.text.TIM_SetCompare4,"ax",%progbits
 4768              		.align	2
 4769              		.global	TIM_SetCompare4
 4770              		.thumb
 4771              		.thumb_func
 4773              	TIM_SetCompare4:
 4774              	.LFB100:
2327:../Libraries/StdPeripheralDriver/src/stm32f10x_tim.c **** 
2328:../Libraries/StdPeripheralDriver/src/stm32f10x_tim.c **** /**
2329:../Libraries/StdPeripheralDriver/src/stm32f10x_tim.c ****   * @brief  Sets the TIMx Capture Compare4 Register value
2330:../Libraries/StdPeripheralDriver/src/stm32f10x_tim.c ****   * @param  TIMx: where x can be 1, 2, 3, 4, 5 or 8 to select the TIM peripheral.
2331:../Libraries/StdPeripheralDriver/src/stm32f10x_tim.c ****   * @param  Compare4: specifies the Capture Compare4 register new value.
2332:../Libraries/StdPeripheralDriver/src/stm32f10x_tim.c ****   * @retval None
2333:../Libraries/StdPeripheralDriver/src/stm32f10x_tim.c ****   */
2334:../Libraries/StdPeripheralDriver/src/stm32f10x_tim.c **** void TIM_SetCompare4(TIM_TypeDef* TIMx, uint16_t Compare4)
2335:../Libraries/StdPeripheralDriver/src/stm32f10x_tim.c **** {
 4775              		.loc 1 2335 0
 4776              		.cfi_startproc
 4777              		@ args = 0, pretend = 0, frame = 8
 4778              		@ frame_needed = 1, uses_anonymous_args = 0
 4779              		@ link register save eliminated.
 4780 0000 80B4     		push	{r7}
 4781              		.cfi_def_cfa_offset 4
 4782              		.cfi_offset 7, -4
 4783 0002 83B0     		sub	sp, sp, #12
 4784              		.cfi_def_cfa_offset 16
 4785 0004 00AF     		add	r7, sp, #0
 4786              		.cfi_def_cfa_register 7
 4787 0006 7860     		str	r0, [r7, #4]
 4788 0008 0B46     		mov	r3, r1
 4789 000a 7B80     		strh	r3, [r7, #2]	@ movhi
2336:../Libraries/StdPeripheralDriver/src/stm32f10x_tim.c ****   /* Check the parameters */
2337:../Libraries/StdPeripheralDriver/src/stm32f10x_tim.c ****   assert_param(IS_TIM_LIST3_PERIPH(TIMx));
2338:../Libraries/StdPeripheralDriver/src/stm32f10x_tim.c ****   /* Set the Capture Compare4 Register value */
2339:../Libraries/StdPeripheralDriver/src/stm32f10x_tim.c ****   TIMx->CCR4 = Compare4;
 4790              		.loc 1 2339 0
 4791 000c 7B68     		ldr	r3, [r7, #4]
 4792 000e 7A88     		ldrh	r2, [r7, #2]	@ movhi
 4793 0010 A3F84020 		strh	r2, [r3, #64]	@ movhi
2340:../Libraries/StdPeripheralDriver/src/stm32f10x_tim.c **** }
 4794              		.loc 1 2340 0
 4795 0014 0C37     		adds	r7, r7, #12
 4796 0016 BD46     		mov	sp, r7
 4797              		@ sp needed
 4798 0018 5DF8047B 		ldr	r7, [sp], #4
 4799 001c 7047     		bx	lr
 4800              		.cfi_endproc
 4801              	.LFE100:
 4803 001e 00BF     		.section	.text.TIM_SetIC1Prescaler,"ax",%progbits
 4804              		.align	2
 4805              		.global	TIM_SetIC1Prescaler
 4806              		.thumb
 4807              		.thumb_func
 4809              	TIM_SetIC1Prescaler:
 4810              	.LFB101:
2341:../Libraries/StdPeripheralDriver/src/stm32f10x_tim.c **** 
2342:../Libraries/StdPeripheralDriver/src/stm32f10x_tim.c **** /**
2343:../Libraries/StdPeripheralDriver/src/stm32f10x_tim.c ****   * @brief  Sets the TIMx Input Capture 1 prescaler.
2344:../Libraries/StdPeripheralDriver/src/stm32f10x_tim.c ****   * @param  TIMx: where x can be 1 to 17 except 6 and 7 to select the TIM peripheral.
2345:../Libraries/StdPeripheralDriver/src/stm32f10x_tim.c ****   * @param  TIM_ICPSC: specifies the Input Capture1 prescaler new value.
2346:../Libraries/StdPeripheralDriver/src/stm32f10x_tim.c ****   *   This parameter can be one of the following values:
2347:../Libraries/StdPeripheralDriver/src/stm32f10x_tim.c ****   *     @arg TIM_ICPSC_DIV1: no prescaler
2348:../Libraries/StdPeripheralDriver/src/stm32f10x_tim.c ****   *     @arg TIM_ICPSC_DIV2: capture is done once every 2 events
2349:../Libraries/StdPeripheralDriver/src/stm32f10x_tim.c ****   *     @arg TIM_ICPSC_DIV4: capture is done once every 4 events
2350:../Libraries/StdPeripheralDriver/src/stm32f10x_tim.c ****   *     @arg TIM_ICPSC_DIV8: capture is done once every 8 events
2351:../Libraries/StdPeripheralDriver/src/stm32f10x_tim.c ****   * @retval None
2352:../Libraries/StdPeripheralDriver/src/stm32f10x_tim.c ****   */
2353:../Libraries/StdPeripheralDriver/src/stm32f10x_tim.c **** void TIM_SetIC1Prescaler(TIM_TypeDef* TIMx, uint16_t TIM_ICPSC)
2354:../Libraries/StdPeripheralDriver/src/stm32f10x_tim.c **** {
 4811              		.loc 1 2354 0
 4812              		.cfi_startproc
 4813              		@ args = 0, pretend = 0, frame = 8
 4814              		@ frame_needed = 1, uses_anonymous_args = 0
 4815              		@ link register save eliminated.
 4816 0000 80B4     		push	{r7}
 4817              		.cfi_def_cfa_offset 4
 4818              		.cfi_offset 7, -4
 4819 0002 83B0     		sub	sp, sp, #12
 4820              		.cfi_def_cfa_offset 16
 4821 0004 00AF     		add	r7, sp, #0
 4822              		.cfi_def_cfa_register 7
 4823 0006 7860     		str	r0, [r7, #4]
 4824 0008 0B46     		mov	r3, r1
 4825 000a 7B80     		strh	r3, [r7, #2]	@ movhi
2355:../Libraries/StdPeripheralDriver/src/stm32f10x_tim.c ****   /* Check the parameters */
2356:../Libraries/StdPeripheralDriver/src/stm32f10x_tim.c ****   assert_param(IS_TIM_LIST8_PERIPH(TIMx));
2357:../Libraries/StdPeripheralDriver/src/stm32f10x_tim.c ****   assert_param(IS_TIM_IC_PRESCALER(TIM_ICPSC));
2358:../Libraries/StdPeripheralDriver/src/stm32f10x_tim.c ****   /* Reset the IC1PSC Bits */
2359:../Libraries/StdPeripheralDriver/src/stm32f10x_tim.c ****   TIMx->CCMR1 &= (uint16_t)~((uint16_t)TIM_CCMR1_IC1PSC);
 4826              		.loc 1 2359 0
 4827 000c 7B68     		ldr	r3, [r7, #4]
 4828 000e 1B8B     		ldrh	r3, [r3, #24]	@ movhi
 4829 0010 9BB2     		uxth	r3, r3
 4830 0012 23F00C03 		bic	r3, r3, #12
 4831 0016 9AB2     		uxth	r2, r3
 4832 0018 7B68     		ldr	r3, [r7, #4]
 4833 001a 1A83     		strh	r2, [r3, #24]	@ movhi
2360:../Libraries/StdPeripheralDriver/src/stm32f10x_tim.c ****   /* Set the IC1PSC value */
2361:../Libraries/StdPeripheralDriver/src/stm32f10x_tim.c ****   TIMx->CCMR1 |= TIM_ICPSC;
 4834              		.loc 1 2361 0
 4835 001c 7B68     		ldr	r3, [r7, #4]
 4836 001e 1B8B     		ldrh	r3, [r3, #24]	@ movhi
 4837 0020 9AB2     		uxth	r2, r3
 4838 0022 7B88     		ldrh	r3, [r7, #2]	@ movhi
 4839 0024 1343     		orrs	r3, r3, r2
 4840 0026 9AB2     		uxth	r2, r3
 4841 0028 7B68     		ldr	r3, [r7, #4]
 4842 002a 1A83     		strh	r2, [r3, #24]	@ movhi
2362:../Libraries/StdPeripheralDriver/src/stm32f10x_tim.c **** }
 4843              		.loc 1 2362 0
 4844 002c 0C37     		adds	r7, r7, #12
 4845 002e BD46     		mov	sp, r7
 4846              		@ sp needed
 4847 0030 5DF8047B 		ldr	r7, [sp], #4
 4848 0034 7047     		bx	lr
 4849              		.cfi_endproc
 4850              	.LFE101:
 4852 0036 00BF     		.section	.text.TIM_SetIC2Prescaler,"ax",%progbits
 4853              		.align	2
 4854              		.global	TIM_SetIC2Prescaler
 4855              		.thumb
 4856              		.thumb_func
 4858              	TIM_SetIC2Prescaler:
 4859              	.LFB102:
2363:../Libraries/StdPeripheralDriver/src/stm32f10x_tim.c **** 
2364:../Libraries/StdPeripheralDriver/src/stm32f10x_tim.c **** /**
2365:../Libraries/StdPeripheralDriver/src/stm32f10x_tim.c ****   * @brief  Sets the TIMx Input Capture 2 prescaler.
2366:../Libraries/StdPeripheralDriver/src/stm32f10x_tim.c ****   * @param  TIMx: where x can be 1, 2, 3, 4, 5, 8, 9, 12 or 15 to select the TIM peripheral.
2367:../Libraries/StdPeripheralDriver/src/stm32f10x_tim.c ****   * @param  TIM_ICPSC: specifies the Input Capture2 prescaler new value.
2368:../Libraries/StdPeripheralDriver/src/stm32f10x_tim.c ****   *   This parameter can be one of the following values:
2369:../Libraries/StdPeripheralDriver/src/stm32f10x_tim.c ****   *     @arg TIM_ICPSC_DIV1: no prescaler
2370:../Libraries/StdPeripheralDriver/src/stm32f10x_tim.c ****   *     @arg TIM_ICPSC_DIV2: capture is done once every 2 events
2371:../Libraries/StdPeripheralDriver/src/stm32f10x_tim.c ****   *     @arg TIM_ICPSC_DIV4: capture is done once every 4 events
2372:../Libraries/StdPeripheralDriver/src/stm32f10x_tim.c ****   *     @arg TIM_ICPSC_DIV8: capture is done once every 8 events
2373:../Libraries/StdPeripheralDriver/src/stm32f10x_tim.c ****   * @retval None
2374:../Libraries/StdPeripheralDriver/src/stm32f10x_tim.c ****   */
2375:../Libraries/StdPeripheralDriver/src/stm32f10x_tim.c **** void TIM_SetIC2Prescaler(TIM_TypeDef* TIMx, uint16_t TIM_ICPSC)
2376:../Libraries/StdPeripheralDriver/src/stm32f10x_tim.c **** {
 4860              		.loc 1 2376 0
 4861              		.cfi_startproc
 4862              		@ args = 0, pretend = 0, frame = 8
 4863              		@ frame_needed = 1, uses_anonymous_args = 0
 4864              		@ link register save eliminated.
 4865 0000 80B4     		push	{r7}
 4866              		.cfi_def_cfa_offset 4
 4867              		.cfi_offset 7, -4
 4868 0002 83B0     		sub	sp, sp, #12
 4869              		.cfi_def_cfa_offset 16
 4870 0004 00AF     		add	r7, sp, #0
 4871              		.cfi_def_cfa_register 7
 4872 0006 7860     		str	r0, [r7, #4]
 4873 0008 0B46     		mov	r3, r1
 4874 000a 7B80     		strh	r3, [r7, #2]	@ movhi
2377:../Libraries/StdPeripheralDriver/src/stm32f10x_tim.c ****   /* Check the parameters */
2378:../Libraries/StdPeripheralDriver/src/stm32f10x_tim.c ****   assert_param(IS_TIM_LIST6_PERIPH(TIMx));
2379:../Libraries/StdPeripheralDriver/src/stm32f10x_tim.c ****   assert_param(IS_TIM_IC_PRESCALER(TIM_ICPSC));
2380:../Libraries/StdPeripheralDriver/src/stm32f10x_tim.c ****   /* Reset the IC2PSC Bits */
2381:../Libraries/StdPeripheralDriver/src/stm32f10x_tim.c ****   TIMx->CCMR1 &= (uint16_t)~((uint16_t)TIM_CCMR1_IC2PSC);
 4875              		.loc 1 2381 0
 4876 000c 7B68     		ldr	r3, [r7, #4]
 4877 000e 1B8B     		ldrh	r3, [r3, #24]	@ movhi
 4878 0010 9BB2     		uxth	r3, r3
 4879 0012 23F44063 		bic	r3, r3, #3072
 4880 0016 9AB2     		uxth	r2, r3
 4881 0018 7B68     		ldr	r3, [r7, #4]
 4882 001a 1A83     		strh	r2, [r3, #24]	@ movhi
2382:../Libraries/StdPeripheralDriver/src/stm32f10x_tim.c ****   /* Set the IC2PSC value */
2383:../Libraries/StdPeripheralDriver/src/stm32f10x_tim.c ****   TIMx->CCMR1 |= (uint16_t)(TIM_ICPSC << 8);
 4883              		.loc 1 2383 0
 4884 001c 7B68     		ldr	r3, [r7, #4]
 4885 001e 1B8B     		ldrh	r3, [r3, #24]	@ movhi
 4886 0020 9AB2     		uxth	r2, r3
 4887 0022 7B88     		ldrh	r3, [r7, #2]	@ movhi
 4888 0024 1B02     		lsls	r3, r3, #8
 4889 0026 9BB2     		uxth	r3, r3
 4890 0028 1343     		orrs	r3, r3, r2
 4891 002a 9AB2     		uxth	r2, r3
 4892 002c 7B68     		ldr	r3, [r7, #4]
 4893 002e 1A83     		strh	r2, [r3, #24]	@ movhi
2384:../Libraries/StdPeripheralDriver/src/stm32f10x_tim.c **** }
 4894              		.loc 1 2384 0
 4895 0030 0C37     		adds	r7, r7, #12
 4896 0032 BD46     		mov	sp, r7
 4897              		@ sp needed
 4898 0034 5DF8047B 		ldr	r7, [sp], #4
 4899 0038 7047     		bx	lr
 4900              		.cfi_endproc
 4901              	.LFE102:
 4903 003a 00BF     		.section	.text.TIM_SetIC3Prescaler,"ax",%progbits
 4904              		.align	2
 4905              		.global	TIM_SetIC3Prescaler
 4906              		.thumb
 4907              		.thumb_func
 4909              	TIM_SetIC3Prescaler:
 4910              	.LFB103:
2385:../Libraries/StdPeripheralDriver/src/stm32f10x_tim.c **** 
2386:../Libraries/StdPeripheralDriver/src/stm32f10x_tim.c **** /**
2387:../Libraries/StdPeripheralDriver/src/stm32f10x_tim.c ****   * @brief  Sets the TIMx Input Capture 3 prescaler.
2388:../Libraries/StdPeripheralDriver/src/stm32f10x_tim.c ****   * @param  TIMx: where x can be 1, 2, 3, 4, 5 or 8 to select the TIM peripheral.
2389:../Libraries/StdPeripheralDriver/src/stm32f10x_tim.c ****   * @param  TIM_ICPSC: specifies the Input Capture3 prescaler new value.
2390:../Libraries/StdPeripheralDriver/src/stm32f10x_tim.c ****   *   This parameter can be one of the following values:
2391:../Libraries/StdPeripheralDriver/src/stm32f10x_tim.c ****   *     @arg TIM_ICPSC_DIV1: no prescaler
2392:../Libraries/StdPeripheralDriver/src/stm32f10x_tim.c ****   *     @arg TIM_ICPSC_DIV2: capture is done once every 2 events
2393:../Libraries/StdPeripheralDriver/src/stm32f10x_tim.c ****   *     @arg TIM_ICPSC_DIV4: capture is done once every 4 events
2394:../Libraries/StdPeripheralDriver/src/stm32f10x_tim.c ****   *     @arg TIM_ICPSC_DIV8: capture is done once every 8 events
2395:../Libraries/StdPeripheralDriver/src/stm32f10x_tim.c ****   * @retval None
2396:../Libraries/StdPeripheralDriver/src/stm32f10x_tim.c ****   */
2397:../Libraries/StdPeripheralDriver/src/stm32f10x_tim.c **** void TIM_SetIC3Prescaler(TIM_TypeDef* TIMx, uint16_t TIM_ICPSC)
2398:../Libraries/StdPeripheralDriver/src/stm32f10x_tim.c **** {
 4911              		.loc 1 2398 0
 4912              		.cfi_startproc
 4913              		@ args = 0, pretend = 0, frame = 8
 4914              		@ frame_needed = 1, uses_anonymous_args = 0
 4915              		@ link register save eliminated.
 4916 0000 80B4     		push	{r7}
 4917              		.cfi_def_cfa_offset 4
 4918              		.cfi_offset 7, -4
 4919 0002 83B0     		sub	sp, sp, #12
 4920              		.cfi_def_cfa_offset 16
 4921 0004 00AF     		add	r7, sp, #0
 4922              		.cfi_def_cfa_register 7
 4923 0006 7860     		str	r0, [r7, #4]
 4924 0008 0B46     		mov	r3, r1
 4925 000a 7B80     		strh	r3, [r7, #2]	@ movhi
2399:../Libraries/StdPeripheralDriver/src/stm32f10x_tim.c ****   /* Check the parameters */
2400:../Libraries/StdPeripheralDriver/src/stm32f10x_tim.c ****   assert_param(IS_TIM_LIST3_PERIPH(TIMx));
2401:../Libraries/StdPeripheralDriver/src/stm32f10x_tim.c ****   assert_param(IS_TIM_IC_PRESCALER(TIM_ICPSC));
2402:../Libraries/StdPeripheralDriver/src/stm32f10x_tim.c ****   /* Reset the IC3PSC Bits */
2403:../Libraries/StdPeripheralDriver/src/stm32f10x_tim.c ****   TIMx->CCMR2 &= (uint16_t)~((uint16_t)TIM_CCMR2_IC3PSC);
 4926              		.loc 1 2403 0
 4927 000c 7B68     		ldr	r3, [r7, #4]
 4928 000e 9B8B     		ldrh	r3, [r3, #28]	@ movhi
 4929 0010 9BB2     		uxth	r3, r3
 4930 0012 23F00C03 		bic	r3, r3, #12
 4931 0016 9AB2     		uxth	r2, r3
 4932 0018 7B68     		ldr	r3, [r7, #4]
 4933 001a 9A83     		strh	r2, [r3, #28]	@ movhi
2404:../Libraries/StdPeripheralDriver/src/stm32f10x_tim.c ****   /* Set the IC3PSC value */
2405:../Libraries/StdPeripheralDriver/src/stm32f10x_tim.c ****   TIMx->CCMR2 |= TIM_ICPSC;
 4934              		.loc 1 2405 0
 4935 001c 7B68     		ldr	r3, [r7, #4]
 4936 001e 9B8B     		ldrh	r3, [r3, #28]	@ movhi
 4937 0020 9AB2     		uxth	r2, r3
 4938 0022 7B88     		ldrh	r3, [r7, #2]	@ movhi
 4939 0024 1343     		orrs	r3, r3, r2
 4940 0026 9AB2     		uxth	r2, r3
 4941 0028 7B68     		ldr	r3, [r7, #4]
 4942 002a 9A83     		strh	r2, [r3, #28]	@ movhi
2406:../Libraries/StdPeripheralDriver/src/stm32f10x_tim.c **** }
 4943              		.loc 1 2406 0
 4944 002c 0C37     		adds	r7, r7, #12
 4945 002e BD46     		mov	sp, r7
 4946              		@ sp needed
 4947 0030 5DF8047B 		ldr	r7, [sp], #4
 4948 0034 7047     		bx	lr
 4949              		.cfi_endproc
 4950              	.LFE103:
 4952 0036 00BF     		.section	.text.TIM_SetIC4Prescaler,"ax",%progbits
 4953              		.align	2
 4954              		.global	TIM_SetIC4Prescaler
 4955              		.thumb
 4956              		.thumb_func
 4958              	TIM_SetIC4Prescaler:
 4959              	.LFB104:
2407:../Libraries/StdPeripheralDriver/src/stm32f10x_tim.c **** 
2408:../Libraries/StdPeripheralDriver/src/stm32f10x_tim.c **** /**
2409:../Libraries/StdPeripheralDriver/src/stm32f10x_tim.c ****   * @brief  Sets the TIMx Input Capture 4 prescaler.
2410:../Libraries/StdPeripheralDriver/src/stm32f10x_tim.c ****   * @param  TIMx: where x can be 1, 2, 3, 4, 5 or 8 to select the TIM peripheral.
2411:../Libraries/StdPeripheralDriver/src/stm32f10x_tim.c ****   * @param  TIM_ICPSC: specifies the Input Capture4 prescaler new value.
2412:../Libraries/StdPeripheralDriver/src/stm32f10x_tim.c ****   *   This parameter can be one of the following values:
2413:../Libraries/StdPeripheralDriver/src/stm32f10x_tim.c ****   *     @arg TIM_ICPSC_DIV1: no prescaler
2414:../Libraries/StdPeripheralDriver/src/stm32f10x_tim.c ****   *     @arg TIM_ICPSC_DIV2: capture is done once every 2 events
2415:../Libraries/StdPeripheralDriver/src/stm32f10x_tim.c ****   *     @arg TIM_ICPSC_DIV4: capture is done once every 4 events
2416:../Libraries/StdPeripheralDriver/src/stm32f10x_tim.c ****   *     @arg TIM_ICPSC_DIV8: capture is done once every 8 events
2417:../Libraries/StdPeripheralDriver/src/stm32f10x_tim.c ****   * @retval None
2418:../Libraries/StdPeripheralDriver/src/stm32f10x_tim.c ****   */
2419:../Libraries/StdPeripheralDriver/src/stm32f10x_tim.c **** void TIM_SetIC4Prescaler(TIM_TypeDef* TIMx, uint16_t TIM_ICPSC)
2420:../Libraries/StdPeripheralDriver/src/stm32f10x_tim.c **** {  
 4960              		.loc 1 2420 0
 4961              		.cfi_startproc
 4962              		@ args = 0, pretend = 0, frame = 8
 4963              		@ frame_needed = 1, uses_anonymous_args = 0
 4964              		@ link register save eliminated.
 4965 0000 80B4     		push	{r7}
 4966              		.cfi_def_cfa_offset 4
 4967              		.cfi_offset 7, -4
 4968 0002 83B0     		sub	sp, sp, #12
 4969              		.cfi_def_cfa_offset 16
 4970 0004 00AF     		add	r7, sp, #0
 4971              		.cfi_def_cfa_register 7
 4972 0006 7860     		str	r0, [r7, #4]
 4973 0008 0B46     		mov	r3, r1
 4974 000a 7B80     		strh	r3, [r7, #2]	@ movhi
2421:../Libraries/StdPeripheralDriver/src/stm32f10x_tim.c ****   /* Check the parameters */
2422:../Libraries/StdPeripheralDriver/src/stm32f10x_tim.c ****   assert_param(IS_TIM_LIST3_PERIPH(TIMx));
2423:../Libraries/StdPeripheralDriver/src/stm32f10x_tim.c ****   assert_param(IS_TIM_IC_PRESCALER(TIM_ICPSC));
2424:../Libraries/StdPeripheralDriver/src/stm32f10x_tim.c ****   /* Reset the IC4PSC Bits */
2425:../Libraries/StdPeripheralDriver/src/stm32f10x_tim.c ****   TIMx->CCMR2 &= (uint16_t)~((uint16_t)TIM_CCMR2_IC4PSC);
 4975              		.loc 1 2425 0
 4976 000c 7B68     		ldr	r3, [r7, #4]
 4977 000e 9B8B     		ldrh	r3, [r3, #28]	@ movhi
 4978 0010 9BB2     		uxth	r3, r3
 4979 0012 23F44063 		bic	r3, r3, #3072
 4980 0016 9AB2     		uxth	r2, r3
 4981 0018 7B68     		ldr	r3, [r7, #4]
 4982 001a 9A83     		strh	r2, [r3, #28]	@ movhi
2426:../Libraries/StdPeripheralDriver/src/stm32f10x_tim.c ****   /* Set the IC4PSC value */
2427:../Libraries/StdPeripheralDriver/src/stm32f10x_tim.c ****   TIMx->CCMR2 |= (uint16_t)(TIM_ICPSC << 8);
 4983              		.loc 1 2427 0
 4984 001c 7B68     		ldr	r3, [r7, #4]
 4985 001e 9B8B     		ldrh	r3, [r3, #28]	@ movhi
 4986 0020 9AB2     		uxth	r2, r3
 4987 0022 7B88     		ldrh	r3, [r7, #2]	@ movhi
 4988 0024 1B02     		lsls	r3, r3, #8
 4989 0026 9BB2     		uxth	r3, r3
 4990 0028 1343     		orrs	r3, r3, r2
 4991 002a 9AB2     		uxth	r2, r3
 4992 002c 7B68     		ldr	r3, [r7, #4]
 4993 002e 9A83     		strh	r2, [r3, #28]	@ movhi
2428:../Libraries/StdPeripheralDriver/src/stm32f10x_tim.c **** }
 4994              		.loc 1 2428 0
 4995 0030 0C37     		adds	r7, r7, #12
 4996 0032 BD46     		mov	sp, r7
 4997              		@ sp needed
 4998 0034 5DF8047B 		ldr	r7, [sp], #4
 4999 0038 7047     		bx	lr
 5000              		.cfi_endproc
 5001              	.LFE104:
 5003 003a 00BF     		.section	.text.TIM_SetClockDivision,"ax",%progbits
 5004              		.align	2
 5005              		.global	TIM_SetClockDivision
 5006              		.thumb
 5007              		.thumb_func
 5009              	TIM_SetClockDivision:
 5010              	.LFB105:
2429:../Libraries/StdPeripheralDriver/src/stm32f10x_tim.c **** 
2430:../Libraries/StdPeripheralDriver/src/stm32f10x_tim.c **** /**
2431:../Libraries/StdPeripheralDriver/src/stm32f10x_tim.c ****   * @brief  Sets the TIMx Clock Division value.
2432:../Libraries/StdPeripheralDriver/src/stm32f10x_tim.c ****   * @param  TIMx: where x can be  1 to 17 except 6 and 7 to select 
2433:../Libraries/StdPeripheralDriver/src/stm32f10x_tim.c ****   *   the TIM peripheral.
2434:../Libraries/StdPeripheralDriver/src/stm32f10x_tim.c ****   * @param  TIM_CKD: specifies the clock division value.
2435:../Libraries/StdPeripheralDriver/src/stm32f10x_tim.c ****   *   This parameter can be one of the following value:
2436:../Libraries/StdPeripheralDriver/src/stm32f10x_tim.c ****   *     @arg TIM_CKD_DIV1: TDTS = Tck_tim
2437:../Libraries/StdPeripheralDriver/src/stm32f10x_tim.c ****   *     @arg TIM_CKD_DIV2: TDTS = 2*Tck_tim
2438:../Libraries/StdPeripheralDriver/src/stm32f10x_tim.c ****   *     @arg TIM_CKD_DIV4: TDTS = 4*Tck_tim
2439:../Libraries/StdPeripheralDriver/src/stm32f10x_tim.c ****   * @retval None
2440:../Libraries/StdPeripheralDriver/src/stm32f10x_tim.c ****   */
2441:../Libraries/StdPeripheralDriver/src/stm32f10x_tim.c **** void TIM_SetClockDivision(TIM_TypeDef* TIMx, uint16_t TIM_CKD)
2442:../Libraries/StdPeripheralDriver/src/stm32f10x_tim.c **** {
 5011              		.loc 1 2442 0
 5012              		.cfi_startproc
 5013              		@ args = 0, pretend = 0, frame = 8
 5014              		@ frame_needed = 1, uses_anonymous_args = 0
 5015              		@ link register save eliminated.
 5016 0000 80B4     		push	{r7}
 5017              		.cfi_def_cfa_offset 4
 5018              		.cfi_offset 7, -4
 5019 0002 83B0     		sub	sp, sp, #12
 5020              		.cfi_def_cfa_offset 16
 5021 0004 00AF     		add	r7, sp, #0
 5022              		.cfi_def_cfa_register 7
 5023 0006 7860     		str	r0, [r7, #4]
 5024 0008 0B46     		mov	r3, r1
 5025 000a 7B80     		strh	r3, [r7, #2]	@ movhi
2443:../Libraries/StdPeripheralDriver/src/stm32f10x_tim.c ****   /* Check the parameters */
2444:../Libraries/StdPeripheralDriver/src/stm32f10x_tim.c ****   assert_param(IS_TIM_LIST8_PERIPH(TIMx));
2445:../Libraries/StdPeripheralDriver/src/stm32f10x_tim.c ****   assert_param(IS_TIM_CKD_DIV(TIM_CKD));
2446:../Libraries/StdPeripheralDriver/src/stm32f10x_tim.c ****   /* Reset the CKD Bits */
2447:../Libraries/StdPeripheralDriver/src/stm32f10x_tim.c ****   TIMx->CR1 &= (uint16_t)~((uint16_t)TIM_CR1_CKD);
 5026              		.loc 1 2447 0
 5027 000c 7B68     		ldr	r3, [r7, #4]
 5028 000e 1B88     		ldrh	r3, [r3]	@ movhi
 5029 0010 9BB2     		uxth	r3, r3
 5030 0012 23F44073 		bic	r3, r3, #768
 5031 0016 9AB2     		uxth	r2, r3
 5032 0018 7B68     		ldr	r3, [r7, #4]
 5033 001a 1A80     		strh	r2, [r3]	@ movhi
2448:../Libraries/StdPeripheralDriver/src/stm32f10x_tim.c ****   /* Set the CKD value */
2449:../Libraries/StdPeripheralDriver/src/stm32f10x_tim.c ****   TIMx->CR1 |= TIM_CKD;
 5034              		.loc 1 2449 0
 5035 001c 7B68     		ldr	r3, [r7, #4]
 5036 001e 1B88     		ldrh	r3, [r3]	@ movhi
 5037 0020 9AB2     		uxth	r2, r3
 5038 0022 7B88     		ldrh	r3, [r7, #2]	@ movhi
 5039 0024 1343     		orrs	r3, r3, r2
 5040 0026 9AB2     		uxth	r2, r3
 5041 0028 7B68     		ldr	r3, [r7, #4]
 5042 002a 1A80     		strh	r2, [r3]	@ movhi
2450:../Libraries/StdPeripheralDriver/src/stm32f10x_tim.c **** }
 5043              		.loc 1 2450 0
 5044 002c 0C37     		adds	r7, r7, #12
 5045 002e BD46     		mov	sp, r7
 5046              		@ sp needed
 5047 0030 5DF8047B 		ldr	r7, [sp], #4
 5048 0034 7047     		bx	lr
 5049              		.cfi_endproc
 5050              	.LFE105:
 5052 0036 00BF     		.section	.text.TIM_GetCapture1,"ax",%progbits
 5053              		.align	2
 5054              		.global	TIM_GetCapture1
 5055              		.thumb
 5056              		.thumb_func
 5058              	TIM_GetCapture1:
 5059              	.LFB106:
2451:../Libraries/StdPeripheralDriver/src/stm32f10x_tim.c **** 
2452:../Libraries/StdPeripheralDriver/src/stm32f10x_tim.c **** /**
2453:../Libraries/StdPeripheralDriver/src/stm32f10x_tim.c ****   * @brief  Gets the TIMx Input Capture 1 value.
2454:../Libraries/StdPeripheralDriver/src/stm32f10x_tim.c ****   * @param  TIMx: where x can be 1 to 17 except 6 and 7 to select the TIM peripheral.
2455:../Libraries/StdPeripheralDriver/src/stm32f10x_tim.c ****   * @retval Capture Compare 1 Register value.
2456:../Libraries/StdPeripheralDriver/src/stm32f10x_tim.c ****   */
2457:../Libraries/StdPeripheralDriver/src/stm32f10x_tim.c **** uint16_t TIM_GetCapture1(TIM_TypeDef* TIMx)
2458:../Libraries/StdPeripheralDriver/src/stm32f10x_tim.c **** {
 5060              		.loc 1 2458 0
 5061              		.cfi_startproc
 5062              		@ args = 0, pretend = 0, frame = 8
 5063              		@ frame_needed = 1, uses_anonymous_args = 0
 5064              		@ link register save eliminated.
 5065 0000 80B4     		push	{r7}
 5066              		.cfi_def_cfa_offset 4
 5067              		.cfi_offset 7, -4
 5068 0002 83B0     		sub	sp, sp, #12
 5069              		.cfi_def_cfa_offset 16
 5070 0004 00AF     		add	r7, sp, #0
 5071              		.cfi_def_cfa_register 7
 5072 0006 7860     		str	r0, [r7, #4]
2459:../Libraries/StdPeripheralDriver/src/stm32f10x_tim.c ****   /* Check the parameters */
2460:../Libraries/StdPeripheralDriver/src/stm32f10x_tim.c ****   assert_param(IS_TIM_LIST8_PERIPH(TIMx));
2461:../Libraries/StdPeripheralDriver/src/stm32f10x_tim.c ****   /* Get the Capture 1 Register value */
2462:../Libraries/StdPeripheralDriver/src/stm32f10x_tim.c ****   return TIMx->CCR1;
 5073              		.loc 1 2462 0
 5074 0008 7B68     		ldr	r3, [r7, #4]
 5075 000a 9B8E     		ldrh	r3, [r3, #52]	@ movhi
 5076 000c 9BB2     		uxth	r3, r3
2463:../Libraries/StdPeripheralDriver/src/stm32f10x_tim.c **** }
 5077              		.loc 1 2463 0
 5078 000e 1846     		mov	r0, r3
 5079 0010 0C37     		adds	r7, r7, #12
 5080 0012 BD46     		mov	sp, r7
 5081              		@ sp needed
 5082 0014 5DF8047B 		ldr	r7, [sp], #4
 5083 0018 7047     		bx	lr
 5084              		.cfi_endproc
 5085              	.LFE106:
 5087 001a 00BF     		.section	.text.TIM_GetCapture2,"ax",%progbits
 5088              		.align	2
 5089              		.global	TIM_GetCapture2
 5090              		.thumb
 5091              		.thumb_func
 5093              	TIM_GetCapture2:
 5094              	.LFB107:
2464:../Libraries/StdPeripheralDriver/src/stm32f10x_tim.c **** 
2465:../Libraries/StdPeripheralDriver/src/stm32f10x_tim.c **** /**
2466:../Libraries/StdPeripheralDriver/src/stm32f10x_tim.c ****   * @brief  Gets the TIMx Input Capture 2 value.
2467:../Libraries/StdPeripheralDriver/src/stm32f10x_tim.c ****   * @param  TIMx: where x can be 1, 2, 3, 4, 5, 8, 9, 12 or 15 to select the TIM peripheral.
2468:../Libraries/StdPeripheralDriver/src/stm32f10x_tim.c ****   * @retval Capture Compare 2 Register value.
2469:../Libraries/StdPeripheralDriver/src/stm32f10x_tim.c ****   */
2470:../Libraries/StdPeripheralDriver/src/stm32f10x_tim.c **** uint16_t TIM_GetCapture2(TIM_TypeDef* TIMx)
2471:../Libraries/StdPeripheralDriver/src/stm32f10x_tim.c **** {
 5095              		.loc 1 2471 0
 5096              		.cfi_startproc
 5097              		@ args = 0, pretend = 0, frame = 8
 5098              		@ frame_needed = 1, uses_anonymous_args = 0
 5099              		@ link register save eliminated.
 5100 0000 80B4     		push	{r7}
 5101              		.cfi_def_cfa_offset 4
 5102              		.cfi_offset 7, -4
 5103 0002 83B0     		sub	sp, sp, #12
 5104              		.cfi_def_cfa_offset 16
 5105 0004 00AF     		add	r7, sp, #0
 5106              		.cfi_def_cfa_register 7
 5107 0006 7860     		str	r0, [r7, #4]
2472:../Libraries/StdPeripheralDriver/src/stm32f10x_tim.c ****   /* Check the parameters */
2473:../Libraries/StdPeripheralDriver/src/stm32f10x_tim.c ****   assert_param(IS_TIM_LIST6_PERIPH(TIMx));
2474:../Libraries/StdPeripheralDriver/src/stm32f10x_tim.c ****   /* Get the Capture 2 Register value */
2475:../Libraries/StdPeripheralDriver/src/stm32f10x_tim.c ****   return TIMx->CCR2;
 5108              		.loc 1 2475 0
 5109 0008 7B68     		ldr	r3, [r7, #4]
 5110 000a 1B8F     		ldrh	r3, [r3, #56]	@ movhi
 5111 000c 9BB2     		uxth	r3, r3
2476:../Libraries/StdPeripheralDriver/src/stm32f10x_tim.c **** }
 5112              		.loc 1 2476 0
 5113 000e 1846     		mov	r0, r3
 5114 0010 0C37     		adds	r7, r7, #12
 5115 0012 BD46     		mov	sp, r7
 5116              		@ sp needed
 5117 0014 5DF8047B 		ldr	r7, [sp], #4
 5118 0018 7047     		bx	lr
 5119              		.cfi_endproc
 5120              	.LFE107:
 5122 001a 00BF     		.section	.text.TIM_GetCapture3,"ax",%progbits
 5123              		.align	2
 5124              		.global	TIM_GetCapture3
 5125              		.thumb
 5126              		.thumb_func
 5128              	TIM_GetCapture3:
 5129              	.LFB108:
2477:../Libraries/StdPeripheralDriver/src/stm32f10x_tim.c **** 
2478:../Libraries/StdPeripheralDriver/src/stm32f10x_tim.c **** /**
2479:../Libraries/StdPeripheralDriver/src/stm32f10x_tim.c ****   * @brief  Gets the TIMx Input Capture 3 value.
2480:../Libraries/StdPeripheralDriver/src/stm32f10x_tim.c ****   * @param  TIMx: where x can be 1, 2, 3, 4, 5 or 8 to select the TIM peripheral.
2481:../Libraries/StdPeripheralDriver/src/stm32f10x_tim.c ****   * @retval Capture Compare 3 Register value.
2482:../Libraries/StdPeripheralDriver/src/stm32f10x_tim.c ****   */
2483:../Libraries/StdPeripheralDriver/src/stm32f10x_tim.c **** uint16_t TIM_GetCapture3(TIM_TypeDef* TIMx)
2484:../Libraries/StdPeripheralDriver/src/stm32f10x_tim.c **** {
 5130              		.loc 1 2484 0
 5131              		.cfi_startproc
 5132              		@ args = 0, pretend = 0, frame = 8
 5133              		@ frame_needed = 1, uses_anonymous_args = 0
 5134              		@ link register save eliminated.
 5135 0000 80B4     		push	{r7}
 5136              		.cfi_def_cfa_offset 4
 5137              		.cfi_offset 7, -4
 5138 0002 83B0     		sub	sp, sp, #12
 5139              		.cfi_def_cfa_offset 16
 5140 0004 00AF     		add	r7, sp, #0
 5141              		.cfi_def_cfa_register 7
 5142 0006 7860     		str	r0, [r7, #4]
2485:../Libraries/StdPeripheralDriver/src/stm32f10x_tim.c ****   /* Check the parameters */
2486:../Libraries/StdPeripheralDriver/src/stm32f10x_tim.c ****   assert_param(IS_TIM_LIST3_PERIPH(TIMx)); 
2487:../Libraries/StdPeripheralDriver/src/stm32f10x_tim.c ****   /* Get the Capture 3 Register value */
2488:../Libraries/StdPeripheralDriver/src/stm32f10x_tim.c ****   return TIMx->CCR3;
 5143              		.loc 1 2488 0
 5144 0008 7B68     		ldr	r3, [r7, #4]
 5145 000a 9B8F     		ldrh	r3, [r3, #60]	@ movhi
 5146 000c 9BB2     		uxth	r3, r3
2489:../Libraries/StdPeripheralDriver/src/stm32f10x_tim.c **** }
 5147              		.loc 1 2489 0
 5148 000e 1846     		mov	r0, r3
 5149 0010 0C37     		adds	r7, r7, #12
 5150 0012 BD46     		mov	sp, r7
 5151              		@ sp needed
 5152 0014 5DF8047B 		ldr	r7, [sp], #4
 5153 0018 7047     		bx	lr
 5154              		.cfi_endproc
 5155              	.LFE108:
 5157 001a 00BF     		.section	.text.TIM_GetCapture4,"ax",%progbits
 5158              		.align	2
 5159              		.global	TIM_GetCapture4
 5160              		.thumb
 5161              		.thumb_func
 5163              	TIM_GetCapture4:
 5164              	.LFB109:
2490:../Libraries/StdPeripheralDriver/src/stm32f10x_tim.c **** 
2491:../Libraries/StdPeripheralDriver/src/stm32f10x_tim.c **** /**
2492:../Libraries/StdPeripheralDriver/src/stm32f10x_tim.c ****   * @brief  Gets the TIMx Input Capture 4 value.
2493:../Libraries/StdPeripheralDriver/src/stm32f10x_tim.c ****   * @param  TIMx: where x can be 1, 2, 3, 4, 5 or 8 to select the TIM peripheral.
2494:../Libraries/StdPeripheralDriver/src/stm32f10x_tim.c ****   * @retval Capture Compare 4 Register value.
2495:../Libraries/StdPeripheralDriver/src/stm32f10x_tim.c ****   */
2496:../Libraries/StdPeripheralDriver/src/stm32f10x_tim.c **** uint16_t TIM_GetCapture4(TIM_TypeDef* TIMx)
2497:../Libraries/StdPeripheralDriver/src/stm32f10x_tim.c **** {
 5165              		.loc 1 2497 0
 5166              		.cfi_startproc
 5167              		@ args = 0, pretend = 0, frame = 8
 5168              		@ frame_needed = 1, uses_anonymous_args = 0
 5169              		@ link register save eliminated.
 5170 0000 80B4     		push	{r7}
 5171              		.cfi_def_cfa_offset 4
 5172              		.cfi_offset 7, -4
 5173 0002 83B0     		sub	sp, sp, #12
 5174              		.cfi_def_cfa_offset 16
 5175 0004 00AF     		add	r7, sp, #0
 5176              		.cfi_def_cfa_register 7
 5177 0006 7860     		str	r0, [r7, #4]
2498:../Libraries/StdPeripheralDriver/src/stm32f10x_tim.c ****   /* Check the parameters */
2499:../Libraries/StdPeripheralDriver/src/stm32f10x_tim.c ****   assert_param(IS_TIM_LIST3_PERIPH(TIMx));
2500:../Libraries/StdPeripheralDriver/src/stm32f10x_tim.c ****   /* Get the Capture 4 Register value */
2501:../Libraries/StdPeripheralDriver/src/stm32f10x_tim.c ****   return TIMx->CCR4;
 5178              		.loc 1 2501 0
 5179 0008 7B68     		ldr	r3, [r7, #4]
 5180 000a B3F84030 		ldrh	r3, [r3, #64]	@ movhi
 5181 000e 9BB2     		uxth	r3, r3
2502:../Libraries/StdPeripheralDriver/src/stm32f10x_tim.c **** }
 5182              		.loc 1 2502 0
 5183 0010 1846     		mov	r0, r3
 5184 0012 0C37     		adds	r7, r7, #12
 5185 0014 BD46     		mov	sp, r7
 5186              		@ sp needed
 5187 0016 5DF8047B 		ldr	r7, [sp], #4
 5188 001a 7047     		bx	lr
 5189              		.cfi_endproc
 5190              	.LFE109:
 5192              		.section	.text.TIM_GetCounter,"ax",%progbits
 5193              		.align	2
 5194              		.global	TIM_GetCounter
 5195              		.thumb
 5196              		.thumb_func
 5198              	TIM_GetCounter:
 5199              	.LFB110:
2503:../Libraries/StdPeripheralDriver/src/stm32f10x_tim.c **** 
2504:../Libraries/StdPeripheralDriver/src/stm32f10x_tim.c **** /**
2505:../Libraries/StdPeripheralDriver/src/stm32f10x_tim.c ****   * @brief  Gets the TIMx Counter value.
2506:../Libraries/StdPeripheralDriver/src/stm32f10x_tim.c ****   * @param  TIMx: where x can be 1 to 17 to select the TIM peripheral.
2507:../Libraries/StdPeripheralDriver/src/stm32f10x_tim.c ****   * @retval Counter Register value.
2508:../Libraries/StdPeripheralDriver/src/stm32f10x_tim.c ****   */
2509:../Libraries/StdPeripheralDriver/src/stm32f10x_tim.c **** uint16_t TIM_GetCounter(TIM_TypeDef* TIMx)
2510:../Libraries/StdPeripheralDriver/src/stm32f10x_tim.c **** {
 5200              		.loc 1 2510 0
 5201              		.cfi_startproc
 5202              		@ args = 0, pretend = 0, frame = 8
 5203              		@ frame_needed = 1, uses_anonymous_args = 0
 5204              		@ link register save eliminated.
 5205 0000 80B4     		push	{r7}
 5206              		.cfi_def_cfa_offset 4
 5207              		.cfi_offset 7, -4
 5208 0002 83B0     		sub	sp, sp, #12
 5209              		.cfi_def_cfa_offset 16
 5210 0004 00AF     		add	r7, sp, #0
 5211              		.cfi_def_cfa_register 7
 5212 0006 7860     		str	r0, [r7, #4]
2511:../Libraries/StdPeripheralDriver/src/stm32f10x_tim.c ****   /* Check the parameters */
2512:../Libraries/StdPeripheralDriver/src/stm32f10x_tim.c ****   assert_param(IS_TIM_ALL_PERIPH(TIMx));
2513:../Libraries/StdPeripheralDriver/src/stm32f10x_tim.c ****   /* Get the Counter Register value */
2514:../Libraries/StdPeripheralDriver/src/stm32f10x_tim.c ****   return TIMx->CNT;
 5213              		.loc 1 2514 0
 5214 0008 7B68     		ldr	r3, [r7, #4]
 5215 000a 9B8C     		ldrh	r3, [r3, #36]	@ movhi
 5216 000c 9BB2     		uxth	r3, r3
2515:../Libraries/StdPeripheralDriver/src/stm32f10x_tim.c **** }
 5217              		.loc 1 2515 0
 5218 000e 1846     		mov	r0, r3
 5219 0010 0C37     		adds	r7, r7, #12
 5220 0012 BD46     		mov	sp, r7
 5221              		@ sp needed
 5222 0014 5DF8047B 		ldr	r7, [sp], #4
 5223 0018 7047     		bx	lr
 5224              		.cfi_endproc
 5225              	.LFE110:
 5227 001a 00BF     		.section	.text.TIM_GetPrescaler,"ax",%progbits
 5228              		.align	2
 5229              		.global	TIM_GetPrescaler
 5230              		.thumb
 5231              		.thumb_func
 5233              	TIM_GetPrescaler:
 5234              	.LFB111:
2516:../Libraries/StdPeripheralDriver/src/stm32f10x_tim.c **** 
2517:../Libraries/StdPeripheralDriver/src/stm32f10x_tim.c **** /**
2518:../Libraries/StdPeripheralDriver/src/stm32f10x_tim.c ****   * @brief  Gets the TIMx Prescaler value.
2519:../Libraries/StdPeripheralDriver/src/stm32f10x_tim.c ****   * @param  TIMx: where x can be 1 to 17 to select the TIM peripheral.
2520:../Libraries/StdPeripheralDriver/src/stm32f10x_tim.c ****   * @retval Prescaler Register value.
2521:../Libraries/StdPeripheralDriver/src/stm32f10x_tim.c ****   */
2522:../Libraries/StdPeripheralDriver/src/stm32f10x_tim.c **** uint16_t TIM_GetPrescaler(TIM_TypeDef* TIMx)
2523:../Libraries/StdPeripheralDriver/src/stm32f10x_tim.c **** {
 5235              		.loc 1 2523 0
 5236              		.cfi_startproc
 5237              		@ args = 0, pretend = 0, frame = 8
 5238              		@ frame_needed = 1, uses_anonymous_args = 0
 5239              		@ link register save eliminated.
 5240 0000 80B4     		push	{r7}
 5241              		.cfi_def_cfa_offset 4
 5242              		.cfi_offset 7, -4
 5243 0002 83B0     		sub	sp, sp, #12
 5244              		.cfi_def_cfa_offset 16
 5245 0004 00AF     		add	r7, sp, #0
 5246              		.cfi_def_cfa_register 7
 5247 0006 7860     		str	r0, [r7, #4]
2524:../Libraries/StdPeripheralDriver/src/stm32f10x_tim.c ****   /* Check the parameters */
2525:../Libraries/StdPeripheralDriver/src/stm32f10x_tim.c ****   assert_param(IS_TIM_ALL_PERIPH(TIMx));
2526:../Libraries/StdPeripheralDriver/src/stm32f10x_tim.c ****   /* Get the Prescaler Register value */
2527:../Libraries/StdPeripheralDriver/src/stm32f10x_tim.c ****   return TIMx->PSC;
 5248              		.loc 1 2527 0
 5249 0008 7B68     		ldr	r3, [r7, #4]
 5250 000a 1B8D     		ldrh	r3, [r3, #40]	@ movhi
 5251 000c 9BB2     		uxth	r3, r3
2528:../Libraries/StdPeripheralDriver/src/stm32f10x_tim.c **** }
 5252              		.loc 1 2528 0
 5253 000e 1846     		mov	r0, r3
 5254 0010 0C37     		adds	r7, r7, #12
 5255 0012 BD46     		mov	sp, r7
 5256              		@ sp needed
 5257 0014 5DF8047B 		ldr	r7, [sp], #4
 5258 0018 7047     		bx	lr
 5259              		.cfi_endproc
 5260              	.LFE111:
 5262 001a 00BF     		.section	.text.TIM_GetFlagStatus,"ax",%progbits
 5263              		.align	2
 5264              		.global	TIM_GetFlagStatus
 5265              		.thumb
 5266              		.thumb_func
 5268              	TIM_GetFlagStatus:
 5269              	.LFB112:
2529:../Libraries/StdPeripheralDriver/src/stm32f10x_tim.c **** 
2530:../Libraries/StdPeripheralDriver/src/stm32f10x_tim.c **** /**
2531:../Libraries/StdPeripheralDriver/src/stm32f10x_tim.c ****   * @brief  Checks whether the specified TIM flag is set or not.
2532:../Libraries/StdPeripheralDriver/src/stm32f10x_tim.c ****   * @param  TIMx: where x can be 1 to 17 to select the TIM peripheral.
2533:../Libraries/StdPeripheralDriver/src/stm32f10x_tim.c ****   * @param  TIM_FLAG: specifies the flag to check.
2534:../Libraries/StdPeripheralDriver/src/stm32f10x_tim.c ****   *   This parameter can be one of the following values:
2535:../Libraries/StdPeripheralDriver/src/stm32f10x_tim.c ****   *     @arg TIM_FLAG_Update: TIM update Flag
2536:../Libraries/StdPeripheralDriver/src/stm32f10x_tim.c ****   *     @arg TIM_FLAG_CC1: TIM Capture Compare 1 Flag
2537:../Libraries/StdPeripheralDriver/src/stm32f10x_tim.c ****   *     @arg TIM_FLAG_CC2: TIM Capture Compare 2 Flag
2538:../Libraries/StdPeripheralDriver/src/stm32f10x_tim.c ****   *     @arg TIM_FLAG_CC3: TIM Capture Compare 3 Flag
2539:../Libraries/StdPeripheralDriver/src/stm32f10x_tim.c ****   *     @arg TIM_FLAG_CC4: TIM Capture Compare 4 Flag
2540:../Libraries/StdPeripheralDriver/src/stm32f10x_tim.c ****   *     @arg TIM_FLAG_COM: TIM Commutation Flag
2541:../Libraries/StdPeripheralDriver/src/stm32f10x_tim.c ****   *     @arg TIM_FLAG_Trigger: TIM Trigger Flag
2542:../Libraries/StdPeripheralDriver/src/stm32f10x_tim.c ****   *     @arg TIM_FLAG_Break: TIM Break Flag
2543:../Libraries/StdPeripheralDriver/src/stm32f10x_tim.c ****   *     @arg TIM_FLAG_CC1OF: TIM Capture Compare 1 overcapture Flag
2544:../Libraries/StdPeripheralDriver/src/stm32f10x_tim.c ****   *     @arg TIM_FLAG_CC2OF: TIM Capture Compare 2 overcapture Flag
2545:../Libraries/StdPeripheralDriver/src/stm32f10x_tim.c ****   *     @arg TIM_FLAG_CC3OF: TIM Capture Compare 3 overcapture Flag
2546:../Libraries/StdPeripheralDriver/src/stm32f10x_tim.c ****   *     @arg TIM_FLAG_CC4OF: TIM Capture Compare 4 overcapture Flag
2547:../Libraries/StdPeripheralDriver/src/stm32f10x_tim.c ****   * @note
2548:../Libraries/StdPeripheralDriver/src/stm32f10x_tim.c ****   *   - TIM6 and TIM7 can have only one update flag. 
2549:../Libraries/StdPeripheralDriver/src/stm32f10x_tim.c ****   *   - TIM9, TIM12 and TIM15 can have only TIM_FLAG_Update, TIM_FLAG_CC1,
2550:../Libraries/StdPeripheralDriver/src/stm32f10x_tim.c ****   *      TIM_FLAG_CC2 or TIM_FLAG_Trigger. 
2551:../Libraries/StdPeripheralDriver/src/stm32f10x_tim.c ****   *   - TIM10, TIM11, TIM13, TIM14, TIM16 and TIM17 can have TIM_FLAG_Update or TIM_FLAG_CC1.   
2552:../Libraries/StdPeripheralDriver/src/stm32f10x_tim.c ****   *   - TIM_FLAG_Break is used only with TIM1, TIM8 and TIM15. 
2553:../Libraries/StdPeripheralDriver/src/stm32f10x_tim.c ****   *   - TIM_FLAG_COM is used only with TIM1, TIM8, TIM15, TIM16 and TIM17.    
2554:../Libraries/StdPeripheralDriver/src/stm32f10x_tim.c ****   * @retval The new state of TIM_FLAG (SET or RESET).
2555:../Libraries/StdPeripheralDriver/src/stm32f10x_tim.c ****   */
2556:../Libraries/StdPeripheralDriver/src/stm32f10x_tim.c **** FlagStatus TIM_GetFlagStatus(TIM_TypeDef* TIMx, uint16_t TIM_FLAG)
2557:../Libraries/StdPeripheralDriver/src/stm32f10x_tim.c **** { 
 5270              		.loc 1 2557 0
 5271              		.cfi_startproc
 5272              		@ args = 0, pretend = 0, frame = 16
 5273              		@ frame_needed = 1, uses_anonymous_args = 0
 5274              		@ link register save eliminated.
 5275 0000 80B4     		push	{r7}
 5276              		.cfi_def_cfa_offset 4
 5277              		.cfi_offset 7, -4
 5278 0002 85B0     		sub	sp, sp, #20
 5279              		.cfi_def_cfa_offset 24
 5280 0004 00AF     		add	r7, sp, #0
 5281              		.cfi_def_cfa_register 7
 5282 0006 7860     		str	r0, [r7, #4]
 5283 0008 0B46     		mov	r3, r1
 5284 000a 7B80     		strh	r3, [r7, #2]	@ movhi
2558:../Libraries/StdPeripheralDriver/src/stm32f10x_tim.c ****   ITStatus bitstatus = RESET;  
 5285              		.loc 1 2558 0
 5286 000c 0023     		movs	r3, #0
 5287 000e FB73     		strb	r3, [r7, #15]
2559:../Libraries/StdPeripheralDriver/src/stm32f10x_tim.c ****   /* Check the parameters */
2560:../Libraries/StdPeripheralDriver/src/stm32f10x_tim.c ****   assert_param(IS_TIM_ALL_PERIPH(TIMx));
2561:../Libraries/StdPeripheralDriver/src/stm32f10x_tim.c ****   assert_param(IS_TIM_GET_FLAG(TIM_FLAG));
2562:../Libraries/StdPeripheralDriver/src/stm32f10x_tim.c ****   
2563:../Libraries/StdPeripheralDriver/src/stm32f10x_tim.c ****   if ((TIMx->SR & TIM_FLAG) != (uint16_t)RESET)
 5288              		.loc 1 2563 0
 5289 0010 7B68     		ldr	r3, [r7, #4]
 5290 0012 1B8A     		ldrh	r3, [r3, #16]	@ movhi
 5291 0014 9AB2     		uxth	r2, r3
 5292 0016 7B88     		ldrh	r3, [r7, #2]	@ movhi
 5293 0018 1340     		ands	r3, r3, r2
 5294 001a 9BB2     		uxth	r3, r3
 5295 001c 002B     		cmp	r3, #0
 5296 001e 02D0     		beq	.L158
2564:../Libraries/StdPeripheralDriver/src/stm32f10x_tim.c ****   {
2565:../Libraries/StdPeripheralDriver/src/stm32f10x_tim.c ****     bitstatus = SET;
 5297              		.loc 1 2565 0
 5298 0020 0123     		movs	r3, #1
 5299 0022 FB73     		strb	r3, [r7, #15]
 5300 0024 01E0     		b	.L159
 5301              	.L158:
2566:../Libraries/StdPeripheralDriver/src/stm32f10x_tim.c ****   }
2567:../Libraries/StdPeripheralDriver/src/stm32f10x_tim.c ****   else
2568:../Libraries/StdPeripheralDriver/src/stm32f10x_tim.c ****   {
2569:../Libraries/StdPeripheralDriver/src/stm32f10x_tim.c ****     bitstatus = RESET;
 5302              		.loc 1 2569 0
 5303 0026 0023     		movs	r3, #0
 5304 0028 FB73     		strb	r3, [r7, #15]
 5305              	.L159:
2570:../Libraries/StdPeripheralDriver/src/stm32f10x_tim.c ****   }
2571:../Libraries/StdPeripheralDriver/src/stm32f10x_tim.c ****   return bitstatus;
 5306              		.loc 1 2571 0
 5307 002a FB7B     		ldrb	r3, [r7, #15]	@ zero_extendqisi2
2572:../Libraries/StdPeripheralDriver/src/stm32f10x_tim.c **** }
 5308              		.loc 1 2572 0
 5309 002c 1846     		mov	r0, r3
 5310 002e 1437     		adds	r7, r7, #20
 5311 0030 BD46     		mov	sp, r7
 5312              		@ sp needed
 5313 0032 5DF8047B 		ldr	r7, [sp], #4
 5314 0036 7047     		bx	lr
 5315              		.cfi_endproc
 5316              	.LFE112:
 5318              		.section	.text.TIM_ClearFlag,"ax",%progbits
 5319              		.align	2
 5320              		.global	TIM_ClearFlag
 5321              		.thumb
 5322              		.thumb_func
 5324              	TIM_ClearFlag:
 5325              	.LFB113:
2573:../Libraries/StdPeripheralDriver/src/stm32f10x_tim.c **** 
2574:../Libraries/StdPeripheralDriver/src/stm32f10x_tim.c **** /**
2575:../Libraries/StdPeripheralDriver/src/stm32f10x_tim.c ****   * @brief  Clears the TIMx's pending flags.
2576:../Libraries/StdPeripheralDriver/src/stm32f10x_tim.c ****   * @param  TIMx: where x can be 1 to 17 to select the TIM peripheral.
2577:../Libraries/StdPeripheralDriver/src/stm32f10x_tim.c ****   * @param  TIM_FLAG: specifies the flag bit to clear.
2578:../Libraries/StdPeripheralDriver/src/stm32f10x_tim.c ****   *   This parameter can be any combination of the following values:
2579:../Libraries/StdPeripheralDriver/src/stm32f10x_tim.c ****   *     @arg TIM_FLAG_Update: TIM update Flag
2580:../Libraries/StdPeripheralDriver/src/stm32f10x_tim.c ****   *     @arg TIM_FLAG_CC1: TIM Capture Compare 1 Flag
2581:../Libraries/StdPeripheralDriver/src/stm32f10x_tim.c ****   *     @arg TIM_FLAG_CC2: TIM Capture Compare 2 Flag
2582:../Libraries/StdPeripheralDriver/src/stm32f10x_tim.c ****   *     @arg TIM_FLAG_CC3: TIM Capture Compare 3 Flag
2583:../Libraries/StdPeripheralDriver/src/stm32f10x_tim.c ****   *     @arg TIM_FLAG_CC4: TIM Capture Compare 4 Flag
2584:../Libraries/StdPeripheralDriver/src/stm32f10x_tim.c ****   *     @arg TIM_FLAG_COM: TIM Commutation Flag
2585:../Libraries/StdPeripheralDriver/src/stm32f10x_tim.c ****   *     @arg TIM_FLAG_Trigger: TIM Trigger Flag
2586:../Libraries/StdPeripheralDriver/src/stm32f10x_tim.c ****   *     @arg TIM_FLAG_Break: TIM Break Flag
2587:../Libraries/StdPeripheralDriver/src/stm32f10x_tim.c ****   *     @arg TIM_FLAG_CC1OF: TIM Capture Compare 1 overcapture Flag
2588:../Libraries/StdPeripheralDriver/src/stm32f10x_tim.c ****   *     @arg TIM_FLAG_CC2OF: TIM Capture Compare 2 overcapture Flag
2589:../Libraries/StdPeripheralDriver/src/stm32f10x_tim.c ****   *     @arg TIM_FLAG_CC3OF: TIM Capture Compare 3 overcapture Flag
2590:../Libraries/StdPeripheralDriver/src/stm32f10x_tim.c ****   *     @arg TIM_FLAG_CC4OF: TIM Capture Compare 4 overcapture Flag
2591:../Libraries/StdPeripheralDriver/src/stm32f10x_tim.c ****   * @note
2592:../Libraries/StdPeripheralDriver/src/stm32f10x_tim.c ****   *   - TIM6 and TIM7 can have only one update flag. 
2593:../Libraries/StdPeripheralDriver/src/stm32f10x_tim.c ****   *   - TIM9, TIM12 and TIM15 can have only TIM_FLAG_Update, TIM_FLAG_CC1,
2594:../Libraries/StdPeripheralDriver/src/stm32f10x_tim.c ****   *      TIM_FLAG_CC2 or TIM_FLAG_Trigger. 
2595:../Libraries/StdPeripheralDriver/src/stm32f10x_tim.c ****   *   - TIM10, TIM11, TIM13, TIM14, TIM16 and TIM17 can have TIM_FLAG_Update or TIM_FLAG_CC1.   
2596:../Libraries/StdPeripheralDriver/src/stm32f10x_tim.c ****   *   - TIM_FLAG_Break is used only with TIM1, TIM8 and TIM15. 
2597:../Libraries/StdPeripheralDriver/src/stm32f10x_tim.c ****   *   - TIM_FLAG_COM is used only with TIM1, TIM8, TIM15, TIM16 and TIM17.   
2598:../Libraries/StdPeripheralDriver/src/stm32f10x_tim.c ****   * @retval None
2599:../Libraries/StdPeripheralDriver/src/stm32f10x_tim.c ****   */
2600:../Libraries/StdPeripheralDriver/src/stm32f10x_tim.c **** void TIM_ClearFlag(TIM_TypeDef* TIMx, uint16_t TIM_FLAG)
2601:../Libraries/StdPeripheralDriver/src/stm32f10x_tim.c **** {  
 5326              		.loc 1 2601 0
 5327              		.cfi_startproc
 5328              		@ args = 0, pretend = 0, frame = 8
 5329              		@ frame_needed = 1, uses_anonymous_args = 0
 5330              		@ link register save eliminated.
 5331 0000 80B4     		push	{r7}
 5332              		.cfi_def_cfa_offset 4
 5333              		.cfi_offset 7, -4
 5334 0002 83B0     		sub	sp, sp, #12
 5335              		.cfi_def_cfa_offset 16
 5336 0004 00AF     		add	r7, sp, #0
 5337              		.cfi_def_cfa_register 7
 5338 0006 7860     		str	r0, [r7, #4]
 5339 0008 0B46     		mov	r3, r1
 5340 000a 7B80     		strh	r3, [r7, #2]	@ movhi
2602:../Libraries/StdPeripheralDriver/src/stm32f10x_tim.c ****   /* Check the parameters */
2603:../Libraries/StdPeripheralDriver/src/stm32f10x_tim.c ****   assert_param(IS_TIM_ALL_PERIPH(TIMx));
2604:../Libraries/StdPeripheralDriver/src/stm32f10x_tim.c ****   assert_param(IS_TIM_CLEAR_FLAG(TIM_FLAG));
2605:../Libraries/StdPeripheralDriver/src/stm32f10x_tim.c ****    
2606:../Libraries/StdPeripheralDriver/src/stm32f10x_tim.c ****   /* Clear the flags */
2607:../Libraries/StdPeripheralDriver/src/stm32f10x_tim.c ****   TIMx->SR = (uint16_t)~TIM_FLAG;
 5341              		.loc 1 2607 0
 5342 000c 7B88     		ldrh	r3, [r7, #2]	@ movhi
 5343 000e DB43     		mvns	r3, r3
 5344 0010 9AB2     		uxth	r2, r3
 5345 0012 7B68     		ldr	r3, [r7, #4]
 5346 0014 1A82     		strh	r2, [r3, #16]	@ movhi
2608:../Libraries/StdPeripheralDriver/src/stm32f10x_tim.c **** }
 5347              		.loc 1 2608 0
 5348 0016 0C37     		adds	r7, r7, #12
 5349 0018 BD46     		mov	sp, r7
 5350              		@ sp needed
 5351 001a 5DF8047B 		ldr	r7, [sp], #4
 5352 001e 7047     		bx	lr
 5353              		.cfi_endproc
 5354              	.LFE113:
 5356              		.section	.text.TIM_GetITStatus,"ax",%progbits
 5357              		.align	2
 5358              		.global	TIM_GetITStatus
 5359              		.thumb
 5360              		.thumb_func
 5362              	TIM_GetITStatus:
 5363              	.LFB114:
2609:../Libraries/StdPeripheralDriver/src/stm32f10x_tim.c **** 
2610:../Libraries/StdPeripheralDriver/src/stm32f10x_tim.c **** /**
2611:../Libraries/StdPeripheralDriver/src/stm32f10x_tim.c ****   * @brief  Checks whether the TIM interrupt has occurred or not.
2612:../Libraries/StdPeripheralDriver/src/stm32f10x_tim.c ****   * @param  TIMx: where x can be 1 to 17 to select the TIM peripheral.
2613:../Libraries/StdPeripheralDriver/src/stm32f10x_tim.c ****   * @param  TIM_IT: specifies the TIM interrupt source to check.
2614:../Libraries/StdPeripheralDriver/src/stm32f10x_tim.c ****   *   This parameter can be one of the following values:
2615:../Libraries/StdPeripheralDriver/src/stm32f10x_tim.c ****   *     @arg TIM_IT_Update: TIM update Interrupt source
2616:../Libraries/StdPeripheralDriver/src/stm32f10x_tim.c ****   *     @arg TIM_IT_CC1: TIM Capture Compare 1 Interrupt source
2617:../Libraries/StdPeripheralDriver/src/stm32f10x_tim.c ****   *     @arg TIM_IT_CC2: TIM Capture Compare 2 Interrupt source
2618:../Libraries/StdPeripheralDriver/src/stm32f10x_tim.c ****   *     @arg TIM_IT_CC3: TIM Capture Compare 3 Interrupt source
2619:../Libraries/StdPeripheralDriver/src/stm32f10x_tim.c ****   *     @arg TIM_IT_CC4: TIM Capture Compare 4 Interrupt source
2620:../Libraries/StdPeripheralDriver/src/stm32f10x_tim.c ****   *     @arg TIM_IT_COM: TIM Commutation Interrupt source
2621:../Libraries/StdPeripheralDriver/src/stm32f10x_tim.c ****   *     @arg TIM_IT_Trigger: TIM Trigger Interrupt source
2622:../Libraries/StdPeripheralDriver/src/stm32f10x_tim.c ****   *     @arg TIM_IT_Break: TIM Break Interrupt source
2623:../Libraries/StdPeripheralDriver/src/stm32f10x_tim.c ****   * @note
2624:../Libraries/StdPeripheralDriver/src/stm32f10x_tim.c ****   *   - TIM6 and TIM7 can generate only an update interrupt.
2625:../Libraries/StdPeripheralDriver/src/stm32f10x_tim.c ****   *   - TIM9, TIM12 and TIM15 can have only TIM_IT_Update, TIM_IT_CC1,
2626:../Libraries/StdPeripheralDriver/src/stm32f10x_tim.c ****   *      TIM_IT_CC2 or TIM_IT_Trigger. 
2627:../Libraries/StdPeripheralDriver/src/stm32f10x_tim.c ****   *   - TIM10, TIM11, TIM13, TIM14, TIM16 and TIM17 can have TIM_IT_Update or TIM_IT_CC1.   
2628:../Libraries/StdPeripheralDriver/src/stm32f10x_tim.c ****   *   - TIM_IT_Break is used only with TIM1, TIM8 and TIM15. 
2629:../Libraries/StdPeripheralDriver/src/stm32f10x_tim.c ****   *   - TIM_IT_COM is used only with TIM1, TIM8, TIM15, TIM16 and TIM17.  
2630:../Libraries/StdPeripheralDriver/src/stm32f10x_tim.c ****   * @retval The new state of the TIM_IT(SET or RESET).
2631:../Libraries/StdPeripheralDriver/src/stm32f10x_tim.c ****   */
2632:../Libraries/StdPeripheralDriver/src/stm32f10x_tim.c **** ITStatus TIM_GetITStatus(TIM_TypeDef* TIMx, uint16_t TIM_IT)
2633:../Libraries/StdPeripheralDriver/src/stm32f10x_tim.c **** {
 5364              		.loc 1 2633 0
 5365              		.cfi_startproc
 5366              		@ args = 0, pretend = 0, frame = 16
 5367              		@ frame_needed = 1, uses_anonymous_args = 0
 5368              		@ link register save eliminated.
 5369 0000 80B4     		push	{r7}
 5370              		.cfi_def_cfa_offset 4
 5371              		.cfi_offset 7, -4
 5372 0002 85B0     		sub	sp, sp, #20
 5373              		.cfi_def_cfa_offset 24
 5374 0004 00AF     		add	r7, sp, #0
 5375              		.cfi_def_cfa_register 7
 5376 0006 7860     		str	r0, [r7, #4]
 5377 0008 0B46     		mov	r3, r1
 5378 000a 7B80     		strh	r3, [r7, #2]	@ movhi
2634:../Libraries/StdPeripheralDriver/src/stm32f10x_tim.c ****   ITStatus bitstatus = RESET;  
 5379              		.loc 1 2634 0
 5380 000c 0023     		movs	r3, #0
 5381 000e FB73     		strb	r3, [r7, #15]
2635:../Libraries/StdPeripheralDriver/src/stm32f10x_tim.c ****   uint16_t itstatus = 0x0, itenable = 0x0;
 5382              		.loc 1 2635 0
 5383 0010 0023     		movs	r3, #0
 5384 0012 BB81     		strh	r3, [r7, #12]	@ movhi
 5385 0014 0023     		movs	r3, #0
 5386 0016 7B81     		strh	r3, [r7, #10]	@ movhi
2636:../Libraries/StdPeripheralDriver/src/stm32f10x_tim.c ****   /* Check the parameters */
2637:../Libraries/StdPeripheralDriver/src/stm32f10x_tim.c ****   assert_param(IS_TIM_ALL_PERIPH(TIMx));
2638:../Libraries/StdPeripheralDriver/src/stm32f10x_tim.c ****   assert_param(IS_TIM_GET_IT(TIM_IT));
2639:../Libraries/StdPeripheralDriver/src/stm32f10x_tim.c ****    
2640:../Libraries/StdPeripheralDriver/src/stm32f10x_tim.c ****   itstatus = TIMx->SR & TIM_IT;
 5387              		.loc 1 2640 0
 5388 0018 7B68     		ldr	r3, [r7, #4]
 5389 001a 1B8A     		ldrh	r3, [r3, #16]	@ movhi
 5390 001c 9AB2     		uxth	r2, r3
 5391 001e 7B88     		ldrh	r3, [r7, #2]	@ movhi
 5392 0020 1340     		ands	r3, r3, r2
 5393 0022 BB81     		strh	r3, [r7, #12]	@ movhi
2641:../Libraries/StdPeripheralDriver/src/stm32f10x_tim.c ****   
2642:../Libraries/StdPeripheralDriver/src/stm32f10x_tim.c ****   itenable = TIMx->DIER & TIM_IT;
 5394              		.loc 1 2642 0
 5395 0024 7B68     		ldr	r3, [r7, #4]
 5396 0026 9B89     		ldrh	r3, [r3, #12]	@ movhi
 5397 0028 9AB2     		uxth	r2, r3
 5398 002a 7B88     		ldrh	r3, [r7, #2]	@ movhi
 5399 002c 1340     		ands	r3, r3, r2
 5400 002e 7B81     		strh	r3, [r7, #10]	@ movhi
2643:../Libraries/StdPeripheralDriver/src/stm32f10x_tim.c ****   if ((itstatus != (uint16_t)RESET) && (itenable != (uint16_t)RESET))
 5401              		.loc 1 2643 0
 5402 0030 BB89     		ldrh	r3, [r7, #12]
 5403 0032 002B     		cmp	r3, #0
 5404 0034 05D0     		beq	.L163
 5405              		.loc 1 2643 0 is_stmt 0 discriminator 1
 5406 0036 7B89     		ldrh	r3, [r7, #10]
 5407 0038 002B     		cmp	r3, #0
 5408 003a 02D0     		beq	.L163
2644:../Libraries/StdPeripheralDriver/src/stm32f10x_tim.c ****   {
2645:../Libraries/StdPeripheralDriver/src/stm32f10x_tim.c ****     bitstatus = SET;
 5409              		.loc 1 2645 0 is_stmt 1
 5410 003c 0123     		movs	r3, #1
 5411 003e FB73     		strb	r3, [r7, #15]
 5412 0040 01E0     		b	.L164
 5413              	.L163:
2646:../Libraries/StdPeripheralDriver/src/stm32f10x_tim.c ****   }
2647:../Libraries/StdPeripheralDriver/src/stm32f10x_tim.c ****   else
2648:../Libraries/StdPeripheralDriver/src/stm32f10x_tim.c ****   {
2649:../Libraries/StdPeripheralDriver/src/stm32f10x_tim.c ****     bitstatus = RESET;
 5414              		.loc 1 2649 0
 5415 0042 0023     		movs	r3, #0
 5416 0044 FB73     		strb	r3, [r7, #15]
 5417              	.L164:
2650:../Libraries/StdPeripheralDriver/src/stm32f10x_tim.c ****   }
2651:../Libraries/StdPeripheralDriver/src/stm32f10x_tim.c ****   return bitstatus;
 5418              		.loc 1 2651 0
 5419 0046 FB7B     		ldrb	r3, [r7, #15]	@ zero_extendqisi2
2652:../Libraries/StdPeripheralDriver/src/stm32f10x_tim.c **** }
 5420              		.loc 1 2652 0
 5421 0048 1846     		mov	r0, r3
 5422 004a 1437     		adds	r7, r7, #20
 5423 004c BD46     		mov	sp, r7
 5424              		@ sp needed
 5425 004e 5DF8047B 		ldr	r7, [sp], #4
 5426 0052 7047     		bx	lr
 5427              		.cfi_endproc
 5428              	.LFE114:
 5430              		.section	.text.TIM_ClearITPendingBit,"ax",%progbits
 5431              		.align	2
 5432              		.global	TIM_ClearITPendingBit
 5433              		.thumb
 5434              		.thumb_func
 5436              	TIM_ClearITPendingBit:
 5437              	.LFB115:
2653:../Libraries/StdPeripheralDriver/src/stm32f10x_tim.c **** 
2654:../Libraries/StdPeripheralDriver/src/stm32f10x_tim.c **** /**
2655:../Libraries/StdPeripheralDriver/src/stm32f10x_tim.c ****   * @brief  Clears the TIMx's interrupt pending bits.
2656:../Libraries/StdPeripheralDriver/src/stm32f10x_tim.c ****   * @param  TIMx: where x can be 1 to 17 to select the TIM peripheral.
2657:../Libraries/StdPeripheralDriver/src/stm32f10x_tim.c ****   * @param  TIM_IT: specifies the pending bit to clear.
2658:../Libraries/StdPeripheralDriver/src/stm32f10x_tim.c ****   *   This parameter can be any combination of the following values:
2659:../Libraries/StdPeripheralDriver/src/stm32f10x_tim.c ****   *     @arg TIM_IT_Update: TIM1 update Interrupt source
2660:../Libraries/StdPeripheralDriver/src/stm32f10x_tim.c ****   *     @arg TIM_IT_CC1: TIM Capture Compare 1 Interrupt source
2661:../Libraries/StdPeripheralDriver/src/stm32f10x_tim.c ****   *     @arg TIM_IT_CC2: TIM Capture Compare 2 Interrupt source
2662:../Libraries/StdPeripheralDriver/src/stm32f10x_tim.c ****   *     @arg TIM_IT_CC3: TIM Capture Compare 3 Interrupt source
2663:../Libraries/StdPeripheralDriver/src/stm32f10x_tim.c ****   *     @arg TIM_IT_CC4: TIM Capture Compare 4 Interrupt source
2664:../Libraries/StdPeripheralDriver/src/stm32f10x_tim.c ****   *     @arg TIM_IT_COM: TIM Commutation Interrupt source
2665:../Libraries/StdPeripheralDriver/src/stm32f10x_tim.c ****   *     @arg TIM_IT_Trigger: TIM Trigger Interrupt source
2666:../Libraries/StdPeripheralDriver/src/stm32f10x_tim.c ****   *     @arg TIM_IT_Break: TIM Break Interrupt source
2667:../Libraries/StdPeripheralDriver/src/stm32f10x_tim.c ****   * @note
2668:../Libraries/StdPeripheralDriver/src/stm32f10x_tim.c ****   *   - TIM6 and TIM7 can generate only an update interrupt.
2669:../Libraries/StdPeripheralDriver/src/stm32f10x_tim.c ****   *   - TIM9, TIM12 and TIM15 can have only TIM_IT_Update, TIM_IT_CC1,
2670:../Libraries/StdPeripheralDriver/src/stm32f10x_tim.c ****   *      TIM_IT_CC2 or TIM_IT_Trigger. 
2671:../Libraries/StdPeripheralDriver/src/stm32f10x_tim.c ****   *   - TIM10, TIM11, TIM13, TIM14, TIM16 and TIM17 can have TIM_IT_Update or TIM_IT_CC1.   
2672:../Libraries/StdPeripheralDriver/src/stm32f10x_tim.c ****   *   - TIM_IT_Break is used only with TIM1, TIM8 and TIM15. 
2673:../Libraries/StdPeripheralDriver/src/stm32f10x_tim.c ****   *   - TIM_IT_COM is used only with TIM1, TIM8, TIM15, TIM16 and TIM17.    
2674:../Libraries/StdPeripheralDriver/src/stm32f10x_tim.c ****   * @retval None
2675:../Libraries/StdPeripheralDriver/src/stm32f10x_tim.c ****   */
2676:../Libraries/StdPeripheralDriver/src/stm32f10x_tim.c **** void TIM_ClearITPendingBit(TIM_TypeDef* TIMx, uint16_t TIM_IT)
2677:../Libraries/StdPeripheralDriver/src/stm32f10x_tim.c **** {
 5438              		.loc 1 2677 0
 5439              		.cfi_startproc
 5440              		@ args = 0, pretend = 0, frame = 8
 5441              		@ frame_needed = 1, uses_anonymous_args = 0
 5442              		@ link register save eliminated.
 5443 0000 80B4     		push	{r7}
 5444              		.cfi_def_cfa_offset 4
 5445              		.cfi_offset 7, -4
 5446 0002 83B0     		sub	sp, sp, #12
 5447              		.cfi_def_cfa_offset 16
 5448 0004 00AF     		add	r7, sp, #0
 5449              		.cfi_def_cfa_register 7
 5450 0006 7860     		str	r0, [r7, #4]
 5451 0008 0B46     		mov	r3, r1
 5452 000a 7B80     		strh	r3, [r7, #2]	@ movhi
2678:../Libraries/StdPeripheralDriver/src/stm32f10x_tim.c ****   /* Check the parameters */
2679:../Libraries/StdPeripheralDriver/src/stm32f10x_tim.c ****   assert_param(IS_TIM_ALL_PERIPH(TIMx));
2680:../Libraries/StdPeripheralDriver/src/stm32f10x_tim.c ****   assert_param(IS_TIM_IT(TIM_IT));
2681:../Libraries/StdPeripheralDriver/src/stm32f10x_tim.c ****   /* Clear the IT pending Bit */
2682:../Libraries/StdPeripheralDriver/src/stm32f10x_tim.c ****   TIMx->SR = (uint16_t)~TIM_IT;
 5453              		.loc 1 2682 0
 5454 000c 7B88     		ldrh	r3, [r7, #2]	@ movhi
 5455 000e DB43     		mvns	r3, r3
 5456 0010 9AB2     		uxth	r2, r3
 5457 0012 7B68     		ldr	r3, [r7, #4]
 5458 0014 1A82     		strh	r2, [r3, #16]	@ movhi
2683:../Libraries/StdPeripheralDriver/src/stm32f10x_tim.c **** }
 5459              		.loc 1 2683 0
 5460 0016 0C37     		adds	r7, r7, #12
 5461 0018 BD46     		mov	sp, r7
 5462              		@ sp needed
 5463 001a 5DF8047B 		ldr	r7, [sp], #4
 5464 001e 7047     		bx	lr
 5465              		.cfi_endproc
 5466              	.LFE115:
 5468              		.section	.text.TI1_Config,"ax",%progbits
 5469              		.align	2
 5470              		.thumb
 5471              		.thumb_func
 5473              	TI1_Config:
 5474              	.LFB116:
2684:../Libraries/StdPeripheralDriver/src/stm32f10x_tim.c **** 
2685:../Libraries/StdPeripheralDriver/src/stm32f10x_tim.c **** /**
2686:../Libraries/StdPeripheralDriver/src/stm32f10x_tim.c ****   * @brief  Configure the TI1 as Input.
2687:../Libraries/StdPeripheralDriver/src/stm32f10x_tim.c ****   * @param  TIMx: where x can be 1 to 17 except 6 and 7 to select the TIM peripheral.
2688:../Libraries/StdPeripheralDriver/src/stm32f10x_tim.c ****   * @param  TIM_ICPolarity : The Input Polarity.
2689:../Libraries/StdPeripheralDriver/src/stm32f10x_tim.c ****   *   This parameter can be one of the following values:
2690:../Libraries/StdPeripheralDriver/src/stm32f10x_tim.c ****   *     @arg TIM_ICPolarity_Rising
2691:../Libraries/StdPeripheralDriver/src/stm32f10x_tim.c ****   *     @arg TIM_ICPolarity_Falling
2692:../Libraries/StdPeripheralDriver/src/stm32f10x_tim.c ****   * @param  TIM_ICSelection: specifies the input to be used.
2693:../Libraries/StdPeripheralDriver/src/stm32f10x_tim.c ****   *   This parameter can be one of the following values:
2694:../Libraries/StdPeripheralDriver/src/stm32f10x_tim.c ****   *     @arg TIM_ICSelection_DirectTI: TIM Input 1 is selected to be connected to IC1.
2695:../Libraries/StdPeripheralDriver/src/stm32f10x_tim.c ****   *     @arg TIM_ICSelection_IndirectTI: TIM Input 1 is selected to be connected to IC2.
2696:../Libraries/StdPeripheralDriver/src/stm32f10x_tim.c ****   *     @arg TIM_ICSelection_TRC: TIM Input 1 is selected to be connected to TRC.
2697:../Libraries/StdPeripheralDriver/src/stm32f10x_tim.c ****   * @param  TIM_ICFilter: Specifies the Input Capture Filter.
2698:../Libraries/StdPeripheralDriver/src/stm32f10x_tim.c ****   *   This parameter must be a value between 0x00 and 0x0F.
2699:../Libraries/StdPeripheralDriver/src/stm32f10x_tim.c ****   * @retval None
2700:../Libraries/StdPeripheralDriver/src/stm32f10x_tim.c ****   */
2701:../Libraries/StdPeripheralDriver/src/stm32f10x_tim.c **** static void TI1_Config(TIM_TypeDef* TIMx, uint16_t TIM_ICPolarity, uint16_t TIM_ICSelection,
2702:../Libraries/StdPeripheralDriver/src/stm32f10x_tim.c ****                        uint16_t TIM_ICFilter)
2703:../Libraries/StdPeripheralDriver/src/stm32f10x_tim.c **** {
 5475              		.loc 1 2703 0
 5476              		.cfi_startproc
 5477              		@ args = 0, pretend = 0, frame = 24
 5478              		@ frame_needed = 1, uses_anonymous_args = 0
 5479              		@ link register save eliminated.
 5480 0000 80B4     		push	{r7}
 5481              		.cfi_def_cfa_offset 4
 5482              		.cfi_offset 7, -4
 5483 0002 87B0     		sub	sp, sp, #28
 5484              		.cfi_def_cfa_offset 32
 5485 0004 00AF     		add	r7, sp, #0
 5486              		.cfi_def_cfa_register 7
 5487 0006 F860     		str	r0, [r7, #12]
 5488 0008 7981     		strh	r1, [r7, #10]	@ movhi
 5489 000a 3A81     		strh	r2, [r7, #8]	@ movhi
 5490 000c FB80     		strh	r3, [r7, #6]	@ movhi
2704:../Libraries/StdPeripheralDriver/src/stm32f10x_tim.c ****   uint16_t tmpccmr1 = 0, tmpccer = 0;
 5491              		.loc 1 2704 0
 5492 000e 0023     		movs	r3, #0
 5493 0010 BB82     		strh	r3, [r7, #20]	@ movhi
 5494 0012 0023     		movs	r3, #0
 5495 0014 FB82     		strh	r3, [r7, #22]	@ movhi
2705:../Libraries/StdPeripheralDriver/src/stm32f10x_tim.c ****   /* Disable the Channel 1: Reset the CC1E Bit */
2706:../Libraries/StdPeripheralDriver/src/stm32f10x_tim.c ****   TIMx->CCER &= (uint16_t)~((uint16_t)TIM_CCER_CC1E);
 5496              		.loc 1 2706 0
 5497 0016 FB68     		ldr	r3, [r7, #12]
 5498 0018 1B8C     		ldrh	r3, [r3, #32]	@ movhi
 5499 001a 9BB2     		uxth	r3, r3
 5500 001c 23F00103 		bic	r3, r3, #1
 5501 0020 9AB2     		uxth	r2, r3
 5502 0022 FB68     		ldr	r3, [r7, #12]
 5503 0024 1A84     		strh	r2, [r3, #32]	@ movhi
2707:../Libraries/StdPeripheralDriver/src/stm32f10x_tim.c ****   tmpccmr1 = TIMx->CCMR1;
 5504              		.loc 1 2707 0
 5505 0026 FB68     		ldr	r3, [r7, #12]
 5506 0028 1B8B     		ldrh	r3, [r3, #24]	@ movhi
 5507 002a BB82     		strh	r3, [r7, #20]	@ movhi
2708:../Libraries/StdPeripheralDriver/src/stm32f10x_tim.c ****   tmpccer = TIMx->CCER;
 5508              		.loc 1 2708 0
 5509 002c FB68     		ldr	r3, [r7, #12]
 5510 002e 1B8C     		ldrh	r3, [r3, #32]	@ movhi
 5511 0030 FB82     		strh	r3, [r7, #22]	@ movhi
2709:../Libraries/StdPeripheralDriver/src/stm32f10x_tim.c ****   /* Select the Input and set the filter */
2710:../Libraries/StdPeripheralDriver/src/stm32f10x_tim.c ****   tmpccmr1 &= (uint16_t)(((uint16_t)~((uint16_t)TIM_CCMR1_CC1S)) & ((uint16_t)~((uint16_t)TIM_CCMR1
 5512              		.loc 1 2710 0
 5513 0032 BB8A     		ldrh	r3, [r7, #20]	@ movhi
 5514 0034 23F0F303 		bic	r3, r3, #243
 5515 0038 BB82     		strh	r3, [r7, #20]	@ movhi
2711:../Libraries/StdPeripheralDriver/src/stm32f10x_tim.c ****   tmpccmr1 |= (uint16_t)(TIM_ICSelection | (uint16_t)(TIM_ICFilter << (uint16_t)4));
 5516              		.loc 1 2711 0
 5517 003a FB88     		ldrh	r3, [r7, #6]	@ movhi
 5518 003c 1B01     		lsls	r3, r3, #4
 5519 003e 9AB2     		uxth	r2, r3
 5520 0040 3B89     		ldrh	r3, [r7, #8]	@ movhi
 5521 0042 1343     		orrs	r3, r3, r2
 5522 0044 9AB2     		uxth	r2, r3
 5523 0046 BB8A     		ldrh	r3, [r7, #20]	@ movhi
 5524 0048 1343     		orrs	r3, r3, r2
 5525 004a BB82     		strh	r3, [r7, #20]	@ movhi
2712:../Libraries/StdPeripheralDriver/src/stm32f10x_tim.c ****   
2713:../Libraries/StdPeripheralDriver/src/stm32f10x_tim.c ****   if((TIMx == TIM1) || (TIMx == TIM8) || (TIMx == TIM2) || (TIMx == TIM3) ||
 5526              		.loc 1 2713 0
 5527 004c FA68     		ldr	r2, [r7, #12]
 5528 004e 4FF43053 		mov	r3, #11264
 5529 0052 C4F20103 		movt	r3, 16385
 5530 0056 9A42     		cmp	r2, r3
 5531 0058 1FD0     		beq	.L168
 5532              		.loc 1 2713 0 is_stmt 0 discriminator 1
 5533 005a FA68     		ldr	r2, [r7, #12]
 5534 005c 4FF45053 		mov	r3, #13312
 5535 0060 C4F20103 		movt	r3, 16385
 5536 0064 9A42     		cmp	r2, r3
 5537 0066 18D0     		beq	.L168
 5538 0068 FB68     		ldr	r3, [r7, #12]
 5539 006a B3F1804F 		cmp	r3, #1073741824
 5540 006e 14D0     		beq	.L168
 5541 0070 FA68     		ldr	r2, [r7, #12]
 5542 0072 4FF48063 		mov	r3, #1024
 5543 0076 C4F20003 		movt	r3, 16384
 5544 007a 9A42     		cmp	r2, r3
 5545 007c 0DD0     		beq	.L168
 5546 007e FA68     		ldr	r2, [r7, #12]
 5547 0080 4FF40063 		mov	r3, #2048
 5548 0084 C4F20003 		movt	r3, 16384
 5549 0088 9A42     		cmp	r2, r3
 5550 008a 06D0     		beq	.L168
2714:../Libraries/StdPeripheralDriver/src/stm32f10x_tim.c ****      (TIMx == TIM4) ||(TIMx == TIM5))
 5551              		.loc 1 2714 0 is_stmt 1
 5552 008c FA68     		ldr	r2, [r7, #12]
 5553 008e 4FF44063 		mov	r3, #3072
 5554 0092 C4F20003 		movt	r3, 16384
 5555 0096 9A42     		cmp	r2, r3
 5556 0098 0BD1     		bne	.L169
 5557              	.L168:
2715:../Libraries/StdPeripheralDriver/src/stm32f10x_tim.c ****   {
2716:../Libraries/StdPeripheralDriver/src/stm32f10x_tim.c ****     /* Select the Polarity and set the CC1E Bit */
2717:../Libraries/StdPeripheralDriver/src/stm32f10x_tim.c ****     tmpccer &= (uint16_t)~((uint16_t)(TIM_CCER_CC1P));
 5558              		.loc 1 2717 0
 5559 009a FB8A     		ldrh	r3, [r7, #22]	@ movhi
 5560 009c 23F00203 		bic	r3, r3, #2
 5561 00a0 FB82     		strh	r3, [r7, #22]	@ movhi
2718:../Libraries/StdPeripheralDriver/src/stm32f10x_tim.c ****     tmpccer |= (uint16_t)(TIM_ICPolarity | (uint16_t)TIM_CCER_CC1E);
 5562              		.loc 1 2718 0
 5563 00a2 7A89     		ldrh	r2, [r7, #10]	@ movhi
 5564 00a4 FB8A     		ldrh	r3, [r7, #22]	@ movhi
 5565 00a6 1343     		orrs	r3, r3, r2
 5566 00a8 9BB2     		uxth	r3, r3
 5567 00aa 43F00103 		orr	r3, r3, #1
 5568 00ae FB82     		strh	r3, [r7, #22]	@ movhi
 5569 00b0 0AE0     		b	.L170
 5570              	.L169:
2719:../Libraries/StdPeripheralDriver/src/stm32f10x_tim.c ****   }
2720:../Libraries/StdPeripheralDriver/src/stm32f10x_tim.c ****   else
2721:../Libraries/StdPeripheralDriver/src/stm32f10x_tim.c ****   {
2722:../Libraries/StdPeripheralDriver/src/stm32f10x_tim.c ****     /* Select the Polarity and set the CC1E Bit */
2723:../Libraries/StdPeripheralDriver/src/stm32f10x_tim.c ****     tmpccer &= (uint16_t)~((uint16_t)(TIM_CCER_CC1P | TIM_CCER_CC1NP));
 5571              		.loc 1 2723 0
 5572 00b2 FB8A     		ldrh	r3, [r7, #22]	@ movhi
 5573 00b4 23F00A03 		bic	r3, r3, #10
 5574 00b8 FB82     		strh	r3, [r7, #22]	@ movhi
2724:../Libraries/StdPeripheralDriver/src/stm32f10x_tim.c ****     tmpccer |= (uint16_t)(TIM_ICPolarity | (uint16_t)TIM_CCER_CC1E);
 5575              		.loc 1 2724 0
 5576 00ba 7A89     		ldrh	r2, [r7, #10]	@ movhi
 5577 00bc FB8A     		ldrh	r3, [r7, #22]	@ movhi
 5578 00be 1343     		orrs	r3, r3, r2
 5579 00c0 9BB2     		uxth	r3, r3
 5580 00c2 43F00103 		orr	r3, r3, #1
 5581 00c6 FB82     		strh	r3, [r7, #22]	@ movhi
 5582              	.L170:
2725:../Libraries/StdPeripheralDriver/src/stm32f10x_tim.c ****   }
2726:../Libraries/StdPeripheralDriver/src/stm32f10x_tim.c **** 
2727:../Libraries/StdPeripheralDriver/src/stm32f10x_tim.c ****   /* Write to TIMx CCMR1 and CCER registers */
2728:../Libraries/StdPeripheralDriver/src/stm32f10x_tim.c ****   TIMx->CCMR1 = tmpccmr1;
 5583              		.loc 1 2728 0
 5584 00c8 FB68     		ldr	r3, [r7, #12]
 5585 00ca BA8A     		ldrh	r2, [r7, #20]	@ movhi
 5586 00cc 1A83     		strh	r2, [r3, #24]	@ movhi
2729:../Libraries/StdPeripheralDriver/src/stm32f10x_tim.c ****   TIMx->CCER = tmpccer;
 5587              		.loc 1 2729 0
 5588 00ce FB68     		ldr	r3, [r7, #12]
 5589 00d0 FA8A     		ldrh	r2, [r7, #22]	@ movhi
 5590 00d2 1A84     		strh	r2, [r3, #32]	@ movhi
2730:../Libraries/StdPeripheralDriver/src/stm32f10x_tim.c **** }
 5591              		.loc 1 2730 0
 5592 00d4 1C37     		adds	r7, r7, #28
 5593 00d6 BD46     		mov	sp, r7
 5594              		@ sp needed
 5595 00d8 5DF8047B 		ldr	r7, [sp], #4
 5596 00dc 7047     		bx	lr
 5597              		.cfi_endproc
 5598              	.LFE116:
 5600 00de 00BF     		.section	.text.TI2_Config,"ax",%progbits
 5601              		.align	2
 5602              		.thumb
 5603              		.thumb_func
 5605              	TI2_Config:
 5606              	.LFB117:
2731:../Libraries/StdPeripheralDriver/src/stm32f10x_tim.c **** 
2732:../Libraries/StdPeripheralDriver/src/stm32f10x_tim.c **** /**
2733:../Libraries/StdPeripheralDriver/src/stm32f10x_tim.c ****   * @brief  Configure the TI2 as Input.
2734:../Libraries/StdPeripheralDriver/src/stm32f10x_tim.c ****   * @param  TIMx: where x can be 1, 2, 3, 4, 5, 8, 9, 12 or 15 to select the TIM peripheral.
2735:../Libraries/StdPeripheralDriver/src/stm32f10x_tim.c ****   * @param  TIM_ICPolarity : The Input Polarity.
2736:../Libraries/StdPeripheralDriver/src/stm32f10x_tim.c ****   *   This parameter can be one of the following values:
2737:../Libraries/StdPeripheralDriver/src/stm32f10x_tim.c ****   *     @arg TIM_ICPolarity_Rising
2738:../Libraries/StdPeripheralDriver/src/stm32f10x_tim.c ****   *     @arg TIM_ICPolarity_Falling
2739:../Libraries/StdPeripheralDriver/src/stm32f10x_tim.c ****   * @param  TIM_ICSelection: specifies the input to be used.
2740:../Libraries/StdPeripheralDriver/src/stm32f10x_tim.c ****   *   This parameter can be one of the following values:
2741:../Libraries/StdPeripheralDriver/src/stm32f10x_tim.c ****   *     @arg TIM_ICSelection_DirectTI: TIM Input 2 is selected to be connected to IC2.
2742:../Libraries/StdPeripheralDriver/src/stm32f10x_tim.c ****   *     @arg TIM_ICSelection_IndirectTI: TIM Input 2 is selected to be connected to IC1.
2743:../Libraries/StdPeripheralDriver/src/stm32f10x_tim.c ****   *     @arg TIM_ICSelection_TRC: TIM Input 2 is selected to be connected to TRC.
2744:../Libraries/StdPeripheralDriver/src/stm32f10x_tim.c ****   * @param  TIM_ICFilter: Specifies the Input Capture Filter.
2745:../Libraries/StdPeripheralDriver/src/stm32f10x_tim.c ****   *   This parameter must be a value between 0x00 and 0x0F.
2746:../Libraries/StdPeripheralDriver/src/stm32f10x_tim.c ****   * @retval None
2747:../Libraries/StdPeripheralDriver/src/stm32f10x_tim.c ****   */
2748:../Libraries/StdPeripheralDriver/src/stm32f10x_tim.c **** static void TI2_Config(TIM_TypeDef* TIMx, uint16_t TIM_ICPolarity, uint16_t TIM_ICSelection,
2749:../Libraries/StdPeripheralDriver/src/stm32f10x_tim.c ****                        uint16_t TIM_ICFilter)
2750:../Libraries/StdPeripheralDriver/src/stm32f10x_tim.c **** {
 5607              		.loc 1 2750 0
 5608              		.cfi_startproc
 5609              		@ args = 0, pretend = 0, frame = 24
 5610              		@ frame_needed = 1, uses_anonymous_args = 0
 5611              		@ link register save eliminated.
 5612 0000 80B4     		push	{r7}
 5613              		.cfi_def_cfa_offset 4
 5614              		.cfi_offset 7, -4
 5615 0002 87B0     		sub	sp, sp, #28
 5616              		.cfi_def_cfa_offset 32
 5617 0004 00AF     		add	r7, sp, #0
 5618              		.cfi_def_cfa_register 7
 5619 0006 F860     		str	r0, [r7, #12]
 5620 0008 7981     		strh	r1, [r7, #10]	@ movhi
 5621 000a 3A81     		strh	r2, [r7, #8]	@ movhi
 5622 000c FB80     		strh	r3, [r7, #6]	@ movhi
2751:../Libraries/StdPeripheralDriver/src/stm32f10x_tim.c ****   uint16_t tmpccmr1 = 0, tmpccer = 0, tmp = 0;
 5623              		.loc 1 2751 0
 5624 000e 0023     		movs	r3, #0
 5625 0010 BB82     		strh	r3, [r7, #20]	@ movhi
 5626 0012 0023     		movs	r3, #0
 5627 0014 FB82     		strh	r3, [r7, #22]	@ movhi
 5628 0016 0023     		movs	r3, #0
 5629 0018 7B82     		strh	r3, [r7, #18]	@ movhi
2752:../Libraries/StdPeripheralDriver/src/stm32f10x_tim.c ****   /* Disable the Channel 2: Reset the CC2E Bit */
2753:../Libraries/StdPeripheralDriver/src/stm32f10x_tim.c ****   TIMx->CCER &= (uint16_t)~((uint16_t)TIM_CCER_CC2E);
 5630              		.loc 1 2753 0
 5631 001a FB68     		ldr	r3, [r7, #12]
 5632 001c 1B8C     		ldrh	r3, [r3, #32]	@ movhi
 5633 001e 9BB2     		uxth	r3, r3
 5634 0020 23F01003 		bic	r3, r3, #16
 5635 0024 9AB2     		uxth	r2, r3
 5636 0026 FB68     		ldr	r3, [r7, #12]
 5637 0028 1A84     		strh	r2, [r3, #32]	@ movhi
2754:../Libraries/StdPeripheralDriver/src/stm32f10x_tim.c ****   tmpccmr1 = TIMx->CCMR1;
 5638              		.loc 1 2754 0
 5639 002a FB68     		ldr	r3, [r7, #12]
 5640 002c 1B8B     		ldrh	r3, [r3, #24]	@ movhi
 5641 002e BB82     		strh	r3, [r7, #20]	@ movhi
2755:../Libraries/StdPeripheralDriver/src/stm32f10x_tim.c ****   tmpccer = TIMx->CCER;
 5642              		.loc 1 2755 0
 5643 0030 FB68     		ldr	r3, [r7, #12]
 5644 0032 1B8C     		ldrh	r3, [r3, #32]	@ movhi
 5645 0034 FB82     		strh	r3, [r7, #22]	@ movhi
2756:../Libraries/StdPeripheralDriver/src/stm32f10x_tim.c ****   tmp = (uint16_t)(TIM_ICPolarity << 4);
 5646              		.loc 1 2756 0
 5647 0036 7B89     		ldrh	r3, [r7, #10]	@ movhi
 5648 0038 1B01     		lsls	r3, r3, #4
 5649 003a 7B82     		strh	r3, [r7, #18]	@ movhi
2757:../Libraries/StdPeripheralDriver/src/stm32f10x_tim.c ****   /* Select the Input and set the filter */
2758:../Libraries/StdPeripheralDriver/src/stm32f10x_tim.c ****   tmpccmr1 &= (uint16_t)(((uint16_t)~((uint16_t)TIM_CCMR1_CC2S)) & ((uint16_t)~((uint16_t)TIM_CCMR1
 5650              		.loc 1 2758 0
 5651 003c BB8A     		ldrh	r3, [r7, #20]	@ movhi
 5652 003e 23F44073 		bic	r3, r3, #768
 5653 0042 1B05     		lsls	r3, r3, #20
 5654 0044 1B0D     		lsrs	r3, r3, #20
 5655 0046 BB82     		strh	r3, [r7, #20]	@ movhi
2759:../Libraries/StdPeripheralDriver/src/stm32f10x_tim.c ****   tmpccmr1 |= (uint16_t)(TIM_ICFilter << 12);
 5656              		.loc 1 2759 0
 5657 0048 FB88     		ldrh	r3, [r7, #6]	@ movhi
 5658 004a 1B03     		lsls	r3, r3, #12
 5659 004c 9AB2     		uxth	r2, r3
 5660 004e BB8A     		ldrh	r3, [r7, #20]	@ movhi
 5661 0050 1343     		orrs	r3, r3, r2
 5662 0052 BB82     		strh	r3, [r7, #20]	@ movhi
2760:../Libraries/StdPeripheralDriver/src/stm32f10x_tim.c ****   tmpccmr1 |= (uint16_t)(TIM_ICSelection << 8);
 5663              		.loc 1 2760 0
 5664 0054 3B89     		ldrh	r3, [r7, #8]	@ movhi
 5665 0056 1B02     		lsls	r3, r3, #8
 5666 0058 9AB2     		uxth	r2, r3
 5667 005a BB8A     		ldrh	r3, [r7, #20]	@ movhi
 5668 005c 1343     		orrs	r3, r3, r2
 5669 005e BB82     		strh	r3, [r7, #20]	@ movhi
2761:../Libraries/StdPeripheralDriver/src/stm32f10x_tim.c ****   
2762:../Libraries/StdPeripheralDriver/src/stm32f10x_tim.c ****   if((TIMx == TIM1) || (TIMx == TIM8) || (TIMx == TIM2) || (TIMx == TIM3) ||
 5670              		.loc 1 2762 0
 5671 0060 FA68     		ldr	r2, [r7, #12]
 5672 0062 4FF43053 		mov	r3, #11264
 5673 0066 C4F20103 		movt	r3, 16385
 5674 006a 9A42     		cmp	r2, r3
 5675 006c 1FD0     		beq	.L172
 5676              		.loc 1 2762 0 is_stmt 0 discriminator 1
 5677 006e FA68     		ldr	r2, [r7, #12]
 5678 0070 4FF45053 		mov	r3, #13312
 5679 0074 C4F20103 		movt	r3, 16385
 5680 0078 9A42     		cmp	r2, r3
 5681 007a 18D0     		beq	.L172
 5682 007c FB68     		ldr	r3, [r7, #12]
 5683 007e B3F1804F 		cmp	r3, #1073741824
 5684 0082 14D0     		beq	.L172
 5685 0084 FA68     		ldr	r2, [r7, #12]
 5686 0086 4FF48063 		mov	r3, #1024
 5687 008a C4F20003 		movt	r3, 16384
 5688 008e 9A42     		cmp	r2, r3
 5689 0090 0DD0     		beq	.L172
 5690 0092 FA68     		ldr	r2, [r7, #12]
 5691 0094 4FF40063 		mov	r3, #2048
 5692 0098 C4F20003 		movt	r3, 16384
 5693 009c 9A42     		cmp	r2, r3
 5694 009e 06D0     		beq	.L172
2763:../Libraries/StdPeripheralDriver/src/stm32f10x_tim.c ****      (TIMx == TIM4) ||(TIMx == TIM5))
 5695              		.loc 1 2763 0 is_stmt 1
 5696 00a0 FA68     		ldr	r2, [r7, #12]
 5697 00a2 4FF44063 		mov	r3, #3072
 5698 00a6 C4F20003 		movt	r3, 16384
 5699 00aa 9A42     		cmp	r2, r3
 5700 00ac 0BD1     		bne	.L173
 5701              	.L172:
2764:../Libraries/StdPeripheralDriver/src/stm32f10x_tim.c ****   {
2765:../Libraries/StdPeripheralDriver/src/stm32f10x_tim.c ****     /* Select the Polarity and set the CC2E Bit */
2766:../Libraries/StdPeripheralDriver/src/stm32f10x_tim.c ****     tmpccer &= (uint16_t)~((uint16_t)(TIM_CCER_CC2P));
 5702              		.loc 1 2766 0
 5703 00ae FB8A     		ldrh	r3, [r7, #22]	@ movhi
 5704 00b0 23F02003 		bic	r3, r3, #32
 5705 00b4 FB82     		strh	r3, [r7, #22]	@ movhi
2767:../Libraries/StdPeripheralDriver/src/stm32f10x_tim.c ****     tmpccer |=  (uint16_t)(tmp | (uint16_t)TIM_CCER_CC2E);
 5706              		.loc 1 2767 0
 5707 00b6 7A8A     		ldrh	r2, [r7, #18]	@ movhi
 5708 00b8 FB8A     		ldrh	r3, [r7, #22]	@ movhi
 5709 00ba 1343     		orrs	r3, r3, r2
 5710 00bc 9BB2     		uxth	r3, r3
 5711 00be 43F01003 		orr	r3, r3, #16
 5712 00c2 FB82     		strh	r3, [r7, #22]	@ movhi
 5713 00c4 0AE0     		b	.L174
 5714              	.L173:
2768:../Libraries/StdPeripheralDriver/src/stm32f10x_tim.c ****   }
2769:../Libraries/StdPeripheralDriver/src/stm32f10x_tim.c ****   else
2770:../Libraries/StdPeripheralDriver/src/stm32f10x_tim.c ****   {
2771:../Libraries/StdPeripheralDriver/src/stm32f10x_tim.c ****     /* Select the Polarity and set the CC2E Bit */
2772:../Libraries/StdPeripheralDriver/src/stm32f10x_tim.c ****     tmpccer &= (uint16_t)~((uint16_t)(TIM_CCER_CC2P | TIM_CCER_CC2NP));
 5715              		.loc 1 2772 0
 5716 00c6 FB8A     		ldrh	r3, [r7, #22]	@ movhi
 5717 00c8 23F0A003 		bic	r3, r3, #160
 5718 00cc FB82     		strh	r3, [r7, #22]	@ movhi
2773:../Libraries/StdPeripheralDriver/src/stm32f10x_tim.c ****     tmpccer |= (uint16_t)(TIM_ICPolarity | (uint16_t)TIM_CCER_CC2E);
 5719              		.loc 1 2773 0
 5720 00ce 7A89     		ldrh	r2, [r7, #10]	@ movhi
 5721 00d0 FB8A     		ldrh	r3, [r7, #22]	@ movhi
 5722 00d2 1343     		orrs	r3, r3, r2
 5723 00d4 9BB2     		uxth	r3, r3
 5724 00d6 43F01003 		orr	r3, r3, #16
 5725 00da FB82     		strh	r3, [r7, #22]	@ movhi
 5726              	.L174:
2774:../Libraries/StdPeripheralDriver/src/stm32f10x_tim.c ****   }
2775:../Libraries/StdPeripheralDriver/src/stm32f10x_tim.c ****   
2776:../Libraries/StdPeripheralDriver/src/stm32f10x_tim.c ****   /* Write to TIMx CCMR1 and CCER registers */
2777:../Libraries/StdPeripheralDriver/src/stm32f10x_tim.c ****   TIMx->CCMR1 = tmpccmr1 ;
 5727              		.loc 1 2777 0
 5728 00dc FB68     		ldr	r3, [r7, #12]
 5729 00de BA8A     		ldrh	r2, [r7, #20]	@ movhi
 5730 00e0 1A83     		strh	r2, [r3, #24]	@ movhi
2778:../Libraries/StdPeripheralDriver/src/stm32f10x_tim.c ****   TIMx->CCER = tmpccer;
 5731              		.loc 1 2778 0
 5732 00e2 FB68     		ldr	r3, [r7, #12]
 5733 00e4 FA8A     		ldrh	r2, [r7, #22]	@ movhi
 5734 00e6 1A84     		strh	r2, [r3, #32]	@ movhi
2779:../Libraries/StdPeripheralDriver/src/stm32f10x_tim.c **** }
 5735              		.loc 1 2779 0
 5736 00e8 1C37     		adds	r7, r7, #28
 5737 00ea BD46     		mov	sp, r7
 5738              		@ sp needed
 5739 00ec 5DF8047B 		ldr	r7, [sp], #4
 5740 00f0 7047     		bx	lr
 5741              		.cfi_endproc
 5742              	.LFE117:
 5744 00f2 00BF     		.section	.text.TI3_Config,"ax",%progbits
 5745              		.align	2
 5746              		.thumb
 5747              		.thumb_func
 5749              	TI3_Config:
 5750              	.LFB118:
2780:../Libraries/StdPeripheralDriver/src/stm32f10x_tim.c **** 
2781:../Libraries/StdPeripheralDriver/src/stm32f10x_tim.c **** /**
2782:../Libraries/StdPeripheralDriver/src/stm32f10x_tim.c ****   * @brief  Configure the TI3 as Input.
2783:../Libraries/StdPeripheralDriver/src/stm32f10x_tim.c ****   * @param  TIMx: where x can be 1, 2, 3, 4, 5 or 8 to select the TIM peripheral.
2784:../Libraries/StdPeripheralDriver/src/stm32f10x_tim.c ****   * @param  TIM_ICPolarity : The Input Polarity.
2785:../Libraries/StdPeripheralDriver/src/stm32f10x_tim.c ****   *   This parameter can be one of the following values:
2786:../Libraries/StdPeripheralDriver/src/stm32f10x_tim.c ****   *     @arg TIM_ICPolarity_Rising
2787:../Libraries/StdPeripheralDriver/src/stm32f10x_tim.c ****   *     @arg TIM_ICPolarity_Falling
2788:../Libraries/StdPeripheralDriver/src/stm32f10x_tim.c ****   * @param  TIM_ICSelection: specifies the input to be used.
2789:../Libraries/StdPeripheralDriver/src/stm32f10x_tim.c ****   *   This parameter can be one of the following values:
2790:../Libraries/StdPeripheralDriver/src/stm32f10x_tim.c ****   *     @arg TIM_ICSelection_DirectTI: TIM Input 3 is selected to be connected to IC3.
2791:../Libraries/StdPeripheralDriver/src/stm32f10x_tim.c ****   *     @arg TIM_ICSelection_IndirectTI: TIM Input 3 is selected to be connected to IC4.
2792:../Libraries/StdPeripheralDriver/src/stm32f10x_tim.c ****   *     @arg TIM_ICSelection_TRC: TIM Input 3 is selected to be connected to TRC.
2793:../Libraries/StdPeripheralDriver/src/stm32f10x_tim.c ****   * @param  TIM_ICFilter: Specifies the Input Capture Filter.
2794:../Libraries/StdPeripheralDriver/src/stm32f10x_tim.c ****   *   This parameter must be a value between 0x00 and 0x0F.
2795:../Libraries/StdPeripheralDriver/src/stm32f10x_tim.c ****   * @retval None
2796:../Libraries/StdPeripheralDriver/src/stm32f10x_tim.c ****   */
2797:../Libraries/StdPeripheralDriver/src/stm32f10x_tim.c **** static void TI3_Config(TIM_TypeDef* TIMx, uint16_t TIM_ICPolarity, uint16_t TIM_ICSelection,
2798:../Libraries/StdPeripheralDriver/src/stm32f10x_tim.c ****                        uint16_t TIM_ICFilter)
2799:../Libraries/StdPeripheralDriver/src/stm32f10x_tim.c **** {
 5751              		.loc 1 2799 0
 5752              		.cfi_startproc
 5753              		@ args = 0, pretend = 0, frame = 24
 5754              		@ frame_needed = 1, uses_anonymous_args = 0
 5755              		@ link register save eliminated.
 5756 0000 80B4     		push	{r7}
 5757              		.cfi_def_cfa_offset 4
 5758              		.cfi_offset 7, -4
 5759 0002 87B0     		sub	sp, sp, #28
 5760              		.cfi_def_cfa_offset 32
 5761 0004 00AF     		add	r7, sp, #0
 5762              		.cfi_def_cfa_register 7
 5763 0006 F860     		str	r0, [r7, #12]
 5764 0008 7981     		strh	r1, [r7, #10]	@ movhi
 5765 000a 3A81     		strh	r2, [r7, #8]	@ movhi
 5766 000c FB80     		strh	r3, [r7, #6]	@ movhi
2800:../Libraries/StdPeripheralDriver/src/stm32f10x_tim.c ****   uint16_t tmpccmr2 = 0, tmpccer = 0, tmp = 0;
 5767              		.loc 1 2800 0
 5768 000e 0023     		movs	r3, #0
 5769 0010 BB82     		strh	r3, [r7, #20]	@ movhi
 5770 0012 0023     		movs	r3, #0
 5771 0014 FB82     		strh	r3, [r7, #22]	@ movhi
 5772 0016 0023     		movs	r3, #0
 5773 0018 7B82     		strh	r3, [r7, #18]	@ movhi
2801:../Libraries/StdPeripheralDriver/src/stm32f10x_tim.c ****   /* Disable the Channel 3: Reset the CC3E Bit */
2802:../Libraries/StdPeripheralDriver/src/stm32f10x_tim.c ****   TIMx->CCER &= (uint16_t)~((uint16_t)TIM_CCER_CC3E);
 5774              		.loc 1 2802 0
 5775 001a FB68     		ldr	r3, [r7, #12]
 5776 001c 1B8C     		ldrh	r3, [r3, #32]	@ movhi
 5777 001e 9BB2     		uxth	r3, r3
 5778 0020 23F48073 		bic	r3, r3, #256
 5779 0024 9AB2     		uxth	r2, r3
 5780 0026 FB68     		ldr	r3, [r7, #12]
 5781 0028 1A84     		strh	r2, [r3, #32]	@ movhi
2803:../Libraries/StdPeripheralDriver/src/stm32f10x_tim.c ****   tmpccmr2 = TIMx->CCMR2;
 5782              		.loc 1 2803 0
 5783 002a FB68     		ldr	r3, [r7, #12]
 5784 002c 9B8B     		ldrh	r3, [r3, #28]	@ movhi
 5785 002e BB82     		strh	r3, [r7, #20]	@ movhi
2804:../Libraries/StdPeripheralDriver/src/stm32f10x_tim.c ****   tmpccer = TIMx->CCER;
 5786              		.loc 1 2804 0
 5787 0030 FB68     		ldr	r3, [r7, #12]
 5788 0032 1B8C     		ldrh	r3, [r3, #32]	@ movhi
 5789 0034 FB82     		strh	r3, [r7, #22]	@ movhi
2805:../Libraries/StdPeripheralDriver/src/stm32f10x_tim.c ****   tmp = (uint16_t)(TIM_ICPolarity << 8);
 5790              		.loc 1 2805 0
 5791 0036 7B89     		ldrh	r3, [r7, #10]	@ movhi
 5792 0038 1B02     		lsls	r3, r3, #8
 5793 003a 7B82     		strh	r3, [r7, #18]	@ movhi
2806:../Libraries/StdPeripheralDriver/src/stm32f10x_tim.c ****   /* Select the Input and set the filter */
2807:../Libraries/StdPeripheralDriver/src/stm32f10x_tim.c ****   tmpccmr2 &= (uint16_t)(((uint16_t)~((uint16_t)TIM_CCMR2_CC3S)) & ((uint16_t)~((uint16_t)TIM_CCMR2
 5794              		.loc 1 2807 0
 5795 003c BB8A     		ldrh	r3, [r7, #20]	@ movhi
 5796 003e 23F0F303 		bic	r3, r3, #243
 5797 0042 BB82     		strh	r3, [r7, #20]	@ movhi
2808:../Libraries/StdPeripheralDriver/src/stm32f10x_tim.c ****   tmpccmr2 |= (uint16_t)(TIM_ICSelection | (uint16_t)(TIM_ICFilter << (uint16_t)4));
 5798              		.loc 1 2808 0
 5799 0044 FB88     		ldrh	r3, [r7, #6]	@ movhi
 5800 0046 1B01     		lsls	r3, r3, #4
 5801 0048 9AB2     		uxth	r2, r3
 5802 004a 3B89     		ldrh	r3, [r7, #8]	@ movhi
 5803 004c 1343     		orrs	r3, r3, r2
 5804 004e 9AB2     		uxth	r2, r3
 5805 0050 BB8A     		ldrh	r3, [r7, #20]	@ movhi
 5806 0052 1343     		orrs	r3, r3, r2
 5807 0054 BB82     		strh	r3, [r7, #20]	@ movhi
2809:../Libraries/StdPeripheralDriver/src/stm32f10x_tim.c ****     
2810:../Libraries/StdPeripheralDriver/src/stm32f10x_tim.c ****   if((TIMx == TIM1) || (TIMx == TIM8) || (TIMx == TIM2) || (TIMx == TIM3) ||
 5808              		.loc 1 2810 0
 5809 0056 FA68     		ldr	r2, [r7, #12]
 5810 0058 4FF43053 		mov	r3, #11264
 5811 005c C4F20103 		movt	r3, 16385
 5812 0060 9A42     		cmp	r2, r3
 5813 0062 1FD0     		beq	.L176
 5814              		.loc 1 2810 0 is_stmt 0 discriminator 1
 5815 0064 FA68     		ldr	r2, [r7, #12]
 5816 0066 4FF45053 		mov	r3, #13312
 5817 006a C4F20103 		movt	r3, 16385
 5818 006e 9A42     		cmp	r2, r3
 5819 0070 18D0     		beq	.L176
 5820 0072 FB68     		ldr	r3, [r7, #12]
 5821 0074 B3F1804F 		cmp	r3, #1073741824
 5822 0078 14D0     		beq	.L176
 5823 007a FA68     		ldr	r2, [r7, #12]
 5824 007c 4FF48063 		mov	r3, #1024
 5825 0080 C4F20003 		movt	r3, 16384
 5826 0084 9A42     		cmp	r2, r3
 5827 0086 0DD0     		beq	.L176
 5828 0088 FA68     		ldr	r2, [r7, #12]
 5829 008a 4FF40063 		mov	r3, #2048
 5830 008e C4F20003 		movt	r3, 16384
 5831 0092 9A42     		cmp	r2, r3
 5832 0094 06D0     		beq	.L176
2811:../Libraries/StdPeripheralDriver/src/stm32f10x_tim.c ****      (TIMx == TIM4) ||(TIMx == TIM5))
 5833              		.loc 1 2811 0 is_stmt 1
 5834 0096 FA68     		ldr	r2, [r7, #12]
 5835 0098 4FF44063 		mov	r3, #3072
 5836 009c C4F20003 		movt	r3, 16384
 5837 00a0 9A42     		cmp	r2, r3
 5838 00a2 0BD1     		bne	.L177
 5839              	.L176:
2812:../Libraries/StdPeripheralDriver/src/stm32f10x_tim.c ****   {
2813:../Libraries/StdPeripheralDriver/src/stm32f10x_tim.c ****     /* Select the Polarity and set the CC3E Bit */
2814:../Libraries/StdPeripheralDriver/src/stm32f10x_tim.c ****     tmpccer &= (uint16_t)~((uint16_t)(TIM_CCER_CC3P));
 5840              		.loc 1 2814 0
 5841 00a4 FB8A     		ldrh	r3, [r7, #22]	@ movhi
 5842 00a6 23F40073 		bic	r3, r3, #512
 5843 00aa FB82     		strh	r3, [r7, #22]	@ movhi
2815:../Libraries/StdPeripheralDriver/src/stm32f10x_tim.c ****     tmpccer |= (uint16_t)(tmp | (uint16_t)TIM_CCER_CC3E);
 5844              		.loc 1 2815 0
 5845 00ac 7A8A     		ldrh	r2, [r7, #18]	@ movhi
 5846 00ae FB8A     		ldrh	r3, [r7, #22]	@ movhi
 5847 00b0 1343     		orrs	r3, r3, r2
 5848 00b2 9BB2     		uxth	r3, r3
 5849 00b4 43F48073 		orr	r3, r3, #256
 5850 00b8 FB82     		strh	r3, [r7, #22]	@ movhi
 5851 00ba 0AE0     		b	.L178
 5852              	.L177:
2816:../Libraries/StdPeripheralDriver/src/stm32f10x_tim.c ****   }
2817:../Libraries/StdPeripheralDriver/src/stm32f10x_tim.c ****   else
2818:../Libraries/StdPeripheralDriver/src/stm32f10x_tim.c ****   {
2819:../Libraries/StdPeripheralDriver/src/stm32f10x_tim.c ****     /* Select the Polarity and set the CC3E Bit */
2820:../Libraries/StdPeripheralDriver/src/stm32f10x_tim.c ****     tmpccer &= (uint16_t)~((uint16_t)(TIM_CCER_CC3P | TIM_CCER_CC3NP));
 5853              		.loc 1 2820 0
 5854 00bc FB8A     		ldrh	r3, [r7, #22]	@ movhi
 5855 00be 23F42063 		bic	r3, r3, #2560
 5856 00c2 FB82     		strh	r3, [r7, #22]	@ movhi
2821:../Libraries/StdPeripheralDriver/src/stm32f10x_tim.c ****     tmpccer |= (uint16_t)(TIM_ICPolarity | (uint16_t)TIM_CCER_CC3E);
 5857              		.loc 1 2821 0
 5858 00c4 7A89     		ldrh	r2, [r7, #10]	@ movhi
 5859 00c6 FB8A     		ldrh	r3, [r7, #22]	@ movhi
 5860 00c8 1343     		orrs	r3, r3, r2
 5861 00ca 9BB2     		uxth	r3, r3
 5862 00cc 43F48073 		orr	r3, r3, #256
 5863 00d0 FB82     		strh	r3, [r7, #22]	@ movhi
 5864              	.L178:
2822:../Libraries/StdPeripheralDriver/src/stm32f10x_tim.c ****   }
2823:../Libraries/StdPeripheralDriver/src/stm32f10x_tim.c ****   
2824:../Libraries/StdPeripheralDriver/src/stm32f10x_tim.c ****   /* Write to TIMx CCMR2 and CCER registers */
2825:../Libraries/StdPeripheralDriver/src/stm32f10x_tim.c ****   TIMx->CCMR2 = tmpccmr2;
 5865              		.loc 1 2825 0
 5866 00d2 FB68     		ldr	r3, [r7, #12]
 5867 00d4 BA8A     		ldrh	r2, [r7, #20]	@ movhi
 5868 00d6 9A83     		strh	r2, [r3, #28]	@ movhi
2826:../Libraries/StdPeripheralDriver/src/stm32f10x_tim.c ****   TIMx->CCER = tmpccer;
 5869              		.loc 1 2826 0
 5870 00d8 FB68     		ldr	r3, [r7, #12]
 5871 00da FA8A     		ldrh	r2, [r7, #22]	@ movhi
 5872 00dc 1A84     		strh	r2, [r3, #32]	@ movhi
2827:../Libraries/StdPeripheralDriver/src/stm32f10x_tim.c **** }
 5873              		.loc 1 2827 0
 5874 00de 1C37     		adds	r7, r7, #28
 5875 00e0 BD46     		mov	sp, r7
 5876              		@ sp needed
 5877 00e2 5DF8047B 		ldr	r7, [sp], #4
 5878 00e6 7047     		bx	lr
 5879              		.cfi_endproc
 5880              	.LFE118:
 5882              		.section	.text.TI4_Config,"ax",%progbits
 5883              		.align	2
 5884              		.thumb
 5885              		.thumb_func
 5887              	TI4_Config:
 5888              	.LFB119:
2828:../Libraries/StdPeripheralDriver/src/stm32f10x_tim.c **** 
2829:../Libraries/StdPeripheralDriver/src/stm32f10x_tim.c **** /**
2830:../Libraries/StdPeripheralDriver/src/stm32f10x_tim.c ****   * @brief  Configure the TI4 as Input.
2831:../Libraries/StdPeripheralDriver/src/stm32f10x_tim.c ****   * @param  TIMx: where x can be 1, 2, 3, 4, 5 or 8 to select the TIM peripheral.
2832:../Libraries/StdPeripheralDriver/src/stm32f10x_tim.c ****   * @param  TIM_ICPolarity : The Input Polarity.
2833:../Libraries/StdPeripheralDriver/src/stm32f10x_tim.c ****   *   This parameter can be one of the following values:
2834:../Libraries/StdPeripheralDriver/src/stm32f10x_tim.c ****   *     @arg TIM_ICPolarity_Rising
2835:../Libraries/StdPeripheralDriver/src/stm32f10x_tim.c ****   *     @arg TIM_ICPolarity_Falling
2836:../Libraries/StdPeripheralDriver/src/stm32f10x_tim.c ****   * @param  TIM_ICSelection: specifies the input to be used.
2837:../Libraries/StdPeripheralDriver/src/stm32f10x_tim.c ****   *   This parameter can be one of the following values:
2838:../Libraries/StdPeripheralDriver/src/stm32f10x_tim.c ****   *     @arg TIM_ICSelection_DirectTI: TIM Input 4 is selected to be connected to IC4.
2839:../Libraries/StdPeripheralDriver/src/stm32f10x_tim.c ****   *     @arg TIM_ICSelection_IndirectTI: TIM Input 4 is selected to be connected to IC3.
2840:../Libraries/StdPeripheralDriver/src/stm32f10x_tim.c ****   *     @arg TIM_ICSelection_TRC: TIM Input 4 is selected to be connected to TRC.
2841:../Libraries/StdPeripheralDriver/src/stm32f10x_tim.c ****   * @param  TIM_ICFilter: Specifies the Input Capture Filter.
2842:../Libraries/StdPeripheralDriver/src/stm32f10x_tim.c ****   *   This parameter must be a value between 0x00 and 0x0F.
2843:../Libraries/StdPeripheralDriver/src/stm32f10x_tim.c ****   * @retval None
2844:../Libraries/StdPeripheralDriver/src/stm32f10x_tim.c ****   */
2845:../Libraries/StdPeripheralDriver/src/stm32f10x_tim.c **** static void TI4_Config(TIM_TypeDef* TIMx, uint16_t TIM_ICPolarity, uint16_t TIM_ICSelection,
2846:../Libraries/StdPeripheralDriver/src/stm32f10x_tim.c ****                        uint16_t TIM_ICFilter)
2847:../Libraries/StdPeripheralDriver/src/stm32f10x_tim.c **** {
 5889              		.loc 1 2847 0
 5890              		.cfi_startproc
 5891              		@ args = 0, pretend = 0, frame = 24
 5892              		@ frame_needed = 1, uses_anonymous_args = 0
 5893              		@ link register save eliminated.
 5894 0000 80B4     		push	{r7}
 5895              		.cfi_def_cfa_offset 4
 5896              		.cfi_offset 7, -4
 5897 0002 87B0     		sub	sp, sp, #28
 5898              		.cfi_def_cfa_offset 32
 5899 0004 00AF     		add	r7, sp, #0
 5900              		.cfi_def_cfa_register 7
 5901 0006 F860     		str	r0, [r7, #12]
 5902 0008 7981     		strh	r1, [r7, #10]	@ movhi
 5903 000a 3A81     		strh	r2, [r7, #8]	@ movhi
 5904 000c FB80     		strh	r3, [r7, #6]	@ movhi
2848:../Libraries/StdPeripheralDriver/src/stm32f10x_tim.c ****   uint16_t tmpccmr2 = 0, tmpccer = 0, tmp = 0;
 5905              		.loc 1 2848 0
 5906 000e 0023     		movs	r3, #0
 5907 0010 BB82     		strh	r3, [r7, #20]	@ movhi
 5908 0012 0023     		movs	r3, #0
 5909 0014 FB82     		strh	r3, [r7, #22]	@ movhi
 5910 0016 0023     		movs	r3, #0
 5911 0018 7B82     		strh	r3, [r7, #18]	@ movhi
2849:../Libraries/StdPeripheralDriver/src/stm32f10x_tim.c **** 
2850:../Libraries/StdPeripheralDriver/src/stm32f10x_tim.c ****    /* Disable the Channel 4: Reset the CC4E Bit */
2851:../Libraries/StdPeripheralDriver/src/stm32f10x_tim.c ****   TIMx->CCER &= (uint16_t)~((uint16_t)TIM_CCER_CC4E);
 5912              		.loc 1 2851 0
 5913 001a FB68     		ldr	r3, [r7, #12]
 5914 001c 1B8C     		ldrh	r3, [r3, #32]	@ movhi
 5915 001e 9BB2     		uxth	r3, r3
 5916 0020 23F48053 		bic	r3, r3, #4096
 5917 0024 9AB2     		uxth	r2, r3
 5918 0026 FB68     		ldr	r3, [r7, #12]
 5919 0028 1A84     		strh	r2, [r3, #32]	@ movhi
2852:../Libraries/StdPeripheralDriver/src/stm32f10x_tim.c ****   tmpccmr2 = TIMx->CCMR2;
 5920              		.loc 1 2852 0
 5921 002a FB68     		ldr	r3, [r7, #12]
 5922 002c 9B8B     		ldrh	r3, [r3, #28]	@ movhi
 5923 002e BB82     		strh	r3, [r7, #20]	@ movhi
2853:../Libraries/StdPeripheralDriver/src/stm32f10x_tim.c ****   tmpccer = TIMx->CCER;
 5924              		.loc 1 2853 0
 5925 0030 FB68     		ldr	r3, [r7, #12]
 5926 0032 1B8C     		ldrh	r3, [r3, #32]	@ movhi
 5927 0034 FB82     		strh	r3, [r7, #22]	@ movhi
2854:../Libraries/StdPeripheralDriver/src/stm32f10x_tim.c ****   tmp = (uint16_t)(TIM_ICPolarity << 12);
 5928              		.loc 1 2854 0
 5929 0036 7B89     		ldrh	r3, [r7, #10]	@ movhi
 5930 0038 1B03     		lsls	r3, r3, #12
 5931 003a 7B82     		strh	r3, [r7, #18]	@ movhi
2855:../Libraries/StdPeripheralDriver/src/stm32f10x_tim.c ****   /* Select the Input and set the filter */
2856:../Libraries/StdPeripheralDriver/src/stm32f10x_tim.c ****   tmpccmr2 &= (uint16_t)((uint16_t)(~(uint16_t)TIM_CCMR2_CC4S) & ((uint16_t)~((uint16_t)TIM_CCMR2_I
 5932              		.loc 1 2856 0
 5933 003c BB8A     		ldrh	r3, [r7, #20]	@ movhi
 5934 003e 23F44073 		bic	r3, r3, #768
 5935 0042 1B05     		lsls	r3, r3, #20
 5936 0044 1B0D     		lsrs	r3, r3, #20
 5937 0046 BB82     		strh	r3, [r7, #20]	@ movhi
2857:../Libraries/StdPeripheralDriver/src/stm32f10x_tim.c ****   tmpccmr2 |= (uint16_t)(TIM_ICSelection << 8);
 5938              		.loc 1 2857 0
 5939 0048 3B89     		ldrh	r3, [r7, #8]	@ movhi
 5940 004a 1B02     		lsls	r3, r3, #8
 5941 004c 9AB2     		uxth	r2, r3
 5942 004e BB8A     		ldrh	r3, [r7, #20]	@ movhi
 5943 0050 1343     		orrs	r3, r3, r2
 5944 0052 BB82     		strh	r3, [r7, #20]	@ movhi
2858:../Libraries/StdPeripheralDriver/src/stm32f10x_tim.c ****   tmpccmr2 |= (uint16_t)(TIM_ICFilter << 12);
 5945              		.loc 1 2858 0
 5946 0054 FB88     		ldrh	r3, [r7, #6]	@ movhi
 5947 0056 1B03     		lsls	r3, r3, #12
 5948 0058 9AB2     		uxth	r2, r3
 5949 005a BB8A     		ldrh	r3, [r7, #20]	@ movhi
 5950 005c 1343     		orrs	r3, r3, r2
 5951 005e BB82     		strh	r3, [r7, #20]	@ movhi
2859:../Libraries/StdPeripheralDriver/src/stm32f10x_tim.c ****   
2860:../Libraries/StdPeripheralDriver/src/stm32f10x_tim.c ****   if((TIMx == TIM1) || (TIMx == TIM8) || (TIMx == TIM2) || (TIMx == TIM3) ||
 5952              		.loc 1 2860 0
 5953 0060 FA68     		ldr	r2, [r7, #12]
 5954 0062 4FF43053 		mov	r3, #11264
 5955 0066 C4F20103 		movt	r3, 16385
 5956 006a 9A42     		cmp	r2, r3
 5957 006c 1FD0     		beq	.L180
 5958              		.loc 1 2860 0 is_stmt 0 discriminator 1
 5959 006e FA68     		ldr	r2, [r7, #12]
 5960 0070 4FF45053 		mov	r3, #13312
 5961 0074 C4F20103 		movt	r3, 16385
 5962 0078 9A42     		cmp	r2, r3
 5963 007a 18D0     		beq	.L180
 5964 007c FB68     		ldr	r3, [r7, #12]
 5965 007e B3F1804F 		cmp	r3, #1073741824
 5966 0082 14D0     		beq	.L180
 5967 0084 FA68     		ldr	r2, [r7, #12]
 5968 0086 4FF48063 		mov	r3, #1024
 5969 008a C4F20003 		movt	r3, 16384
 5970 008e 9A42     		cmp	r2, r3
 5971 0090 0DD0     		beq	.L180
 5972 0092 FA68     		ldr	r2, [r7, #12]
 5973 0094 4FF40063 		mov	r3, #2048
 5974 0098 C4F20003 		movt	r3, 16384
 5975 009c 9A42     		cmp	r2, r3
 5976 009e 06D0     		beq	.L180
2861:../Libraries/StdPeripheralDriver/src/stm32f10x_tim.c ****      (TIMx == TIM4) ||(TIMx == TIM5))
 5977              		.loc 1 2861 0 is_stmt 1
 5978 00a0 FA68     		ldr	r2, [r7, #12]
 5979 00a2 4FF44063 		mov	r3, #3072
 5980 00a6 C4F20003 		movt	r3, 16384
 5981 00aa 9A42     		cmp	r2, r3
 5982 00ac 0BD1     		bne	.L181
 5983              	.L180:
2862:../Libraries/StdPeripheralDriver/src/stm32f10x_tim.c ****   {
2863:../Libraries/StdPeripheralDriver/src/stm32f10x_tim.c ****     /* Select the Polarity and set the CC4E Bit */
2864:../Libraries/StdPeripheralDriver/src/stm32f10x_tim.c ****     tmpccer &= (uint16_t)~((uint16_t)(TIM_CCER_CC4P));
 5984              		.loc 1 2864 0
 5985 00ae FB8A     		ldrh	r3, [r7, #22]	@ movhi
 5986 00b0 23F40053 		bic	r3, r3, #8192
 5987 00b4 FB82     		strh	r3, [r7, #22]	@ movhi
2865:../Libraries/StdPeripheralDriver/src/stm32f10x_tim.c ****     tmpccer |= (uint16_t)(tmp | (uint16_t)TIM_CCER_CC4E);
 5988              		.loc 1 2865 0
 5989 00b6 7A8A     		ldrh	r2, [r7, #18]	@ movhi
 5990 00b8 FB8A     		ldrh	r3, [r7, #22]	@ movhi
 5991 00ba 1343     		orrs	r3, r3, r2
 5992 00bc 9BB2     		uxth	r3, r3
 5993 00be 43F48053 		orr	r3, r3, #4096
 5994 00c2 FB82     		strh	r3, [r7, #22]	@ movhi
 5995 00c4 0CE0     		b	.L182
 5996              	.L181:
2866:../Libraries/StdPeripheralDriver/src/stm32f10x_tim.c ****   }
2867:../Libraries/StdPeripheralDriver/src/stm32f10x_tim.c ****   else
2868:../Libraries/StdPeripheralDriver/src/stm32f10x_tim.c ****   {
2869:../Libraries/StdPeripheralDriver/src/stm32f10x_tim.c ****     /* Select the Polarity and set the CC4E Bit */
2870:../Libraries/StdPeripheralDriver/src/stm32f10x_tim.c ****     tmpccer &= (uint16_t)~((uint16_t)(TIM_CCER_CC3P | TIM_CCER_CC4NP));
 5997              		.loc 1 2870 0
 5998 00c6 FB8A     		ldrh	r3, [r7, #22]	@ movhi
 5999 00c8 23F40073 		bic	r3, r3, #512
 6000 00cc 5B04     		lsls	r3, r3, #17
 6001 00ce 5B0C     		lsrs	r3, r3, #17
 6002 00d0 FB82     		strh	r3, [r7, #22]	@ movhi
2871:../Libraries/StdPeripheralDriver/src/stm32f10x_tim.c ****     tmpccer |= (uint16_t)(TIM_ICPolarity | (uint16_t)TIM_CCER_CC4E);
 6003              		.loc 1 2871 0
 6004 00d2 7A89     		ldrh	r2, [r7, #10]	@ movhi
 6005 00d4 FB8A     		ldrh	r3, [r7, #22]	@ movhi
 6006 00d6 1343     		orrs	r3, r3, r2
 6007 00d8 9BB2     		uxth	r3, r3
 6008 00da 43F48053 		orr	r3, r3, #4096
 6009 00de FB82     		strh	r3, [r7, #22]	@ movhi
 6010              	.L182:
2872:../Libraries/StdPeripheralDriver/src/stm32f10x_tim.c ****   }
2873:../Libraries/StdPeripheralDriver/src/stm32f10x_tim.c ****   /* Write to TIMx CCMR2 and CCER registers */
2874:../Libraries/StdPeripheralDriver/src/stm32f10x_tim.c ****   TIMx->CCMR2 = tmpccmr2;
 6011              		.loc 1 2874 0
 6012 00e0 FB68     		ldr	r3, [r7, #12]
 6013 00e2 BA8A     		ldrh	r2, [r7, #20]	@ movhi
 6014 00e4 9A83     		strh	r2, [r3, #28]	@ movhi
2875:../Libraries/StdPeripheralDriver/src/stm32f10x_tim.c ****   TIMx->CCER = tmpccer;
 6015              		.loc 1 2875 0
 6016 00e6 FB68     		ldr	r3, [r7, #12]
 6017 00e8 FA8A     		ldrh	r2, [r7, #22]	@ movhi
 6018 00ea 1A84     		strh	r2, [r3, #32]	@ movhi
2876:../Libraries/StdPeripheralDriver/src/stm32f10x_tim.c **** }
 6019              		.loc 1 2876 0
 6020 00ec 1C37     		adds	r7, r7, #28
 6021 00ee BD46     		mov	sp, r7
 6022              		@ sp needed
 6023 00f0 5DF8047B 		ldr	r7, [sp], #4
 6024 00f4 7047     		bx	lr
 6025              		.cfi_endproc
 6026              	.LFE119:
 6028 00f6 00BF     		.text
 6029              	.Letext0:
 6030              		.file 2 "c:\\tools\\arm-none-eabi\\include\\stdint.h"
 6031              		.file 3 "D:\\pall\\workspace\\Snack_stm32_drv_modbus\\Libraries\\CMSIS/stm32f10x.h"
 6032              		.file 4 "D:\\pall\\workspace\\Snack_stm32_drv_modbus\\Libraries\\StdPeripheralDriver\\inc/stm32f10
 6033              		.file 5 "D:\\pall\\workspace\\Snack_stm32_drv_modbus\\Libraries\\CMSIS/core_cm3.h"
DEFINED SYMBOLS
                            *ABS*:00000000 stm32f10x_tim.c
C:\Users\Alex\AppData\Local\Temp\cc3fx8GI.s:19     .text.TIM_DeInit:00000000 $t
C:\Users\Alex\AppData\Local\Temp\cc3fx8GI.s:24     .text.TIM_DeInit:00000000 TIM_DeInit
C:\Users\Alex\AppData\Local\Temp\cc3fx8GI.s:318    .text.TIM_TimeBaseInit:00000000 $t
C:\Users\Alex\AppData\Local\Temp\cc3fx8GI.s:323    .text.TIM_TimeBaseInit:00000000 TIM_TimeBaseInit
C:\Users\Alex\AppData\Local\Temp\cc3fx8GI.s:475    .text.TIM_OC1Init:00000000 $t
C:\Users\Alex\AppData\Local\Temp\cc3fx8GI.s:480    .text.TIM_OC1Init:00000000 TIM_OC1Init
C:\Users\Alex\AppData\Local\Temp\cc3fx8GI.s:650    .text.TIM_OC2Init:00000000 $t
C:\Users\Alex\AppData\Local\Temp\cc3fx8GI.s:655    .text.TIM_OC2Init:00000000 TIM_OC2Init
C:\Users\Alex\AppData\Local\Temp\cc3fx8GI.s:823    .text.TIM_OC3Init:00000000 $t
C:\Users\Alex\AppData\Local\Temp\cc3fx8GI.s:828    .text.TIM_OC3Init:00000000 TIM_OC3Init
C:\Users\Alex\AppData\Local\Temp\cc3fx8GI.s:994    .text.TIM_OC4Init:00000000 $t
C:\Users\Alex\AppData\Local\Temp\cc3fx8GI.s:999    .text.TIM_OC4Init:00000000 TIM_OC4Init
C:\Users\Alex\AppData\Local\Temp\cc3fx8GI.s:1131   .text.TIM_ICInit:00000000 $t
C:\Users\Alex\AppData\Local\Temp\cc3fx8GI.s:1136   .text.TIM_ICInit:00000000 TIM_ICInit
C:\Users\Alex\AppData\Local\Temp\cc3fx8GI.s:5473   .text.TI1_Config:00000000 TI1_Config
C:\Users\Alex\AppData\Local\Temp\cc3fx8GI.s:4809   .text.TIM_SetIC1Prescaler:00000000 TIM_SetIC1Prescaler
C:\Users\Alex\AppData\Local\Temp\cc3fx8GI.s:5605   .text.TI2_Config:00000000 TI2_Config
C:\Users\Alex\AppData\Local\Temp\cc3fx8GI.s:4858   .text.TIM_SetIC2Prescaler:00000000 TIM_SetIC2Prescaler
C:\Users\Alex\AppData\Local\Temp\cc3fx8GI.s:5749   .text.TI3_Config:00000000 TI3_Config
C:\Users\Alex\AppData\Local\Temp\cc3fx8GI.s:4909   .text.TIM_SetIC3Prescaler:00000000 TIM_SetIC3Prescaler
C:\Users\Alex\AppData\Local\Temp\cc3fx8GI.s:5887   .text.TI4_Config:00000000 TI4_Config
C:\Users\Alex\AppData\Local\Temp\cc3fx8GI.s:4958   .text.TIM_SetIC4Prescaler:00000000 TIM_SetIC4Prescaler
C:\Users\Alex\AppData\Local\Temp\cc3fx8GI.s:1243   .text.TIM_PWMIConfig:00000000 $t
C:\Users\Alex\AppData\Local\Temp\cc3fx8GI.s:1248   .text.TIM_PWMIConfig:00000000 TIM_PWMIConfig
C:\Users\Alex\AppData\Local\Temp\cc3fx8GI.s:1371   .text.TIM_BDTRConfig:00000000 $t
C:\Users\Alex\AppData\Local\Temp\cc3fx8GI.s:1376   .text.TIM_BDTRConfig:00000000 TIM_BDTRConfig
C:\Users\Alex\AppData\Local\Temp\cc3fx8GI.s:1441   .text.TIM_TimeBaseStructInit:00000000 $t
C:\Users\Alex\AppData\Local\Temp\cc3fx8GI.s:1446   .text.TIM_TimeBaseStructInit:00000000 TIM_TimeBaseStructInit
C:\Users\Alex\AppData\Local\Temp\cc3fx8GI.s:1491   .text.TIM_OCStructInit:00000000 $t
C:\Users\Alex\AppData\Local\Temp\cc3fx8GI.s:1496   .text.TIM_OCStructInit:00000000 TIM_OCStructInit
C:\Users\Alex\AppData\Local\Temp\cc3fx8GI.s:1553   .text.TIM_ICStructInit:00000000 $t
C:\Users\Alex\AppData\Local\Temp\cc3fx8GI.s:1558   .text.TIM_ICStructInit:00000000 TIM_ICStructInit
C:\Users\Alex\AppData\Local\Temp\cc3fx8GI.s:1603   .text.TIM_BDTRStructInit:00000000 $t
C:\Users\Alex\AppData\Local\Temp\cc3fx8GI.s:1608   .text.TIM_BDTRStructInit:00000000 TIM_BDTRStructInit
C:\Users\Alex\AppData\Local\Temp\cc3fx8GI.s:1661   .text.TIM_Cmd:00000000 $t
C:\Users\Alex\AppData\Local\Temp\cc3fx8GI.s:1666   .text.TIM_Cmd:00000000 TIM_Cmd
C:\Users\Alex\AppData\Local\Temp\cc3fx8GI.s:1716   .text.TIM_CtrlPWMOutputs:00000000 $t
C:\Users\Alex\AppData\Local\Temp\cc3fx8GI.s:1721   .text.TIM_CtrlPWMOutputs:00000000 TIM_CtrlPWMOutputs
C:\Users\Alex\AppData\Local\Temp\cc3fx8GI.s:1772   .text.TIM_ITConfig:00000000 $t
C:\Users\Alex\AppData\Local\Temp\cc3fx8GI.s:1777   .text.TIM_ITConfig:00000000 TIM_ITConfig
C:\Users\Alex\AppData\Local\Temp\cc3fx8GI.s:1833   .text.TIM_GenerateEvent:00000000 $t
C:\Users\Alex\AppData\Local\Temp\cc3fx8GI.s:1838   .text.TIM_GenerateEvent:00000000 TIM_GenerateEvent
C:\Users\Alex\AppData\Local\Temp\cc3fx8GI.s:1869   .text.TIM_DMAConfig:00000000 $t
C:\Users\Alex\AppData\Local\Temp\cc3fx8GI.s:1874   .text.TIM_DMAConfig:00000000 TIM_DMAConfig
C:\Users\Alex\AppData\Local\Temp\cc3fx8GI.s:1910   .text.TIM_DMACmd:00000000 $t
C:\Users\Alex\AppData\Local\Temp\cc3fx8GI.s:1915   .text.TIM_DMACmd:00000000 TIM_DMACmd
C:\Users\Alex\AppData\Local\Temp\cc3fx8GI.s:1971   .text.TIM_InternalClockConfig:00000000 $t
C:\Users\Alex\AppData\Local\Temp\cc3fx8GI.s:1976   .text.TIM_InternalClockConfig:00000000 TIM_InternalClockConfig
C:\Users\Alex\AppData\Local\Temp\cc3fx8GI.s:2009   .text.TIM_ITRxExternalClockConfig:00000000 $t
C:\Users\Alex\AppData\Local\Temp\cc3fx8GI.s:2014   .text.TIM_ITRxExternalClockConfig:00000000 TIM_ITRxExternalClockConfig
C:\Users\Alex\AppData\Local\Temp\cc3fx8GI.s:2390   .text.TIM_SelectInputTrigger:00000000 TIM_SelectInputTrigger
C:\Users\Alex\AppData\Local\Temp\cc3fx8GI.s:2053   .text.TIM_TIxExternalClockConfig:00000000 $t
C:\Users\Alex\AppData\Local\Temp\cc3fx8GI.s:2058   .text.TIM_TIxExternalClockConfig:00000000 TIM_TIxExternalClockConfig
C:\Users\Alex\AppData\Local\Temp\cc3fx8GI.s:2119   .text.TIM_ETRClockMode1Config:00000000 $t
C:\Users\Alex\AppData\Local\Temp\cc3fx8GI.s:2124   .text.TIM_ETRClockMode1Config:00000000 TIM_ETRClockMode1Config
C:\Users\Alex\AppData\Local\Temp\cc3fx8GI.s:2235   .text.TIM_ETRConfig:00000000 TIM_ETRConfig
C:\Users\Alex\AppData\Local\Temp\cc3fx8GI.s:2184   .text.TIM_ETRClockMode2Config:00000000 $t
C:\Users\Alex\AppData\Local\Temp\cc3fx8GI.s:2189   .text.TIM_ETRClockMode2Config:00000000 TIM_ETRClockMode2Config
C:\Users\Alex\AppData\Local\Temp\cc3fx8GI.s:2230   .text.TIM_ETRConfig:00000000 $t
C:\Users\Alex\AppData\Local\Temp\cc3fx8GI.s:2291   .text.TIM_PrescalerConfig:00000000 $t
C:\Users\Alex\AppData\Local\Temp\cc3fx8GI.s:2296   .text.TIM_PrescalerConfig:00000000 TIM_PrescalerConfig
C:\Users\Alex\AppData\Local\Temp\cc3fx8GI.s:2333   .text.TIM_CounterModeConfig:00000000 $t
C:\Users\Alex\AppData\Local\Temp\cc3fx8GI.s:2338   .text.TIM_CounterModeConfig:00000000 TIM_CounterModeConfig
C:\Users\Alex\AppData\Local\Temp\cc3fx8GI.s:2385   .text.TIM_SelectInputTrigger:00000000 $t
C:\Users\Alex\AppData\Local\Temp\cc3fx8GI.s:2437   .text.TIM_EncoderInterfaceConfig:00000000 $t
C:\Users\Alex\AppData\Local\Temp\cc3fx8GI.s:2442   .text.TIM_EncoderInterfaceConfig:00000000 TIM_EncoderInterfaceConfig
C:\Users\Alex\AppData\Local\Temp\cc3fx8GI.s:2536   .text.TIM_ForcedOC1Config:00000000 $t
C:\Users\Alex\AppData\Local\Temp\cc3fx8GI.s:2541   .text.TIM_ForcedOC1Config:00000000 TIM_ForcedOC1Config
C:\Users\Alex\AppData\Local\Temp\cc3fx8GI.s:2588   .text.TIM_ForcedOC2Config:00000000 $t
C:\Users\Alex\AppData\Local\Temp\cc3fx8GI.s:2593   .text.TIM_ForcedOC2Config:00000000 TIM_ForcedOC2Config
C:\Users\Alex\AppData\Local\Temp\cc3fx8GI.s:2642   .text.TIM_ForcedOC3Config:00000000 $t
C:\Users\Alex\AppData\Local\Temp\cc3fx8GI.s:2647   .text.TIM_ForcedOC3Config:00000000 TIM_ForcedOC3Config
C:\Users\Alex\AppData\Local\Temp\cc3fx8GI.s:2694   .text.TIM_ForcedOC4Config:00000000 $t
C:\Users\Alex\AppData\Local\Temp\cc3fx8GI.s:2699   .text.TIM_ForcedOC4Config:00000000 TIM_ForcedOC4Config
C:\Users\Alex\AppData\Local\Temp\cc3fx8GI.s:2748   .text.TIM_ARRPreloadConfig:00000000 $t
C:\Users\Alex\AppData\Local\Temp\cc3fx8GI.s:2753   .text.TIM_ARRPreloadConfig:00000000 TIM_ARRPreloadConfig
C:\Users\Alex\AppData\Local\Temp\cc3fx8GI.s:2803   .text.TIM_SelectCOM:00000000 $t
C:\Users\Alex\AppData\Local\Temp\cc3fx8GI.s:2808   .text.TIM_SelectCOM:00000000 TIM_SelectCOM
C:\Users\Alex\AppData\Local\Temp\cc3fx8GI.s:2858   .text.TIM_SelectCCDMA:00000000 $t
C:\Users\Alex\AppData\Local\Temp\cc3fx8GI.s:2863   .text.TIM_SelectCCDMA:00000000 TIM_SelectCCDMA
C:\Users\Alex\AppData\Local\Temp\cc3fx8GI.s:2913   .text.TIM_CCPreloadControl:00000000 $t
C:\Users\Alex\AppData\Local\Temp\cc3fx8GI.s:2918   .text.TIM_CCPreloadControl:00000000 TIM_CCPreloadControl
C:\Users\Alex\AppData\Local\Temp\cc3fx8GI.s:2968   .text.TIM_OC1PreloadConfig:00000000 $t
C:\Users\Alex\AppData\Local\Temp\cc3fx8GI.s:2973   .text.TIM_OC1PreloadConfig:00000000 TIM_OC1PreloadConfig
C:\Users\Alex\AppData\Local\Temp\cc3fx8GI.s:3020   .text.TIM_OC2PreloadConfig:00000000 $t
C:\Users\Alex\AppData\Local\Temp\cc3fx8GI.s:3025   .text.TIM_OC2PreloadConfig:00000000 TIM_OC2PreloadConfig
C:\Users\Alex\AppData\Local\Temp\cc3fx8GI.s:3074   .text.TIM_OC3PreloadConfig:00000000 $t
C:\Users\Alex\AppData\Local\Temp\cc3fx8GI.s:3079   .text.TIM_OC3PreloadConfig:00000000 TIM_OC3PreloadConfig
C:\Users\Alex\AppData\Local\Temp\cc3fx8GI.s:3126   .text.TIM_OC4PreloadConfig:00000000 $t
C:\Users\Alex\AppData\Local\Temp\cc3fx8GI.s:3131   .text.TIM_OC4PreloadConfig:00000000 TIM_OC4PreloadConfig
C:\Users\Alex\AppData\Local\Temp\cc3fx8GI.s:3180   .text.TIM_OC1FastConfig:00000000 $t
C:\Users\Alex\AppData\Local\Temp\cc3fx8GI.s:3185   .text.TIM_OC1FastConfig:00000000 TIM_OC1FastConfig
C:\Users\Alex\AppData\Local\Temp\cc3fx8GI.s:3232   .text.TIM_OC2FastConfig:00000000 $t
C:\Users\Alex\AppData\Local\Temp\cc3fx8GI.s:3237   .text.TIM_OC2FastConfig:00000000 TIM_OC2FastConfig
C:\Users\Alex\AppData\Local\Temp\cc3fx8GI.s:3286   .text.TIM_OC3FastConfig:00000000 $t
C:\Users\Alex\AppData\Local\Temp\cc3fx8GI.s:3291   .text.TIM_OC3FastConfig:00000000 TIM_OC3FastConfig
C:\Users\Alex\AppData\Local\Temp\cc3fx8GI.s:3338   .text.TIM_OC4FastConfig:00000000 $t
C:\Users\Alex\AppData\Local\Temp\cc3fx8GI.s:3343   .text.TIM_OC4FastConfig:00000000 TIM_OC4FastConfig
C:\Users\Alex\AppData\Local\Temp\cc3fx8GI.s:3392   .text.TIM_ClearOC1Ref:00000000 $t
C:\Users\Alex\AppData\Local\Temp\cc3fx8GI.s:3397   .text.TIM_ClearOC1Ref:00000000 TIM_ClearOC1Ref
C:\Users\Alex\AppData\Local\Temp\cc3fx8GI.s:3444   .text.TIM_ClearOC2Ref:00000000 $t
C:\Users\Alex\AppData\Local\Temp\cc3fx8GI.s:3449   .text.TIM_ClearOC2Ref:00000000 TIM_ClearOC2Ref
C:\Users\Alex\AppData\Local\Temp\cc3fx8GI.s:3498   .text.TIM_ClearOC3Ref:00000000 $t
C:\Users\Alex\AppData\Local\Temp\cc3fx8GI.s:3503   .text.TIM_ClearOC3Ref:00000000 TIM_ClearOC3Ref
C:\Users\Alex\AppData\Local\Temp\cc3fx8GI.s:3550   .text.TIM_ClearOC4Ref:00000000 $t
C:\Users\Alex\AppData\Local\Temp\cc3fx8GI.s:3555   .text.TIM_ClearOC4Ref:00000000 TIM_ClearOC4Ref
C:\Users\Alex\AppData\Local\Temp\cc3fx8GI.s:3604   .text.TIM_OC1PolarityConfig:00000000 $t
C:\Users\Alex\AppData\Local\Temp\cc3fx8GI.s:3609   .text.TIM_OC1PolarityConfig:00000000 TIM_OC1PolarityConfig
C:\Users\Alex\AppData\Local\Temp\cc3fx8GI.s:3656   .text.TIM_OC1NPolarityConfig:00000000 $t
C:\Users\Alex\AppData\Local\Temp\cc3fx8GI.s:3661   .text.TIM_OC1NPolarityConfig:00000000 TIM_OC1NPolarityConfig
C:\Users\Alex\AppData\Local\Temp\cc3fx8GI.s:3708   .text.TIM_OC2PolarityConfig:00000000 $t
C:\Users\Alex\AppData\Local\Temp\cc3fx8GI.s:3713   .text.TIM_OC2PolarityConfig:00000000 TIM_OC2PolarityConfig
C:\Users\Alex\AppData\Local\Temp\cc3fx8GI.s:3762   .text.TIM_OC2NPolarityConfig:00000000 $t
C:\Users\Alex\AppData\Local\Temp\cc3fx8GI.s:3767   .text.TIM_OC2NPolarityConfig:00000000 TIM_OC2NPolarityConfig
C:\Users\Alex\AppData\Local\Temp\cc3fx8GI.s:3816   .text.TIM_OC3PolarityConfig:00000000 $t
C:\Users\Alex\AppData\Local\Temp\cc3fx8GI.s:3821   .text.TIM_OC3PolarityConfig:00000000 TIM_OC3PolarityConfig
C:\Users\Alex\AppData\Local\Temp\cc3fx8GI.s:3870   .text.TIM_OC3NPolarityConfig:00000000 $t
C:\Users\Alex\AppData\Local\Temp\cc3fx8GI.s:3875   .text.TIM_OC3NPolarityConfig:00000000 TIM_OC3NPolarityConfig
C:\Users\Alex\AppData\Local\Temp\cc3fx8GI.s:3924   .text.TIM_OC4PolarityConfig:00000000 $t
C:\Users\Alex\AppData\Local\Temp\cc3fx8GI.s:3929   .text.TIM_OC4PolarityConfig:00000000 TIM_OC4PolarityConfig
C:\Users\Alex\AppData\Local\Temp\cc3fx8GI.s:3978   .text.TIM_CCxCmd:00000000 $t
C:\Users\Alex\AppData\Local\Temp\cc3fx8GI.s:3983   .text.TIM_CCxCmd:00000000 TIM_CCxCmd
C:\Users\Alex\AppData\Local\Temp\cc3fx8GI.s:4043   .text.TIM_CCxNCmd:00000000 $t
C:\Users\Alex\AppData\Local\Temp\cc3fx8GI.s:4048   .text.TIM_CCxNCmd:00000000 TIM_CCxNCmd
C:\Users\Alex\AppData\Local\Temp\cc3fx8GI.s:4108   .text.TIM_SelectOCxM:00000000 $t
C:\Users\Alex\AppData\Local\Temp\cc3fx8GI.s:4113   .text.TIM_SelectOCxM:00000000 TIM_SelectOCxM
C:\Users\Alex\AppData\Local\Temp\cc3fx8GI.s:4227   .text.TIM_UpdateDisableConfig:00000000 $t
C:\Users\Alex\AppData\Local\Temp\cc3fx8GI.s:4232   .text.TIM_UpdateDisableConfig:00000000 TIM_UpdateDisableConfig
C:\Users\Alex\AppData\Local\Temp\cc3fx8GI.s:4282   .text.TIM_UpdateRequestConfig:00000000 $t
C:\Users\Alex\AppData\Local\Temp\cc3fx8GI.s:4287   .text.TIM_UpdateRequestConfig:00000000 TIM_UpdateRequestConfig
C:\Users\Alex\AppData\Local\Temp\cc3fx8GI.s:4337   .text.TIM_SelectHallSensor:00000000 $t
C:\Users\Alex\AppData\Local\Temp\cc3fx8GI.s:4342   .text.TIM_SelectHallSensor:00000000 TIM_SelectHallSensor
C:\Users\Alex\AppData\Local\Temp\cc3fx8GI.s:4392   .text.TIM_SelectOnePulseMode:00000000 $t
C:\Users\Alex\AppData\Local\Temp\cc3fx8GI.s:4397   .text.TIM_SelectOnePulseMode:00000000 TIM_SelectOnePulseMode
C:\Users\Alex\AppData\Local\Temp\cc3fx8GI.s:4441   .text.TIM_SelectOutputTrigger:00000000 $t
C:\Users\Alex\AppData\Local\Temp\cc3fx8GI.s:4446   .text.TIM_SelectOutputTrigger:00000000 TIM_SelectOutputTrigger
C:\Users\Alex\AppData\Local\Temp\cc3fx8GI.s:4490   .text.TIM_SelectSlaveMode:00000000 $t
C:\Users\Alex\AppData\Local\Temp\cc3fx8GI.s:4495   .text.TIM_SelectSlaveMode:00000000 TIM_SelectSlaveMode
C:\Users\Alex\AppData\Local\Temp\cc3fx8GI.s:4539   .text.TIM_SelectMasterSlaveMode:00000000 $t
C:\Users\Alex\AppData\Local\Temp\cc3fx8GI.s:4544   .text.TIM_SelectMasterSlaveMode:00000000 TIM_SelectMasterSlaveMode
C:\Users\Alex\AppData\Local\Temp\cc3fx8GI.s:4588   .text.TIM_SetCounter:00000000 $t
C:\Users\Alex\AppData\Local\Temp\cc3fx8GI.s:4593   .text.TIM_SetCounter:00000000 TIM_SetCounter
C:\Users\Alex\AppData\Local\Temp\cc3fx8GI.s:4624   .text.TIM_SetAutoreload:00000000 $t
C:\Users\Alex\AppData\Local\Temp\cc3fx8GI.s:4629   .text.TIM_SetAutoreload:00000000 TIM_SetAutoreload
C:\Users\Alex\AppData\Local\Temp\cc3fx8GI.s:4660   .text.TIM_SetCompare1:00000000 $t
C:\Users\Alex\AppData\Local\Temp\cc3fx8GI.s:4665   .text.TIM_SetCompare1:00000000 TIM_SetCompare1
C:\Users\Alex\AppData\Local\Temp\cc3fx8GI.s:4696   .text.TIM_SetCompare2:00000000 $t
C:\Users\Alex\AppData\Local\Temp\cc3fx8GI.s:4701   .text.TIM_SetCompare2:00000000 TIM_SetCompare2
C:\Users\Alex\AppData\Local\Temp\cc3fx8GI.s:4732   .text.TIM_SetCompare3:00000000 $t
C:\Users\Alex\AppData\Local\Temp\cc3fx8GI.s:4737   .text.TIM_SetCompare3:00000000 TIM_SetCompare3
C:\Users\Alex\AppData\Local\Temp\cc3fx8GI.s:4768   .text.TIM_SetCompare4:00000000 $t
C:\Users\Alex\AppData\Local\Temp\cc3fx8GI.s:4773   .text.TIM_SetCompare4:00000000 TIM_SetCompare4
C:\Users\Alex\AppData\Local\Temp\cc3fx8GI.s:4804   .text.TIM_SetIC1Prescaler:00000000 $t
C:\Users\Alex\AppData\Local\Temp\cc3fx8GI.s:4853   .text.TIM_SetIC2Prescaler:00000000 $t
C:\Users\Alex\AppData\Local\Temp\cc3fx8GI.s:4904   .text.TIM_SetIC3Prescaler:00000000 $t
C:\Users\Alex\AppData\Local\Temp\cc3fx8GI.s:4953   .text.TIM_SetIC4Prescaler:00000000 $t
C:\Users\Alex\AppData\Local\Temp\cc3fx8GI.s:5004   .text.TIM_SetClockDivision:00000000 $t
C:\Users\Alex\AppData\Local\Temp\cc3fx8GI.s:5009   .text.TIM_SetClockDivision:00000000 TIM_SetClockDivision
C:\Users\Alex\AppData\Local\Temp\cc3fx8GI.s:5053   .text.TIM_GetCapture1:00000000 $t
C:\Users\Alex\AppData\Local\Temp\cc3fx8GI.s:5058   .text.TIM_GetCapture1:00000000 TIM_GetCapture1
C:\Users\Alex\AppData\Local\Temp\cc3fx8GI.s:5088   .text.TIM_GetCapture2:00000000 $t
C:\Users\Alex\AppData\Local\Temp\cc3fx8GI.s:5093   .text.TIM_GetCapture2:00000000 TIM_GetCapture2
C:\Users\Alex\AppData\Local\Temp\cc3fx8GI.s:5123   .text.TIM_GetCapture3:00000000 $t
C:\Users\Alex\AppData\Local\Temp\cc3fx8GI.s:5128   .text.TIM_GetCapture3:00000000 TIM_GetCapture3
C:\Users\Alex\AppData\Local\Temp\cc3fx8GI.s:5158   .text.TIM_GetCapture4:00000000 $t
C:\Users\Alex\AppData\Local\Temp\cc3fx8GI.s:5163   .text.TIM_GetCapture4:00000000 TIM_GetCapture4
C:\Users\Alex\AppData\Local\Temp\cc3fx8GI.s:5193   .text.TIM_GetCounter:00000000 $t
C:\Users\Alex\AppData\Local\Temp\cc3fx8GI.s:5198   .text.TIM_GetCounter:00000000 TIM_GetCounter
C:\Users\Alex\AppData\Local\Temp\cc3fx8GI.s:5228   .text.TIM_GetPrescaler:00000000 $t
C:\Users\Alex\AppData\Local\Temp\cc3fx8GI.s:5233   .text.TIM_GetPrescaler:00000000 TIM_GetPrescaler
C:\Users\Alex\AppData\Local\Temp\cc3fx8GI.s:5263   .text.TIM_GetFlagStatus:00000000 $t
C:\Users\Alex\AppData\Local\Temp\cc3fx8GI.s:5268   .text.TIM_GetFlagStatus:00000000 TIM_GetFlagStatus
C:\Users\Alex\AppData\Local\Temp\cc3fx8GI.s:5319   .text.TIM_ClearFlag:00000000 $t
C:\Users\Alex\AppData\Local\Temp\cc3fx8GI.s:5324   .text.TIM_ClearFlag:00000000 TIM_ClearFlag
C:\Users\Alex\AppData\Local\Temp\cc3fx8GI.s:5357   .text.TIM_GetITStatus:00000000 $t
C:\Users\Alex\AppData\Local\Temp\cc3fx8GI.s:5362   .text.TIM_GetITStatus:00000000 TIM_GetITStatus
C:\Users\Alex\AppData\Local\Temp\cc3fx8GI.s:5431   .text.TIM_ClearITPendingBit:00000000 $t
C:\Users\Alex\AppData\Local\Temp\cc3fx8GI.s:5436   .text.TIM_ClearITPendingBit:00000000 TIM_ClearITPendingBit
C:\Users\Alex\AppData\Local\Temp\cc3fx8GI.s:5469   .text.TI1_Config:00000000 $t
C:\Users\Alex\AppData\Local\Temp\cc3fx8GI.s:5601   .text.TI2_Config:00000000 $t
C:\Users\Alex\AppData\Local\Temp\cc3fx8GI.s:5745   .text.TI3_Config:00000000 $t
C:\Users\Alex\AppData\Local\Temp\cc3fx8GI.s:5883   .text.TI4_Config:00000000 $t
                     .debug_frame:00000010 $d
                           .group:00000000 wm4.1.98ffea2db242cfdb58f411f7407f2b59
                           .group:00000000 wm4.stm32f10x.h.51.b859cb68ed44ee02c916b41cb8c68f1c
                           .group:00000000 wm4.core_cm3.h.25.d35e9a9b04ec4aaebae9bf79fff061f9
                           .group:00000000 wm4.newlib.h.8.384a112feabb3bef7b573ae48cde2e3b
                           .group:00000000 wm4.features.h.22.6a4ca7cd053637cc1d0db6c16f39b2d7
                           .group:00000000 wm4.config.h.183.aa62afef667fb61d15fa64c48beb2f14
                           .group:00000000 wm4._ansi.h.23.5644b60c990a4800b02a6e654e88f93a
                           .group:00000000 wm4.stdint.h.20.54ad762faa59e3c05491630641c8d8bf
                           .group:00000000 wm4.core_cm3.h.113.b286929a54d33b4c8909a7132437b244
                           .group:00000000 wm4.stm32f10x.h.522.a925aafc848b1f088438cf0e9b167b78
                           .group:00000000 wm4.stm32f10x_conf.h.2.f1a8c33f0a763aeef696fee38b2b2dbc
                           .group:00000000 wm4.stm32f10x.h.8304.f7d8ad90959e99679b3257267c3aadfe
                           .group:00000000 wm4.stm32f10x_tim.h.169.8f8085157e91950a28cd697cc942a58d
                           .group:00000000 wm4.stm32f10x_rcc.h.25.fe8897e7491f2eb0cff54551d08eb765

UNDEFINED SYMBOLS
RCC_APB2PeriphResetCmd
RCC_APB1PeriphResetCmd
