   1              		.syntax unified
   2              		.cpu cortex-m3
   3              		.fpu softvfp
   4              		.eabi_attribute 20, 1
   5              		.eabi_attribute 21, 1
   6              		.eabi_attribute 23, 3
   7              		.eabi_attribute 24, 1
   8              		.eabi_attribute 25, 1
   9              		.eabi_attribute 26, 1
  10              		.eabi_attribute 30, 6
  11              		.eabi_attribute 34, 1
  12              		.eabi_attribute 18, 4
  13              		.thumb
  14              		.file	"stm32f10x_flash.c"
  15              		.text
  16              	.Ltext0:
  17              		.cfi_sections	.debug_frame
  18              		.section	.text.FLASH_SetLatency,"ax",%progbits
  19              		.align	2
  20              		.global	FLASH_SetLatency
  21              		.thumb
  22              		.thumb_func
  24              	FLASH_SetLatency:
  25              	.LFB29:
  26              		.file 1 "../Libraries/StdPeripheralDriver/src/stm32f10x_flash.c"
   1:../Libraries/StdPeripheralDriver/src/stm32f10x_flash.c **** /**
   2:../Libraries/StdPeripheralDriver/src/stm32f10x_flash.c ****   ******************************************************************************
   3:../Libraries/StdPeripheralDriver/src/stm32f10x_flash.c ****   * @file    stm32f10x_flash.c
   4:../Libraries/StdPeripheralDriver/src/stm32f10x_flash.c ****   * @author  MCD Application Team
   5:../Libraries/StdPeripheralDriver/src/stm32f10x_flash.c ****   * @version V3.5.0
   6:../Libraries/StdPeripheralDriver/src/stm32f10x_flash.c ****   * @date    11-March-2011
   7:../Libraries/StdPeripheralDriver/src/stm32f10x_flash.c ****   * @brief   This file provides all the FLASH firmware functions.
   8:../Libraries/StdPeripheralDriver/src/stm32f10x_flash.c ****   ******************************************************************************
   9:../Libraries/StdPeripheralDriver/src/stm32f10x_flash.c ****   * @attention
  10:../Libraries/StdPeripheralDriver/src/stm32f10x_flash.c ****   *
  11:../Libraries/StdPeripheralDriver/src/stm32f10x_flash.c ****   * THE PRESENT FIRMWARE WHICH IS FOR GUIDANCE ONLY AIMS AT PROVIDING CUSTOMERS
  12:../Libraries/StdPeripheralDriver/src/stm32f10x_flash.c ****   * WITH CODING INFORMATION REGARDING THEIR PRODUCTS IN ORDER FOR THEM TO SAVE
  13:../Libraries/StdPeripheralDriver/src/stm32f10x_flash.c ****   * TIME. AS A RESULT, STMICROELECTRONICS SHALL NOT BE HELD LIABLE FOR ANY
  14:../Libraries/StdPeripheralDriver/src/stm32f10x_flash.c ****   * DIRECT, INDIRECT OR CONSEQUENTIAL DAMAGES WITH RESPECT TO ANY CLAIMS ARISING
  15:../Libraries/StdPeripheralDriver/src/stm32f10x_flash.c ****   * FROM THE CONTENT OF SUCH FIRMWARE AND/OR THE USE MADE BY CUSTOMERS OF THE
  16:../Libraries/StdPeripheralDriver/src/stm32f10x_flash.c ****   * CODING INFORMATION CONTAINED HEREIN IN CONNECTION WITH THEIR PRODUCTS.
  17:../Libraries/StdPeripheralDriver/src/stm32f10x_flash.c ****   *
  18:../Libraries/StdPeripheralDriver/src/stm32f10x_flash.c ****   * <h2><center>&copy; COPYRIGHT 2011 STMicroelectronics</center></h2>
  19:../Libraries/StdPeripheralDriver/src/stm32f10x_flash.c ****   ******************************************************************************
  20:../Libraries/StdPeripheralDriver/src/stm32f10x_flash.c ****   */
  21:../Libraries/StdPeripheralDriver/src/stm32f10x_flash.c **** 
  22:../Libraries/StdPeripheralDriver/src/stm32f10x_flash.c **** /* Includes ------------------------------------------------------------------*/
  23:../Libraries/StdPeripheralDriver/src/stm32f10x_flash.c **** #include "stm32f10x_flash.h"
  24:../Libraries/StdPeripheralDriver/src/stm32f10x_flash.c **** 
  25:../Libraries/StdPeripheralDriver/src/stm32f10x_flash.c **** /** @addtogroup STM32F10x_StdPeriph_Driver
  26:../Libraries/StdPeripheralDriver/src/stm32f10x_flash.c ****   * @{
  27:../Libraries/StdPeripheralDriver/src/stm32f10x_flash.c ****   */
  28:../Libraries/StdPeripheralDriver/src/stm32f10x_flash.c **** 
  29:../Libraries/StdPeripheralDriver/src/stm32f10x_flash.c **** /** @defgroup FLASH 
  30:../Libraries/StdPeripheralDriver/src/stm32f10x_flash.c ****   * @brief FLASH driver modules
  31:../Libraries/StdPeripheralDriver/src/stm32f10x_flash.c ****   * @{
  32:../Libraries/StdPeripheralDriver/src/stm32f10x_flash.c ****   */ 
  33:../Libraries/StdPeripheralDriver/src/stm32f10x_flash.c **** 
  34:../Libraries/StdPeripheralDriver/src/stm32f10x_flash.c **** /** @defgroup FLASH_Private_TypesDefinitions
  35:../Libraries/StdPeripheralDriver/src/stm32f10x_flash.c ****   * @{
  36:../Libraries/StdPeripheralDriver/src/stm32f10x_flash.c ****   */
  37:../Libraries/StdPeripheralDriver/src/stm32f10x_flash.c **** 
  38:../Libraries/StdPeripheralDriver/src/stm32f10x_flash.c **** /**
  39:../Libraries/StdPeripheralDriver/src/stm32f10x_flash.c ****   * @}
  40:../Libraries/StdPeripheralDriver/src/stm32f10x_flash.c ****   */ 
  41:../Libraries/StdPeripheralDriver/src/stm32f10x_flash.c **** 
  42:../Libraries/StdPeripheralDriver/src/stm32f10x_flash.c **** /** @defgroup FLASH_Private_Defines
  43:../Libraries/StdPeripheralDriver/src/stm32f10x_flash.c ****   * @{
  44:../Libraries/StdPeripheralDriver/src/stm32f10x_flash.c ****   */ 
  45:../Libraries/StdPeripheralDriver/src/stm32f10x_flash.c **** 
  46:../Libraries/StdPeripheralDriver/src/stm32f10x_flash.c **** /* Flash Access Control Register bits */
  47:../Libraries/StdPeripheralDriver/src/stm32f10x_flash.c **** #define ACR_LATENCY_Mask         ((uint32_t)0x00000038)
  48:../Libraries/StdPeripheralDriver/src/stm32f10x_flash.c **** #define ACR_HLFCYA_Mask          ((uint32_t)0xFFFFFFF7)
  49:../Libraries/StdPeripheralDriver/src/stm32f10x_flash.c **** #define ACR_PRFTBE_Mask          ((uint32_t)0xFFFFFFEF)
  50:../Libraries/StdPeripheralDriver/src/stm32f10x_flash.c **** 
  51:../Libraries/StdPeripheralDriver/src/stm32f10x_flash.c **** /* Flash Access Control Register bits */
  52:../Libraries/StdPeripheralDriver/src/stm32f10x_flash.c **** #define ACR_PRFTBS_Mask          ((uint32_t)0x00000020) 
  53:../Libraries/StdPeripheralDriver/src/stm32f10x_flash.c **** 
  54:../Libraries/StdPeripheralDriver/src/stm32f10x_flash.c **** /* Flash Control Register bits */
  55:../Libraries/StdPeripheralDriver/src/stm32f10x_flash.c **** #define CR_PG_Set                ((uint32_t)0x00000001)
  56:../Libraries/StdPeripheralDriver/src/stm32f10x_flash.c **** #define CR_PG_Reset              ((uint32_t)0x00001FFE) 
  57:../Libraries/StdPeripheralDriver/src/stm32f10x_flash.c **** #define CR_PER_Set               ((uint32_t)0x00000002)
  58:../Libraries/StdPeripheralDriver/src/stm32f10x_flash.c **** #define CR_PER_Reset             ((uint32_t)0x00001FFD)
  59:../Libraries/StdPeripheralDriver/src/stm32f10x_flash.c **** #define CR_MER_Set               ((uint32_t)0x00000004)
  60:../Libraries/StdPeripheralDriver/src/stm32f10x_flash.c **** #define CR_MER_Reset             ((uint32_t)0x00001FFB)
  61:../Libraries/StdPeripheralDriver/src/stm32f10x_flash.c **** #define CR_OPTPG_Set             ((uint32_t)0x00000010)
  62:../Libraries/StdPeripheralDriver/src/stm32f10x_flash.c **** #define CR_OPTPG_Reset           ((uint32_t)0x00001FEF)
  63:../Libraries/StdPeripheralDriver/src/stm32f10x_flash.c **** #define CR_OPTER_Set             ((uint32_t)0x00000020)
  64:../Libraries/StdPeripheralDriver/src/stm32f10x_flash.c **** #define CR_OPTER_Reset           ((uint32_t)0x00001FDF)
  65:../Libraries/StdPeripheralDriver/src/stm32f10x_flash.c **** #define CR_STRT_Set              ((uint32_t)0x00000040)
  66:../Libraries/StdPeripheralDriver/src/stm32f10x_flash.c **** #define CR_LOCK_Set              ((uint32_t)0x00000080)
  67:../Libraries/StdPeripheralDriver/src/stm32f10x_flash.c **** 
  68:../Libraries/StdPeripheralDriver/src/stm32f10x_flash.c **** /* FLASH Mask */
  69:../Libraries/StdPeripheralDriver/src/stm32f10x_flash.c **** #define RDPRT_Mask               ((uint32_t)0x00000002)
  70:../Libraries/StdPeripheralDriver/src/stm32f10x_flash.c **** #define WRP0_Mask                ((uint32_t)0x000000FF)
  71:../Libraries/StdPeripheralDriver/src/stm32f10x_flash.c **** #define WRP1_Mask                ((uint32_t)0x0000FF00)
  72:../Libraries/StdPeripheralDriver/src/stm32f10x_flash.c **** #define WRP2_Mask                ((uint32_t)0x00FF0000)
  73:../Libraries/StdPeripheralDriver/src/stm32f10x_flash.c **** #define WRP3_Mask                ((uint32_t)0xFF000000)
  74:../Libraries/StdPeripheralDriver/src/stm32f10x_flash.c **** #define OB_USER_BFB2             ((uint16_t)0x0008)
  75:../Libraries/StdPeripheralDriver/src/stm32f10x_flash.c **** 
  76:../Libraries/StdPeripheralDriver/src/stm32f10x_flash.c **** /* FLASH Keys */
  77:../Libraries/StdPeripheralDriver/src/stm32f10x_flash.c **** #define RDP_Key                  ((uint16_t)0x00A5)
  78:../Libraries/StdPeripheralDriver/src/stm32f10x_flash.c **** #define FLASH_KEY1               ((uint32_t)0x45670123)
  79:../Libraries/StdPeripheralDriver/src/stm32f10x_flash.c **** #define FLASH_KEY2               ((uint32_t)0xCDEF89AB)
  80:../Libraries/StdPeripheralDriver/src/stm32f10x_flash.c **** 
  81:../Libraries/StdPeripheralDriver/src/stm32f10x_flash.c **** /* FLASH BANK address */
  82:../Libraries/StdPeripheralDriver/src/stm32f10x_flash.c **** #define FLASH_BANK1_END_ADDRESS   ((uint32_t)0x807FFFF)
  83:../Libraries/StdPeripheralDriver/src/stm32f10x_flash.c **** 
  84:../Libraries/StdPeripheralDriver/src/stm32f10x_flash.c **** /* Delay definition */   
  85:../Libraries/StdPeripheralDriver/src/stm32f10x_flash.c **** #define EraseTimeout          ((uint32_t)0x000B0000)
  86:../Libraries/StdPeripheralDriver/src/stm32f10x_flash.c **** #define ProgramTimeout        ((uint32_t)0x00002000)
  87:../Libraries/StdPeripheralDriver/src/stm32f10x_flash.c **** /**
  88:../Libraries/StdPeripheralDriver/src/stm32f10x_flash.c ****   * @}
  89:../Libraries/StdPeripheralDriver/src/stm32f10x_flash.c ****   */ 
  90:../Libraries/StdPeripheralDriver/src/stm32f10x_flash.c **** 
  91:../Libraries/StdPeripheralDriver/src/stm32f10x_flash.c **** /** @defgroup FLASH_Private_Macros
  92:../Libraries/StdPeripheralDriver/src/stm32f10x_flash.c ****   * @{
  93:../Libraries/StdPeripheralDriver/src/stm32f10x_flash.c ****   */
  94:../Libraries/StdPeripheralDriver/src/stm32f10x_flash.c **** 
  95:../Libraries/StdPeripheralDriver/src/stm32f10x_flash.c **** /**
  96:../Libraries/StdPeripheralDriver/src/stm32f10x_flash.c ****   * @}
  97:../Libraries/StdPeripheralDriver/src/stm32f10x_flash.c ****   */ 
  98:../Libraries/StdPeripheralDriver/src/stm32f10x_flash.c **** 
  99:../Libraries/StdPeripheralDriver/src/stm32f10x_flash.c **** /** @defgroup FLASH_Private_Variables
 100:../Libraries/StdPeripheralDriver/src/stm32f10x_flash.c ****   * @{
 101:../Libraries/StdPeripheralDriver/src/stm32f10x_flash.c ****   */
 102:../Libraries/StdPeripheralDriver/src/stm32f10x_flash.c **** 
 103:../Libraries/StdPeripheralDriver/src/stm32f10x_flash.c **** /**
 104:../Libraries/StdPeripheralDriver/src/stm32f10x_flash.c ****   * @}
 105:../Libraries/StdPeripheralDriver/src/stm32f10x_flash.c ****   */ 
 106:../Libraries/StdPeripheralDriver/src/stm32f10x_flash.c **** 
 107:../Libraries/StdPeripheralDriver/src/stm32f10x_flash.c **** /** @defgroup FLASH_Private_FunctionPrototypes
 108:../Libraries/StdPeripheralDriver/src/stm32f10x_flash.c ****   * @{
 109:../Libraries/StdPeripheralDriver/src/stm32f10x_flash.c ****   */
 110:../Libraries/StdPeripheralDriver/src/stm32f10x_flash.c ****   
 111:../Libraries/StdPeripheralDriver/src/stm32f10x_flash.c **** /**
 112:../Libraries/StdPeripheralDriver/src/stm32f10x_flash.c ****   * @}
 113:../Libraries/StdPeripheralDriver/src/stm32f10x_flash.c ****   */
 114:../Libraries/StdPeripheralDriver/src/stm32f10x_flash.c **** 
 115:../Libraries/StdPeripheralDriver/src/stm32f10x_flash.c **** /** @defgroup FLASH_Private_Functions
 116:../Libraries/StdPeripheralDriver/src/stm32f10x_flash.c ****   * @{
 117:../Libraries/StdPeripheralDriver/src/stm32f10x_flash.c ****   */
 118:../Libraries/StdPeripheralDriver/src/stm32f10x_flash.c **** 
 119:../Libraries/StdPeripheralDriver/src/stm32f10x_flash.c **** /**
 120:../Libraries/StdPeripheralDriver/src/stm32f10x_flash.c **** @code  
 121:../Libraries/StdPeripheralDriver/src/stm32f10x_flash.c ****  
 122:../Libraries/StdPeripheralDriver/src/stm32f10x_flash.c ****  This driver provides functions to configure and program the Flash memory of all STM32F10x devices,
 123:../Libraries/StdPeripheralDriver/src/stm32f10x_flash.c ****  including the latest STM32F10x_XL density devices. 
 124:../Libraries/StdPeripheralDriver/src/stm32f10x_flash.c **** 
 125:../Libraries/StdPeripheralDriver/src/stm32f10x_flash.c ****  STM32F10x_XL devices feature up to 1 Mbyte with dual bank architecture for read-while-write (RWW) 
 126:../Libraries/StdPeripheralDriver/src/stm32f10x_flash.c ****     - bank1: fixed size of 512 Kbytes (256 pages of 2Kbytes each)
 127:../Libraries/StdPeripheralDriver/src/stm32f10x_flash.c ****     - bank2: up to 512 Kbytes (up to 256 pages of 2Kbytes each)
 128:../Libraries/StdPeripheralDriver/src/stm32f10x_flash.c ****  While other STM32F10x devices features only one bank with memory up to 512 Kbytes.
 129:../Libraries/StdPeripheralDriver/src/stm32f10x_flash.c **** 
 130:../Libraries/StdPeripheralDriver/src/stm32f10x_flash.c ****  In version V3.3.0, some functions were updated and new ones were added to support
 131:../Libraries/StdPeripheralDriver/src/stm32f10x_flash.c ****  STM32F10x_XL devices. Thus some functions manages all devices, while other are 
 132:../Libraries/StdPeripheralDriver/src/stm32f10x_flash.c ****  dedicated for XL devices only.
 133:../Libraries/StdPeripheralDriver/src/stm32f10x_flash.c ****  
 134:../Libraries/StdPeripheralDriver/src/stm32f10x_flash.c ****  The table below presents the list of available functions depending on the used STM32F10x devices. 
 135:../Libraries/StdPeripheralDriver/src/stm32f10x_flash.c ****       
 136:../Libraries/StdPeripheralDriver/src/stm32f10x_flash.c ****    ***************************************************
 137:../Libraries/StdPeripheralDriver/src/stm32f10x_flash.c ****    * Legacy functions used for all STM32F10x devices *
 138:../Libraries/StdPeripheralDriver/src/stm32f10x_flash.c ****    ***************************************************
 139:../Libraries/StdPeripheralDriver/src/stm32f10x_flash.c ****    +-----------------------------------------------------------------------------------------------
 140:../Libraries/StdPeripheralDriver/src/stm32f10x_flash.c ****    |       Functions prototypes         |STM32F10x_XL|Other STM32F10x|    Comments                 
 141:../Libraries/StdPeripheralDriver/src/stm32f10x_flash.c ****    |                                    |   devices  |  devices      |                             
 142:../Libraries/StdPeripheralDriver/src/stm32f10x_flash.c ****    |-----------------------------------------------------------------------------------------------
 143:../Libraries/StdPeripheralDriver/src/stm32f10x_flash.c ****    |FLASH_SetLatency                    |    Yes     |      Yes      | No change                   
 144:../Libraries/StdPeripheralDriver/src/stm32f10x_flash.c ****    |-----------------------------------------------------------------------------------------------
 145:../Libraries/StdPeripheralDriver/src/stm32f10x_flash.c ****    |FLASH_HalfCycleAccessCmd            |    Yes     |      Yes      | No change                   
 146:../Libraries/StdPeripheralDriver/src/stm32f10x_flash.c ****    |-----------------------------------------------------------------------------------------------
 147:../Libraries/StdPeripheralDriver/src/stm32f10x_flash.c ****    |FLASH_PrefetchBufferCmd             |    Yes     |      Yes      | No change                   
 148:../Libraries/StdPeripheralDriver/src/stm32f10x_flash.c ****    |-----------------------------------------------------------------------------------------------
 149:../Libraries/StdPeripheralDriver/src/stm32f10x_flash.c ****    |FLASH_Unlock                        |    Yes     |      Yes      | - For STM32F10X_XL devices: 
 150:../Libraries/StdPeripheralDriver/src/stm32f10x_flash.c ****    |                                    |            |               | - For other devices: unlock 
 151:../Libraries/StdPeripheralDriver/src/stm32f10x_flash.c ****    |                                    |            |               |   to FLASH_UnlockBank1 funct
 152:../Libraries/StdPeripheralDriver/src/stm32f10x_flash.c ****    |-----------------------------------------------------------------------------------------------
 153:../Libraries/StdPeripheralDriver/src/stm32f10x_flash.c ****    |FLASH_Lock                          |    Yes     |      Yes      | - For STM32F10X_XL devices: 
 154:../Libraries/StdPeripheralDriver/src/stm32f10x_flash.c ****    |                                    |            |               | - For other devices: lock Ba
 155:../Libraries/StdPeripheralDriver/src/stm32f10x_flash.c ****    |                                    |            |               |   to FLASH_LockBank1 functio
 156:../Libraries/StdPeripheralDriver/src/stm32f10x_flash.c ****    |-----------------------------------------------------------------------------------------------
 157:../Libraries/StdPeripheralDriver/src/stm32f10x_flash.c ****    |FLASH_ErasePage                     |    Yes     |      Yes      | - For STM32F10x_XL devices: 
 158:../Libraries/StdPeripheralDriver/src/stm32f10x_flash.c ****    |                                    |            |               | - For other devices: erase a
 159:../Libraries/StdPeripheralDriver/src/stm32f10x_flash.c ****    |-----------------------------------------------------------------------------------------------
 160:../Libraries/StdPeripheralDriver/src/stm32f10x_flash.c ****    |FLASH_EraseAllPages                 |    Yes     |      Yes      | - For STM32F10x_XL devices: 
 161:../Libraries/StdPeripheralDriver/src/stm32f10x_flash.c ****    |                                    |            |               | - For other devices: erase a
 162:../Libraries/StdPeripheralDriver/src/stm32f10x_flash.c ****    |-----------------------------------------------------------------------------------------------
 163:../Libraries/StdPeripheralDriver/src/stm32f10x_flash.c ****    |FLASH_EraseOptionBytes              |    Yes     |      Yes      | No change                   
 164:../Libraries/StdPeripheralDriver/src/stm32f10x_flash.c ****    |-----------------------------------------------------------------------------------------------
 165:../Libraries/StdPeripheralDriver/src/stm32f10x_flash.c ****    |FLASH_ProgramWord                   |    Yes     |      Yes      | Updated to program up to 1MB
 166:../Libraries/StdPeripheralDriver/src/stm32f10x_flash.c ****    |-----------------------------------------------------------------------------------------------
 167:../Libraries/StdPeripheralDriver/src/stm32f10x_flash.c ****    |FLASH_ProgramHalfWord               |    Yes     |      Yes      | Updated to program up to 1MB
 168:../Libraries/StdPeripheralDriver/src/stm32f10x_flash.c ****    |-----------------------------------------------------------------------------------------------
 169:../Libraries/StdPeripheralDriver/src/stm32f10x_flash.c ****    |FLASH_ProgramOptionByteData         |    Yes     |      Yes      | No change                   
 170:../Libraries/StdPeripheralDriver/src/stm32f10x_flash.c ****    |-----------------------------------------------------------------------------------------------
 171:../Libraries/StdPeripheralDriver/src/stm32f10x_flash.c ****    |FLASH_EnableWriteProtection         |    Yes     |      Yes      | No change                   
 172:../Libraries/StdPeripheralDriver/src/stm32f10x_flash.c ****    |-----------------------------------------------------------------------------------------------
 173:../Libraries/StdPeripheralDriver/src/stm32f10x_flash.c ****    |FLASH_ReadOutProtection             |    Yes     |      Yes      | No change                   
 174:../Libraries/StdPeripheralDriver/src/stm32f10x_flash.c ****    |-----------------------------------------------------------------------------------------------
 175:../Libraries/StdPeripheralDriver/src/stm32f10x_flash.c ****    |FLASH_UserOptionByteConfig          |    Yes     |      Yes      | No change                   
 176:../Libraries/StdPeripheralDriver/src/stm32f10x_flash.c ****    |-----------------------------------------------------------------------------------------------
 177:../Libraries/StdPeripheralDriver/src/stm32f10x_flash.c ****    |FLASH_GetUserOptionByte             |    Yes     |      Yes      | No change                   
 178:../Libraries/StdPeripheralDriver/src/stm32f10x_flash.c ****    |-----------------------------------------------------------------------------------------------
 179:../Libraries/StdPeripheralDriver/src/stm32f10x_flash.c ****    |FLASH_GetWriteProtectionOptionByte  |    Yes     |      Yes      | No change                   
 180:../Libraries/StdPeripheralDriver/src/stm32f10x_flash.c ****    |-----------------------------------------------------------------------------------------------
 181:../Libraries/StdPeripheralDriver/src/stm32f10x_flash.c ****    |FLASH_GetReadOutProtectionStatus    |    Yes     |      Yes      | No change                   
 182:../Libraries/StdPeripheralDriver/src/stm32f10x_flash.c ****    |-----------------------------------------------------------------------------------------------
 183:../Libraries/StdPeripheralDriver/src/stm32f10x_flash.c ****    |FLASH_GetPrefetchBufferStatus       |    Yes     |      Yes      | No change                   
 184:../Libraries/StdPeripheralDriver/src/stm32f10x_flash.c ****    |-----------------------------------------------------------------------------------------------
 185:../Libraries/StdPeripheralDriver/src/stm32f10x_flash.c ****    |FLASH_ITConfig                      |    Yes     |      Yes      | - For STM32F10x_XL devices: 
 186:../Libraries/StdPeripheralDriver/src/stm32f10x_flash.c ****    |                                    |            |               | - For other devices: enable 
 187:../Libraries/StdPeripheralDriver/src/stm32f10x_flash.c ****    |-----------------------------------------------------------------------------------------------
 188:../Libraries/StdPeripheralDriver/src/stm32f10x_flash.c ****    |FLASH_GetFlagStatus                 |    Yes     |      Yes      | - For STM32F10x_XL devices: 
 189:../Libraries/StdPeripheralDriver/src/stm32f10x_flash.c ****    |                                    |            |               | - For other devices: return 
 190:../Libraries/StdPeripheralDriver/src/stm32f10x_flash.c ****    |-----------------------------------------------------------------------------------------------
 191:../Libraries/StdPeripheralDriver/src/stm32f10x_flash.c ****    |FLASH_ClearFlag                     |    Yes     |      Yes      | - For STM32F10x_XL devices: 
 192:../Libraries/StdPeripheralDriver/src/stm32f10x_flash.c ****    |                                    |            |               | - For other devices: clear B
 193:../Libraries/StdPeripheralDriver/src/stm32f10x_flash.c ****    |-----------------------------------------------------------------------------------------------
 194:../Libraries/StdPeripheralDriver/src/stm32f10x_flash.c ****    |FLASH_GetStatus                     |    Yes     |      Yes      | - Return the status of Bank1
 195:../Libraries/StdPeripheralDriver/src/stm32f10x_flash.c ****    |                                    |            |               |   equivalent to FLASH_GetBan
 196:../Libraries/StdPeripheralDriver/src/stm32f10x_flash.c ****    |-----------------------------------------------------------------------------------------------
 197:../Libraries/StdPeripheralDriver/src/stm32f10x_flash.c ****    |FLASH_WaitForLastOperation          |    Yes     |      Yes      | - Wait for Bank1 last operat
 198:../Libraries/StdPeripheralDriver/src/stm32f10x_flash.c ****    |                                    |            |               |   equivalent to: FLASH_WaitF
 199:../Libraries/StdPeripheralDriver/src/stm32f10x_flash.c ****    +-----------------------------------------------------------------------------------------------
 200:../Libraries/StdPeripheralDriver/src/stm32f10x_flash.c **** 
 201:../Libraries/StdPeripheralDriver/src/stm32f10x_flash.c ****    ************************************************************************************************
 202:../Libraries/StdPeripheralDriver/src/stm32f10x_flash.c ****    * New functions used for all STM32F10x devices to manage Bank1:                                 
 203:../Libraries/StdPeripheralDriver/src/stm32f10x_flash.c ****    *   - These functions are mainly useful for STM32F10x_XL density devices, to have separate contr
 204:../Libraries/StdPeripheralDriver/src/stm32f10x_flash.c ****    *   - For other devices, these functions are optional (covered by functions listed above)       
 205:../Libraries/StdPeripheralDriver/src/stm32f10x_flash.c ****    ************************************************************************************************
 206:../Libraries/StdPeripheralDriver/src/stm32f10x_flash.c ****    +-----------------------------------------------------------------------------------------------
 207:../Libraries/StdPeripheralDriver/src/stm32f10x_flash.c ****    |       Functions prototypes         |STM32F10x_XL|Other STM32F10x|    Comments                 
 208:../Libraries/StdPeripheralDriver/src/stm32f10x_flash.c ****    |                                    |   devices  |  devices      |                             
 209:../Libraries/StdPeripheralDriver/src/stm32f10x_flash.c ****    |-----------------------------------------------------------------------------------------------
 210:../Libraries/StdPeripheralDriver/src/stm32f10x_flash.c ****    | FLASH_UnlockBank1                  |    Yes     |      Yes      | - Unlock Bank1              
 211:../Libraries/StdPeripheralDriver/src/stm32f10x_flash.c ****    |-----------------------------------------------------------------------------------------------
 212:../Libraries/StdPeripheralDriver/src/stm32f10x_flash.c ****    |FLASH_LockBank1                     |    Yes     |      Yes      | - Lock Bank1                
 213:../Libraries/StdPeripheralDriver/src/stm32f10x_flash.c ****    |-----------------------------------------------------------------------------------------------
 214:../Libraries/StdPeripheralDriver/src/stm32f10x_flash.c ****    | FLASH_EraseAllBank1Pages           |    Yes     |      Yes      | - Erase all pages in Bank1  
 215:../Libraries/StdPeripheralDriver/src/stm32f10x_flash.c ****    |-----------------------------------------------------------------------------------------------
 216:../Libraries/StdPeripheralDriver/src/stm32f10x_flash.c ****    | FLASH_GetBank1Status               |    Yes     |      Yes      | - Return the status of Bank1
 217:../Libraries/StdPeripheralDriver/src/stm32f10x_flash.c ****    |-----------------------------------------------------------------------------------------------
 218:../Libraries/StdPeripheralDriver/src/stm32f10x_flash.c ****    | FLASH_WaitForLastBank1Operation    |    Yes     |      Yes      | - Wait for Bank1 last operat
 219:../Libraries/StdPeripheralDriver/src/stm32f10x_flash.c ****    +-----------------------------------------------------------------------------------------------
 220:../Libraries/StdPeripheralDriver/src/stm32f10x_flash.c **** 
 221:../Libraries/StdPeripheralDriver/src/stm32f10x_flash.c ****    *****************************************************************************
 222:../Libraries/StdPeripheralDriver/src/stm32f10x_flash.c ****    * New Functions used only with STM32F10x_XL density devices to manage Bank2 *
 223:../Libraries/StdPeripheralDriver/src/stm32f10x_flash.c ****    *****************************************************************************
 224:../Libraries/StdPeripheralDriver/src/stm32f10x_flash.c ****    +-----------------------------------------------------------------------------------------------
 225:../Libraries/StdPeripheralDriver/src/stm32f10x_flash.c ****    |       Functions prototypes         |STM32F10x_XL|Other STM32F10x|    Comments                 
 226:../Libraries/StdPeripheralDriver/src/stm32f10x_flash.c ****    |                                    |   devices  |  devices      |                             
 227:../Libraries/StdPeripheralDriver/src/stm32f10x_flash.c ****    |-----------------------------------------------------------------------------------------------
 228:../Libraries/StdPeripheralDriver/src/stm32f10x_flash.c ****    | FLASH_UnlockBank2                  |    Yes     |      No       | - Unlock Bank2              
 229:../Libraries/StdPeripheralDriver/src/stm32f10x_flash.c ****    |-----------------------------------------------------------------------------------------------
 230:../Libraries/StdPeripheralDriver/src/stm32f10x_flash.c ****    |FLASH_LockBank2                     |    Yes     |      No       | - Lock Bank2                
 231:../Libraries/StdPeripheralDriver/src/stm32f10x_flash.c ****    |-----------------------------------------------------------------------------------------------
 232:../Libraries/StdPeripheralDriver/src/stm32f10x_flash.c ****    | FLASH_EraseAllBank2Pages           |    Yes     |      No       | - Erase all pages in Bank2  
 233:../Libraries/StdPeripheralDriver/src/stm32f10x_flash.c ****    |-----------------------------------------------------------------------------------------------
 234:../Libraries/StdPeripheralDriver/src/stm32f10x_flash.c ****    | FLASH_GetBank2Status               |    Yes     |      No       | - Return the status of Bank2
 235:../Libraries/StdPeripheralDriver/src/stm32f10x_flash.c ****    |-----------------------------------------------------------------------------------------------
 236:../Libraries/StdPeripheralDriver/src/stm32f10x_flash.c ****    | FLASH_WaitForLastBank2Operation    |    Yes     |      No       | - Wait for Bank2 last operat
 237:../Libraries/StdPeripheralDriver/src/stm32f10x_flash.c ****    |-----------------------------------------------------------------------------------------------
 238:../Libraries/StdPeripheralDriver/src/stm32f10x_flash.c ****    | FLASH_BootConfig                   |    Yes     |      No       | - Configure to boot from Ban
 239:../Libraries/StdPeripheralDriver/src/stm32f10x_flash.c ****    +-----------------------------------------------------------------------------------------------
 240:../Libraries/StdPeripheralDriver/src/stm32f10x_flash.c **** @endcode
 241:../Libraries/StdPeripheralDriver/src/stm32f10x_flash.c **** */
 242:../Libraries/StdPeripheralDriver/src/stm32f10x_flash.c **** 
 243:../Libraries/StdPeripheralDriver/src/stm32f10x_flash.c **** 
 244:../Libraries/StdPeripheralDriver/src/stm32f10x_flash.c **** /**
 245:../Libraries/StdPeripheralDriver/src/stm32f10x_flash.c ****   * @brief  Sets the code latency value.
 246:../Libraries/StdPeripheralDriver/src/stm32f10x_flash.c ****   * @note   This function can be used for all STM32F10x devices.
 247:../Libraries/StdPeripheralDriver/src/stm32f10x_flash.c ****   * @param  FLASH_Latency: specifies the FLASH Latency value.
 248:../Libraries/StdPeripheralDriver/src/stm32f10x_flash.c ****   *   This parameter can be one of the following values:
 249:../Libraries/StdPeripheralDriver/src/stm32f10x_flash.c ****   *     @arg FLASH_Latency_0: FLASH Zero Latency cycle
 250:../Libraries/StdPeripheralDriver/src/stm32f10x_flash.c ****   *     @arg FLASH_Latency_1: FLASH One Latency cycle
 251:../Libraries/StdPeripheralDriver/src/stm32f10x_flash.c ****   *     @arg FLASH_Latency_2: FLASH Two Latency cycles
 252:../Libraries/StdPeripheralDriver/src/stm32f10x_flash.c ****   * @retval None
 253:../Libraries/StdPeripheralDriver/src/stm32f10x_flash.c ****   */
 254:../Libraries/StdPeripheralDriver/src/stm32f10x_flash.c **** void FLASH_SetLatency(uint32_t FLASH_Latency)
 255:../Libraries/StdPeripheralDriver/src/stm32f10x_flash.c **** {
  27              		.loc 1 255 0
  28              		.cfi_startproc
  29              		@ args = 0, pretend = 0, frame = 16
  30              		@ frame_needed = 1, uses_anonymous_args = 0
  31              		@ link register save eliminated.
  32 0000 80B4     		push	{r7}
  33              		.cfi_def_cfa_offset 4
  34              		.cfi_offset 7, -4
  35 0002 85B0     		sub	sp, sp, #20
  36              		.cfi_def_cfa_offset 24
  37 0004 00AF     		add	r7, sp, #0
  38              		.cfi_def_cfa_register 7
  39 0006 7860     		str	r0, [r7, #4]
 256:../Libraries/StdPeripheralDriver/src/stm32f10x_flash.c ****   uint32_t tmpreg = 0;
  40              		.loc 1 256 0
  41 0008 0023     		movs	r3, #0
  42 000a FB60     		str	r3, [r7, #12]
 257:../Libraries/StdPeripheralDriver/src/stm32f10x_flash.c ****   
 258:../Libraries/StdPeripheralDriver/src/stm32f10x_flash.c ****   /* Check the parameters */
 259:../Libraries/StdPeripheralDriver/src/stm32f10x_flash.c ****   assert_param(IS_FLASH_LATENCY(FLASH_Latency));
 260:../Libraries/StdPeripheralDriver/src/stm32f10x_flash.c ****   
 261:../Libraries/StdPeripheralDriver/src/stm32f10x_flash.c ****   /* Read the ACR register */
 262:../Libraries/StdPeripheralDriver/src/stm32f10x_flash.c ****   tmpreg = FLASH->ACR;  
  43              		.loc 1 262 0
  44 000c 4FF40053 		mov	r3, #8192
  45 0010 C4F20203 		movt	r3, 16386
  46 0014 1B68     		ldr	r3, [r3]
  47 0016 FB60     		str	r3, [r7, #12]
 263:../Libraries/StdPeripheralDriver/src/stm32f10x_flash.c ****   
 264:../Libraries/StdPeripheralDriver/src/stm32f10x_flash.c ****   /* Sets the Latency value */
 265:../Libraries/StdPeripheralDriver/src/stm32f10x_flash.c ****   tmpreg &= ACR_LATENCY_Mask;
  48              		.loc 1 265 0
  49 0018 FB68     		ldr	r3, [r7, #12]
  50 001a 03F03803 		and	r3, r3, #56
  51 001e FB60     		str	r3, [r7, #12]
 266:../Libraries/StdPeripheralDriver/src/stm32f10x_flash.c ****   tmpreg |= FLASH_Latency;
  52              		.loc 1 266 0
  53 0020 FA68     		ldr	r2, [r7, #12]
  54 0022 7B68     		ldr	r3, [r7, #4]
  55 0024 1343     		orrs	r3, r3, r2
  56 0026 FB60     		str	r3, [r7, #12]
 267:../Libraries/StdPeripheralDriver/src/stm32f10x_flash.c ****   
 268:../Libraries/StdPeripheralDriver/src/stm32f10x_flash.c ****   /* Write the ACR register */
 269:../Libraries/StdPeripheralDriver/src/stm32f10x_flash.c ****   FLASH->ACR = tmpreg;
  57              		.loc 1 269 0
  58 0028 4FF40053 		mov	r3, #8192
  59 002c C4F20203 		movt	r3, 16386
  60 0030 FA68     		ldr	r2, [r7, #12]
  61 0032 1A60     		str	r2, [r3]
 270:../Libraries/StdPeripheralDriver/src/stm32f10x_flash.c **** }
  62              		.loc 1 270 0
  63 0034 1437     		adds	r7, r7, #20
  64 0036 BD46     		mov	sp, r7
  65              		@ sp needed
  66 0038 5DF8047B 		ldr	r7, [sp], #4
  67 003c 7047     		bx	lr
  68              		.cfi_endproc
  69              	.LFE29:
  71 003e 00BF     		.section	.text.FLASH_HalfCycleAccessCmd,"ax",%progbits
  72              		.align	2
  73              		.global	FLASH_HalfCycleAccessCmd
  74              		.thumb
  75              		.thumb_func
  77              	FLASH_HalfCycleAccessCmd:
  78              	.LFB30:
 271:../Libraries/StdPeripheralDriver/src/stm32f10x_flash.c **** 
 272:../Libraries/StdPeripheralDriver/src/stm32f10x_flash.c **** /**
 273:../Libraries/StdPeripheralDriver/src/stm32f10x_flash.c ****   * @brief  Enables or disables the Half cycle flash access.
 274:../Libraries/StdPeripheralDriver/src/stm32f10x_flash.c ****   * @note   This function can be used for all STM32F10x devices.
 275:../Libraries/StdPeripheralDriver/src/stm32f10x_flash.c ****   * @param  FLASH_HalfCycleAccess: specifies the FLASH Half cycle Access mode.
 276:../Libraries/StdPeripheralDriver/src/stm32f10x_flash.c ****   *   This parameter can be one of the following values:
 277:../Libraries/StdPeripheralDriver/src/stm32f10x_flash.c ****   *     @arg FLASH_HalfCycleAccess_Enable: FLASH Half Cycle Enable
 278:../Libraries/StdPeripheralDriver/src/stm32f10x_flash.c ****   *     @arg FLASH_HalfCycleAccess_Disable: FLASH Half Cycle Disable
 279:../Libraries/StdPeripheralDriver/src/stm32f10x_flash.c ****   * @retval None
 280:../Libraries/StdPeripheralDriver/src/stm32f10x_flash.c ****   */
 281:../Libraries/StdPeripheralDriver/src/stm32f10x_flash.c **** void FLASH_HalfCycleAccessCmd(uint32_t FLASH_HalfCycleAccess)
 282:../Libraries/StdPeripheralDriver/src/stm32f10x_flash.c **** {
  79              		.loc 1 282 0
  80              		.cfi_startproc
  81              		@ args = 0, pretend = 0, frame = 8
  82              		@ frame_needed = 1, uses_anonymous_args = 0
  83              		@ link register save eliminated.
  84 0000 80B4     		push	{r7}
  85              		.cfi_def_cfa_offset 4
  86              		.cfi_offset 7, -4
  87 0002 83B0     		sub	sp, sp, #12
  88              		.cfi_def_cfa_offset 16
  89 0004 00AF     		add	r7, sp, #0
  90              		.cfi_def_cfa_register 7
  91 0006 7860     		str	r0, [r7, #4]
 283:../Libraries/StdPeripheralDriver/src/stm32f10x_flash.c ****   /* Check the parameters */
 284:../Libraries/StdPeripheralDriver/src/stm32f10x_flash.c ****   assert_param(IS_FLASH_HALFCYCLEACCESS_STATE(FLASH_HalfCycleAccess));
 285:../Libraries/StdPeripheralDriver/src/stm32f10x_flash.c ****   
 286:../Libraries/StdPeripheralDriver/src/stm32f10x_flash.c ****   /* Enable or disable the Half cycle access */
 287:../Libraries/StdPeripheralDriver/src/stm32f10x_flash.c ****   FLASH->ACR &= ACR_HLFCYA_Mask;
  92              		.loc 1 287 0
  93 0008 4FF40053 		mov	r3, #8192
  94 000c C4F20203 		movt	r3, 16386
  95 0010 4FF40052 		mov	r2, #8192
  96 0014 C4F20202 		movt	r2, 16386
  97 0018 1268     		ldr	r2, [r2]
  98 001a 22F00802 		bic	r2, r2, #8
  99 001e 1A60     		str	r2, [r3]
 288:../Libraries/StdPeripheralDriver/src/stm32f10x_flash.c ****   FLASH->ACR |= FLASH_HalfCycleAccess;
 100              		.loc 1 288 0
 101 0020 4FF40053 		mov	r3, #8192
 102 0024 C4F20203 		movt	r3, 16386
 103 0028 4FF40052 		mov	r2, #8192
 104 002c C4F20202 		movt	r2, 16386
 105 0030 1168     		ldr	r1, [r2]
 106 0032 7A68     		ldr	r2, [r7, #4]
 107 0034 0A43     		orrs	r2, r2, r1
 108 0036 1A60     		str	r2, [r3]
 289:../Libraries/StdPeripheralDriver/src/stm32f10x_flash.c **** }
 109              		.loc 1 289 0
 110 0038 0C37     		adds	r7, r7, #12
 111 003a BD46     		mov	sp, r7
 112              		@ sp needed
 113 003c 5DF8047B 		ldr	r7, [sp], #4
 114 0040 7047     		bx	lr
 115              		.cfi_endproc
 116              	.LFE30:
 118 0042 00BF     		.section	.text.FLASH_PrefetchBufferCmd,"ax",%progbits
 119              		.align	2
 120              		.global	FLASH_PrefetchBufferCmd
 121              		.thumb
 122              		.thumb_func
 124              	FLASH_PrefetchBufferCmd:
 125              	.LFB31:
 290:../Libraries/StdPeripheralDriver/src/stm32f10x_flash.c **** 
 291:../Libraries/StdPeripheralDriver/src/stm32f10x_flash.c **** /**
 292:../Libraries/StdPeripheralDriver/src/stm32f10x_flash.c ****   * @brief  Enables or disables the Prefetch Buffer.
 293:../Libraries/StdPeripheralDriver/src/stm32f10x_flash.c ****   * @note   This function can be used for all STM32F10x devices.
 294:../Libraries/StdPeripheralDriver/src/stm32f10x_flash.c ****   * @param  FLASH_PrefetchBuffer: specifies the Prefetch buffer status.
 295:../Libraries/StdPeripheralDriver/src/stm32f10x_flash.c ****   *   This parameter can be one of the following values:
 296:../Libraries/StdPeripheralDriver/src/stm32f10x_flash.c ****   *     @arg FLASH_PrefetchBuffer_Enable: FLASH Prefetch Buffer Enable
 297:../Libraries/StdPeripheralDriver/src/stm32f10x_flash.c ****   *     @arg FLASH_PrefetchBuffer_Disable: FLASH Prefetch Buffer Disable
 298:../Libraries/StdPeripheralDriver/src/stm32f10x_flash.c ****   * @retval None
 299:../Libraries/StdPeripheralDriver/src/stm32f10x_flash.c ****   */
 300:../Libraries/StdPeripheralDriver/src/stm32f10x_flash.c **** void FLASH_PrefetchBufferCmd(uint32_t FLASH_PrefetchBuffer)
 301:../Libraries/StdPeripheralDriver/src/stm32f10x_flash.c **** {
 126              		.loc 1 301 0
 127              		.cfi_startproc
 128              		@ args = 0, pretend = 0, frame = 8
 129              		@ frame_needed = 1, uses_anonymous_args = 0
 130              		@ link register save eliminated.
 131 0000 80B4     		push	{r7}
 132              		.cfi_def_cfa_offset 4
 133              		.cfi_offset 7, -4
 134 0002 83B0     		sub	sp, sp, #12
 135              		.cfi_def_cfa_offset 16
 136 0004 00AF     		add	r7, sp, #0
 137              		.cfi_def_cfa_register 7
 138 0006 7860     		str	r0, [r7, #4]
 302:../Libraries/StdPeripheralDriver/src/stm32f10x_flash.c ****   /* Check the parameters */
 303:../Libraries/StdPeripheralDriver/src/stm32f10x_flash.c ****   assert_param(IS_FLASH_PREFETCHBUFFER_STATE(FLASH_PrefetchBuffer));
 304:../Libraries/StdPeripheralDriver/src/stm32f10x_flash.c ****   
 305:../Libraries/StdPeripheralDriver/src/stm32f10x_flash.c ****   /* Enable or disable the Prefetch Buffer */
 306:../Libraries/StdPeripheralDriver/src/stm32f10x_flash.c ****   FLASH->ACR &= ACR_PRFTBE_Mask;
 139              		.loc 1 306 0
 140 0008 4FF40053 		mov	r3, #8192
 141 000c C4F20203 		movt	r3, 16386
 142 0010 4FF40052 		mov	r2, #8192
 143 0014 C4F20202 		movt	r2, 16386
 144 0018 1268     		ldr	r2, [r2]
 145 001a 22F01002 		bic	r2, r2, #16
 146 001e 1A60     		str	r2, [r3]
 307:../Libraries/StdPeripheralDriver/src/stm32f10x_flash.c ****   FLASH->ACR |= FLASH_PrefetchBuffer;
 147              		.loc 1 307 0
 148 0020 4FF40053 		mov	r3, #8192
 149 0024 C4F20203 		movt	r3, 16386
 150 0028 4FF40052 		mov	r2, #8192
 151 002c C4F20202 		movt	r2, 16386
 152 0030 1168     		ldr	r1, [r2]
 153 0032 7A68     		ldr	r2, [r7, #4]
 154 0034 0A43     		orrs	r2, r2, r1
 155 0036 1A60     		str	r2, [r3]
 308:../Libraries/StdPeripheralDriver/src/stm32f10x_flash.c **** }
 156              		.loc 1 308 0
 157 0038 0C37     		adds	r7, r7, #12
 158 003a BD46     		mov	sp, r7
 159              		@ sp needed
 160 003c 5DF8047B 		ldr	r7, [sp], #4
 161 0040 7047     		bx	lr
 162              		.cfi_endproc
 163              	.LFE31:
 165 0042 00BF     		.section	.text.FLASH_Unlock,"ax",%progbits
 166              		.align	2
 167              		.global	FLASH_Unlock
 168              		.thumb
 169              		.thumb_func
 171              	FLASH_Unlock:
 172              	.LFB32:
 309:../Libraries/StdPeripheralDriver/src/stm32f10x_flash.c **** 
 310:../Libraries/StdPeripheralDriver/src/stm32f10x_flash.c **** /**
 311:../Libraries/StdPeripheralDriver/src/stm32f10x_flash.c ****   * @brief  Unlocks the FLASH Program Erase Controller.
 312:../Libraries/StdPeripheralDriver/src/stm32f10x_flash.c ****   * @note   This function can be used for all STM32F10x devices.
 313:../Libraries/StdPeripheralDriver/src/stm32f10x_flash.c ****   *         - For STM32F10X_XL devices this function unlocks Bank1 and Bank2.
 314:../Libraries/StdPeripheralDriver/src/stm32f10x_flash.c ****   *         - For all other devices it unlocks Bank1 and it is equivalent 
 315:../Libraries/StdPeripheralDriver/src/stm32f10x_flash.c ****   *           to FLASH_UnlockBank1 function.. 
 316:../Libraries/StdPeripheralDriver/src/stm32f10x_flash.c ****   * @param  None
 317:../Libraries/StdPeripheralDriver/src/stm32f10x_flash.c ****   * @retval None
 318:../Libraries/StdPeripheralDriver/src/stm32f10x_flash.c ****   */
 319:../Libraries/StdPeripheralDriver/src/stm32f10x_flash.c **** void FLASH_Unlock(void)
 320:../Libraries/StdPeripheralDriver/src/stm32f10x_flash.c **** {
 173              		.loc 1 320 0
 174              		.cfi_startproc
 175              		@ args = 0, pretend = 0, frame = 0
 176              		@ frame_needed = 1, uses_anonymous_args = 0
 177              		@ link register save eliminated.
 178 0000 80B4     		push	{r7}
 179              		.cfi_def_cfa_offset 4
 180              		.cfi_offset 7, -4
 181 0002 00AF     		add	r7, sp, #0
 182              		.cfi_def_cfa_register 7
 321:../Libraries/StdPeripheralDriver/src/stm32f10x_flash.c ****   /* Authorize the FPEC of Bank1 Access */
 322:../Libraries/StdPeripheralDriver/src/stm32f10x_flash.c ****   FLASH->KEYR = FLASH_KEY1;
 183              		.loc 1 322 0
 184 0004 4FF40053 		mov	r3, #8192
 185 0008 C4F20203 		movt	r3, 16386
 186 000c 40F22312 		movw	r2, #291
 187 0010 C4F26752 		movt	r2, 17767
 188 0014 5A60     		str	r2, [r3, #4]
 323:../Libraries/StdPeripheralDriver/src/stm32f10x_flash.c ****   FLASH->KEYR = FLASH_KEY2;
 189              		.loc 1 323 0
 190 0016 4FF40053 		mov	r3, #8192
 191 001a C4F20203 		movt	r3, 16386
 192 001e 48F6AB12 		movw	r2, #35243
 193 0022 CCF6EF52 		movt	r2, 52719
 194 0026 5A60     		str	r2, [r3, #4]
 324:../Libraries/StdPeripheralDriver/src/stm32f10x_flash.c **** 
 325:../Libraries/StdPeripheralDriver/src/stm32f10x_flash.c **** #ifdef STM32F10X_XL
 326:../Libraries/StdPeripheralDriver/src/stm32f10x_flash.c ****   /* Authorize the FPEC of Bank2 Access */
 327:../Libraries/StdPeripheralDriver/src/stm32f10x_flash.c ****   FLASH->KEYR2 = FLASH_KEY1;
 328:../Libraries/StdPeripheralDriver/src/stm32f10x_flash.c ****   FLASH->KEYR2 = FLASH_KEY2;
 329:../Libraries/StdPeripheralDriver/src/stm32f10x_flash.c **** #endif /* STM32F10X_XL */
 330:../Libraries/StdPeripheralDriver/src/stm32f10x_flash.c **** }
 195              		.loc 1 330 0
 196 0028 BD46     		mov	sp, r7
 197              		@ sp needed
 198 002a 5DF8047B 		ldr	r7, [sp], #4
 199 002e 7047     		bx	lr
 200              		.cfi_endproc
 201              	.LFE32:
 203              		.section	.text.FLASH_UnlockBank1,"ax",%progbits
 204              		.align	2
 205              		.global	FLASH_UnlockBank1
 206              		.thumb
 207              		.thumb_func
 209              	FLASH_UnlockBank1:
 210              	.LFB33:
 331:../Libraries/StdPeripheralDriver/src/stm32f10x_flash.c **** /**
 332:../Libraries/StdPeripheralDriver/src/stm32f10x_flash.c ****   * @brief  Unlocks the FLASH Bank1 Program Erase Controller.
 333:../Libraries/StdPeripheralDriver/src/stm32f10x_flash.c ****   * @note   This function can be used for all STM32F10x devices.
 334:../Libraries/StdPeripheralDriver/src/stm32f10x_flash.c ****   *         - For STM32F10X_XL devices this function unlocks Bank1.
 335:../Libraries/StdPeripheralDriver/src/stm32f10x_flash.c ****   *         - For all other devices it unlocks Bank1 and it is 
 336:../Libraries/StdPeripheralDriver/src/stm32f10x_flash.c ****   *           equivalent to FLASH_Unlock function.
 337:../Libraries/StdPeripheralDriver/src/stm32f10x_flash.c ****   * @param  None
 338:../Libraries/StdPeripheralDriver/src/stm32f10x_flash.c ****   * @retval None
 339:../Libraries/StdPeripheralDriver/src/stm32f10x_flash.c ****   */
 340:../Libraries/StdPeripheralDriver/src/stm32f10x_flash.c **** void FLASH_UnlockBank1(void)
 341:../Libraries/StdPeripheralDriver/src/stm32f10x_flash.c **** {
 211              		.loc 1 341 0
 212              		.cfi_startproc
 213              		@ args = 0, pretend = 0, frame = 0
 214              		@ frame_needed = 1, uses_anonymous_args = 0
 215              		@ link register save eliminated.
 216 0000 80B4     		push	{r7}
 217              		.cfi_def_cfa_offset 4
 218              		.cfi_offset 7, -4
 219 0002 00AF     		add	r7, sp, #0
 220              		.cfi_def_cfa_register 7
 342:../Libraries/StdPeripheralDriver/src/stm32f10x_flash.c ****   /* Authorize the FPEC of Bank1 Access */
 343:../Libraries/StdPeripheralDriver/src/stm32f10x_flash.c ****   FLASH->KEYR = FLASH_KEY1;
 221              		.loc 1 343 0
 222 0004 4FF40053 		mov	r3, #8192
 223 0008 C4F20203 		movt	r3, 16386
 224 000c 40F22312 		movw	r2, #291
 225 0010 C4F26752 		movt	r2, 17767
 226 0014 5A60     		str	r2, [r3, #4]
 344:../Libraries/StdPeripheralDriver/src/stm32f10x_flash.c ****   FLASH->KEYR = FLASH_KEY2;
 227              		.loc 1 344 0
 228 0016 4FF40053 		mov	r3, #8192
 229 001a C4F20203 		movt	r3, 16386
 230 001e 48F6AB12 		movw	r2, #35243
 231 0022 CCF6EF52 		movt	r2, 52719
 232 0026 5A60     		str	r2, [r3, #4]
 345:../Libraries/StdPeripheralDriver/src/stm32f10x_flash.c **** }
 233              		.loc 1 345 0
 234 0028 BD46     		mov	sp, r7
 235              		@ sp needed
 236 002a 5DF8047B 		ldr	r7, [sp], #4
 237 002e 7047     		bx	lr
 238              		.cfi_endproc
 239              	.LFE33:
 241              		.section	.text.FLASH_Lock,"ax",%progbits
 242              		.align	2
 243              		.global	FLASH_Lock
 244              		.thumb
 245              		.thumb_func
 247              	FLASH_Lock:
 248              	.LFB34:
 346:../Libraries/StdPeripheralDriver/src/stm32f10x_flash.c **** 
 347:../Libraries/StdPeripheralDriver/src/stm32f10x_flash.c **** #ifdef STM32F10X_XL
 348:../Libraries/StdPeripheralDriver/src/stm32f10x_flash.c **** /**
 349:../Libraries/StdPeripheralDriver/src/stm32f10x_flash.c ****   * @brief  Unlocks the FLASH Bank2 Program Erase Controller.
 350:../Libraries/StdPeripheralDriver/src/stm32f10x_flash.c ****   * @note   This function can be used only for STM32F10X_XL density devices.
 351:../Libraries/StdPeripheralDriver/src/stm32f10x_flash.c ****   * @param  None
 352:../Libraries/StdPeripheralDriver/src/stm32f10x_flash.c ****   * @retval None
 353:../Libraries/StdPeripheralDriver/src/stm32f10x_flash.c ****   */
 354:../Libraries/StdPeripheralDriver/src/stm32f10x_flash.c **** void FLASH_UnlockBank2(void)
 355:../Libraries/StdPeripheralDriver/src/stm32f10x_flash.c **** {
 356:../Libraries/StdPeripheralDriver/src/stm32f10x_flash.c ****   /* Authorize the FPEC of Bank2 Access */
 357:../Libraries/StdPeripheralDriver/src/stm32f10x_flash.c ****   FLASH->KEYR2 = FLASH_KEY1;
 358:../Libraries/StdPeripheralDriver/src/stm32f10x_flash.c ****   FLASH->KEYR2 = FLASH_KEY2;
 359:../Libraries/StdPeripheralDriver/src/stm32f10x_flash.c **** 
 360:../Libraries/StdPeripheralDriver/src/stm32f10x_flash.c **** }
 361:../Libraries/StdPeripheralDriver/src/stm32f10x_flash.c **** #endif /* STM32F10X_XL */
 362:../Libraries/StdPeripheralDriver/src/stm32f10x_flash.c **** 
 363:../Libraries/StdPeripheralDriver/src/stm32f10x_flash.c **** /**
 364:../Libraries/StdPeripheralDriver/src/stm32f10x_flash.c ****   * @brief  Locks the FLASH Program Erase Controller.
 365:../Libraries/StdPeripheralDriver/src/stm32f10x_flash.c ****   * @note   This function can be used for all STM32F10x devices.
 366:../Libraries/StdPeripheralDriver/src/stm32f10x_flash.c ****   *         - For STM32F10X_XL devices this function Locks Bank1 and Bank2.
 367:../Libraries/StdPeripheralDriver/src/stm32f10x_flash.c ****   *         - For all other devices it Locks Bank1 and it is equivalent 
 368:../Libraries/StdPeripheralDriver/src/stm32f10x_flash.c ****   *           to FLASH_LockBank1 function.
 369:../Libraries/StdPeripheralDriver/src/stm32f10x_flash.c ****   * @param  None
 370:../Libraries/StdPeripheralDriver/src/stm32f10x_flash.c ****   * @retval None
 371:../Libraries/StdPeripheralDriver/src/stm32f10x_flash.c ****   */
 372:../Libraries/StdPeripheralDriver/src/stm32f10x_flash.c **** void FLASH_Lock(void)
 373:../Libraries/StdPeripheralDriver/src/stm32f10x_flash.c **** {
 249              		.loc 1 373 0
 250              		.cfi_startproc
 251              		@ args = 0, pretend = 0, frame = 0
 252              		@ frame_needed = 1, uses_anonymous_args = 0
 253              		@ link register save eliminated.
 254 0000 80B4     		push	{r7}
 255              		.cfi_def_cfa_offset 4
 256              		.cfi_offset 7, -4
 257 0002 00AF     		add	r7, sp, #0
 258              		.cfi_def_cfa_register 7
 374:../Libraries/StdPeripheralDriver/src/stm32f10x_flash.c ****   /* Set the Lock Bit to lock the FPEC and the CR of  Bank1 */
 375:../Libraries/StdPeripheralDriver/src/stm32f10x_flash.c ****   FLASH->CR |= CR_LOCK_Set;
 259              		.loc 1 375 0
 260 0004 4FF40053 		mov	r3, #8192
 261 0008 C4F20203 		movt	r3, 16386
 262 000c 4FF40052 		mov	r2, #8192
 263 0010 C4F20202 		movt	r2, 16386
 264 0014 1269     		ldr	r2, [r2, #16]
 265 0016 42F08002 		orr	r2, r2, #128
 266 001a 1A61     		str	r2, [r3, #16]
 376:../Libraries/StdPeripheralDriver/src/stm32f10x_flash.c **** 
 377:../Libraries/StdPeripheralDriver/src/stm32f10x_flash.c **** #ifdef STM32F10X_XL
 378:../Libraries/StdPeripheralDriver/src/stm32f10x_flash.c ****   /* Set the Lock Bit to lock the FPEC and the CR of  Bank2 */
 379:../Libraries/StdPeripheralDriver/src/stm32f10x_flash.c ****   FLASH->CR2 |= CR_LOCK_Set;
 380:../Libraries/StdPeripheralDriver/src/stm32f10x_flash.c **** #endif /* STM32F10X_XL */
 381:../Libraries/StdPeripheralDriver/src/stm32f10x_flash.c **** }
 267              		.loc 1 381 0
 268 001c BD46     		mov	sp, r7
 269              		@ sp needed
 270 001e 5DF8047B 		ldr	r7, [sp], #4
 271 0022 7047     		bx	lr
 272              		.cfi_endproc
 273              	.LFE34:
 275              		.section	.text.FLASH_LockBank1,"ax",%progbits
 276              		.align	2
 277              		.global	FLASH_LockBank1
 278              		.thumb
 279              		.thumb_func
 281              	FLASH_LockBank1:
 282              	.LFB35:
 382:../Libraries/StdPeripheralDriver/src/stm32f10x_flash.c **** 
 383:../Libraries/StdPeripheralDriver/src/stm32f10x_flash.c **** /**
 384:../Libraries/StdPeripheralDriver/src/stm32f10x_flash.c ****   * @brief  Locks the FLASH Bank1 Program Erase Controller.
 385:../Libraries/StdPeripheralDriver/src/stm32f10x_flash.c ****   * @note   this function can be used for all STM32F10x devices.
 386:../Libraries/StdPeripheralDriver/src/stm32f10x_flash.c ****   *         - For STM32F10X_XL devices this function Locks Bank1.
 387:../Libraries/StdPeripheralDriver/src/stm32f10x_flash.c ****   *         - For all other devices it Locks Bank1 and it is equivalent 
 388:../Libraries/StdPeripheralDriver/src/stm32f10x_flash.c ****   *           to FLASH_Lock function.
 389:../Libraries/StdPeripheralDriver/src/stm32f10x_flash.c ****   * @param  None
 390:../Libraries/StdPeripheralDriver/src/stm32f10x_flash.c ****   * @retval None
 391:../Libraries/StdPeripheralDriver/src/stm32f10x_flash.c ****   */
 392:../Libraries/StdPeripheralDriver/src/stm32f10x_flash.c **** void FLASH_LockBank1(void)
 393:../Libraries/StdPeripheralDriver/src/stm32f10x_flash.c **** {
 283              		.loc 1 393 0
 284              		.cfi_startproc
 285              		@ args = 0, pretend = 0, frame = 0
 286              		@ frame_needed = 1, uses_anonymous_args = 0
 287              		@ link register save eliminated.
 288 0000 80B4     		push	{r7}
 289              		.cfi_def_cfa_offset 4
 290              		.cfi_offset 7, -4
 291 0002 00AF     		add	r7, sp, #0
 292              		.cfi_def_cfa_register 7
 394:../Libraries/StdPeripheralDriver/src/stm32f10x_flash.c ****   /* Set the Lock Bit to lock the FPEC and the CR of  Bank1 */
 395:../Libraries/StdPeripheralDriver/src/stm32f10x_flash.c ****   FLASH->CR |= CR_LOCK_Set;
 293              		.loc 1 395 0
 294 0004 4FF40053 		mov	r3, #8192
 295 0008 C4F20203 		movt	r3, 16386
 296 000c 4FF40052 		mov	r2, #8192
 297 0010 C4F20202 		movt	r2, 16386
 298 0014 1269     		ldr	r2, [r2, #16]
 299 0016 42F08002 		orr	r2, r2, #128
 300 001a 1A61     		str	r2, [r3, #16]
 396:../Libraries/StdPeripheralDriver/src/stm32f10x_flash.c **** }
 301              		.loc 1 396 0
 302 001c BD46     		mov	sp, r7
 303              		@ sp needed
 304 001e 5DF8047B 		ldr	r7, [sp], #4
 305 0022 7047     		bx	lr
 306              		.cfi_endproc
 307              	.LFE35:
 309              		.section	.text.FLASH_ErasePage,"ax",%progbits
 310              		.align	2
 311              		.global	FLASH_ErasePage
 312              		.thumb
 313              		.thumb_func
 315              	FLASH_ErasePage:
 316              	.LFB36:
 397:../Libraries/StdPeripheralDriver/src/stm32f10x_flash.c **** 
 398:../Libraries/StdPeripheralDriver/src/stm32f10x_flash.c **** #ifdef STM32F10X_XL
 399:../Libraries/StdPeripheralDriver/src/stm32f10x_flash.c **** /**
 400:../Libraries/StdPeripheralDriver/src/stm32f10x_flash.c ****   * @brief  Locks the FLASH Bank2 Program Erase Controller.
 401:../Libraries/StdPeripheralDriver/src/stm32f10x_flash.c ****   * @note   This function can be used only for STM32F10X_XL density devices.
 402:../Libraries/StdPeripheralDriver/src/stm32f10x_flash.c ****   * @param  None
 403:../Libraries/StdPeripheralDriver/src/stm32f10x_flash.c ****   * @retval None
 404:../Libraries/StdPeripheralDriver/src/stm32f10x_flash.c ****   */
 405:../Libraries/StdPeripheralDriver/src/stm32f10x_flash.c **** void FLASH_LockBank2(void)
 406:../Libraries/StdPeripheralDriver/src/stm32f10x_flash.c **** {
 407:../Libraries/StdPeripheralDriver/src/stm32f10x_flash.c ****   /* Set the Lock Bit to lock the FPEC and the CR of  Bank2 */
 408:../Libraries/StdPeripheralDriver/src/stm32f10x_flash.c ****   FLASH->CR2 |= CR_LOCK_Set;
 409:../Libraries/StdPeripheralDriver/src/stm32f10x_flash.c **** }
 410:../Libraries/StdPeripheralDriver/src/stm32f10x_flash.c **** #endif /* STM32F10X_XL */
 411:../Libraries/StdPeripheralDriver/src/stm32f10x_flash.c **** 
 412:../Libraries/StdPeripheralDriver/src/stm32f10x_flash.c **** /**
 413:../Libraries/StdPeripheralDriver/src/stm32f10x_flash.c ****   * @brief  Erases a specified FLASH page.
 414:../Libraries/StdPeripheralDriver/src/stm32f10x_flash.c ****   * @note   This function can be used for all STM32F10x devices.
 415:../Libraries/StdPeripheralDriver/src/stm32f10x_flash.c ****   * @param  Page_Address: The page address to be erased.
 416:../Libraries/StdPeripheralDriver/src/stm32f10x_flash.c ****   * @retval FLASH Status: The returned value can be: FLASH_BUSY, FLASH_ERROR_PG,
 417:../Libraries/StdPeripheralDriver/src/stm32f10x_flash.c ****   *         FLASH_ERROR_WRP, FLASH_COMPLETE or FLASH_TIMEOUT.
 418:../Libraries/StdPeripheralDriver/src/stm32f10x_flash.c ****   */
 419:../Libraries/StdPeripheralDriver/src/stm32f10x_flash.c **** FLASH_Status FLASH_ErasePage(uint32_t Page_Address)
 420:../Libraries/StdPeripheralDriver/src/stm32f10x_flash.c **** {
 317              		.loc 1 420 0
 318              		.cfi_startproc
 319              		@ args = 0, pretend = 0, frame = 16
 320              		@ frame_needed = 1, uses_anonymous_args = 0
 321 0000 80B5     		push	{r7, lr}
 322              		.cfi_def_cfa_offset 8
 323              		.cfi_offset 7, -8
 324              		.cfi_offset 14, -4
 325 0002 84B0     		sub	sp, sp, #16
 326              		.cfi_def_cfa_offset 24
 327 0004 00AF     		add	r7, sp, #0
 328              		.cfi_def_cfa_register 7
 329 0006 7860     		str	r0, [r7, #4]
 421:../Libraries/StdPeripheralDriver/src/stm32f10x_flash.c ****   FLASH_Status status = FLASH_COMPLETE;
 330              		.loc 1 421 0
 331 0008 0423     		movs	r3, #4
 332 000a FB73     		strb	r3, [r7, #15]
 422:../Libraries/StdPeripheralDriver/src/stm32f10x_flash.c ****   /* Check the parameters */
 423:../Libraries/StdPeripheralDriver/src/stm32f10x_flash.c ****   assert_param(IS_FLASH_ADDRESS(Page_Address));
 424:../Libraries/StdPeripheralDriver/src/stm32f10x_flash.c **** 
 425:../Libraries/StdPeripheralDriver/src/stm32f10x_flash.c **** #ifdef STM32F10X_XL
 426:../Libraries/StdPeripheralDriver/src/stm32f10x_flash.c ****   if(Page_Address < FLASH_BANK1_END_ADDRESS)  
 427:../Libraries/StdPeripheralDriver/src/stm32f10x_flash.c ****   {
 428:../Libraries/StdPeripheralDriver/src/stm32f10x_flash.c ****     /* Wait for last operation to be completed */
 429:../Libraries/StdPeripheralDriver/src/stm32f10x_flash.c ****     status = FLASH_WaitForLastBank1Operation(EraseTimeout);
 430:../Libraries/StdPeripheralDriver/src/stm32f10x_flash.c ****     if(status == FLASH_COMPLETE)
 431:../Libraries/StdPeripheralDriver/src/stm32f10x_flash.c ****     { 
 432:../Libraries/StdPeripheralDriver/src/stm32f10x_flash.c ****       /* if the previous operation is completed, proceed to erase the page */
 433:../Libraries/StdPeripheralDriver/src/stm32f10x_flash.c ****       FLASH->CR|= CR_PER_Set;
 434:../Libraries/StdPeripheralDriver/src/stm32f10x_flash.c ****       FLASH->AR = Page_Address; 
 435:../Libraries/StdPeripheralDriver/src/stm32f10x_flash.c ****       FLASH->CR|= CR_STRT_Set;
 436:../Libraries/StdPeripheralDriver/src/stm32f10x_flash.c ****     
 437:../Libraries/StdPeripheralDriver/src/stm32f10x_flash.c ****       /* Wait for last operation to be completed */
 438:../Libraries/StdPeripheralDriver/src/stm32f10x_flash.c ****       status = FLASH_WaitForLastBank1Operation(EraseTimeout);
 439:../Libraries/StdPeripheralDriver/src/stm32f10x_flash.c **** 
 440:../Libraries/StdPeripheralDriver/src/stm32f10x_flash.c ****       /* Disable the PER Bit */
 441:../Libraries/StdPeripheralDriver/src/stm32f10x_flash.c ****       FLASH->CR &= CR_PER_Reset;
 442:../Libraries/StdPeripheralDriver/src/stm32f10x_flash.c ****     }
 443:../Libraries/StdPeripheralDriver/src/stm32f10x_flash.c ****   }
 444:../Libraries/StdPeripheralDriver/src/stm32f10x_flash.c ****   else
 445:../Libraries/StdPeripheralDriver/src/stm32f10x_flash.c ****   {
 446:../Libraries/StdPeripheralDriver/src/stm32f10x_flash.c ****     /* Wait for last operation to be completed */
 447:../Libraries/StdPeripheralDriver/src/stm32f10x_flash.c ****     status = FLASH_WaitForLastBank2Operation(EraseTimeout);
 448:../Libraries/StdPeripheralDriver/src/stm32f10x_flash.c ****     if(status == FLASH_COMPLETE)
 449:../Libraries/StdPeripheralDriver/src/stm32f10x_flash.c ****     { 
 450:../Libraries/StdPeripheralDriver/src/stm32f10x_flash.c ****       /* if the previous operation is completed, proceed to erase the page */
 451:../Libraries/StdPeripheralDriver/src/stm32f10x_flash.c ****       FLASH->CR2|= CR_PER_Set;
 452:../Libraries/StdPeripheralDriver/src/stm32f10x_flash.c ****       FLASH->AR2 = Page_Address; 
 453:../Libraries/StdPeripheralDriver/src/stm32f10x_flash.c ****       FLASH->CR2|= CR_STRT_Set;
 454:../Libraries/StdPeripheralDriver/src/stm32f10x_flash.c ****     
 455:../Libraries/StdPeripheralDriver/src/stm32f10x_flash.c ****       /* Wait for last operation to be completed */
 456:../Libraries/StdPeripheralDriver/src/stm32f10x_flash.c ****       status = FLASH_WaitForLastBank2Operation(EraseTimeout);
 457:../Libraries/StdPeripheralDriver/src/stm32f10x_flash.c ****       
 458:../Libraries/StdPeripheralDriver/src/stm32f10x_flash.c ****       /* Disable the PER Bit */
 459:../Libraries/StdPeripheralDriver/src/stm32f10x_flash.c ****       FLASH->CR2 &= CR_PER_Reset;
 460:../Libraries/StdPeripheralDriver/src/stm32f10x_flash.c ****     }
 461:../Libraries/StdPeripheralDriver/src/stm32f10x_flash.c ****   }
 462:../Libraries/StdPeripheralDriver/src/stm32f10x_flash.c **** #else
 463:../Libraries/StdPeripheralDriver/src/stm32f10x_flash.c ****   /* Wait for last operation to be completed */
 464:../Libraries/StdPeripheralDriver/src/stm32f10x_flash.c ****   status = FLASH_WaitForLastOperation(EraseTimeout);
 333              		.loc 1 464 0
 334 000c 4FF43020 		mov	r0, #720896
 335 0010 FFF7FEFF 		bl	FLASH_WaitForLastOperation
 336 0014 0346     		mov	r3, r0
 337 0016 FB73     		strb	r3, [r7, #15]
 465:../Libraries/StdPeripheralDriver/src/stm32f10x_flash.c ****   
 466:../Libraries/StdPeripheralDriver/src/stm32f10x_flash.c ****   if(status == FLASH_COMPLETE)
 338              		.loc 1 466 0
 339 0018 FB7B     		ldrb	r3, [r7, #15]	@ zero_extendqisi2
 340 001a 042B     		cmp	r3, #4
 341 001c 30D1     		bne	.L9
 467:../Libraries/StdPeripheralDriver/src/stm32f10x_flash.c ****   { 
 468:../Libraries/StdPeripheralDriver/src/stm32f10x_flash.c ****     /* if the previous operation is completed, proceed to erase the page */
 469:../Libraries/StdPeripheralDriver/src/stm32f10x_flash.c ****     FLASH->CR|= CR_PER_Set;
 342              		.loc 1 469 0
 343 001e 4FF40053 		mov	r3, #8192
 344 0022 C4F20203 		movt	r3, 16386
 345 0026 4FF40052 		mov	r2, #8192
 346 002a C4F20202 		movt	r2, 16386
 347 002e 1269     		ldr	r2, [r2, #16]
 348 0030 42F00202 		orr	r2, r2, #2
 349 0034 1A61     		str	r2, [r3, #16]
 470:../Libraries/StdPeripheralDriver/src/stm32f10x_flash.c ****     FLASH->AR = Page_Address; 
 350              		.loc 1 470 0
 351 0036 4FF40053 		mov	r3, #8192
 352 003a C4F20203 		movt	r3, 16386
 353 003e 7A68     		ldr	r2, [r7, #4]
 354 0040 5A61     		str	r2, [r3, #20]
 471:../Libraries/StdPeripheralDriver/src/stm32f10x_flash.c ****     FLASH->CR|= CR_STRT_Set;
 355              		.loc 1 471 0
 356 0042 4FF40053 		mov	r3, #8192
 357 0046 C4F20203 		movt	r3, 16386
 358 004a 4FF40052 		mov	r2, #8192
 359 004e C4F20202 		movt	r2, 16386
 360 0052 1269     		ldr	r2, [r2, #16]
 361 0054 42F04002 		orr	r2, r2, #64
 362 0058 1A61     		str	r2, [r3, #16]
 472:../Libraries/StdPeripheralDriver/src/stm32f10x_flash.c ****     
 473:../Libraries/StdPeripheralDriver/src/stm32f10x_flash.c ****     /* Wait for last operation to be completed */
 474:../Libraries/StdPeripheralDriver/src/stm32f10x_flash.c ****     status = FLASH_WaitForLastOperation(EraseTimeout);
 363              		.loc 1 474 0
 364 005a 4FF43020 		mov	r0, #720896
 365 005e FFF7FEFF 		bl	FLASH_WaitForLastOperation
 366 0062 0346     		mov	r3, r0
 367 0064 FB73     		strb	r3, [r7, #15]
 475:../Libraries/StdPeripheralDriver/src/stm32f10x_flash.c ****     
 476:../Libraries/StdPeripheralDriver/src/stm32f10x_flash.c ****     /* Disable the PER Bit */
 477:../Libraries/StdPeripheralDriver/src/stm32f10x_flash.c ****     FLASH->CR &= CR_PER_Reset;
 368              		.loc 1 477 0
 369 0066 4FF40053 		mov	r3, #8192
 370 006a C4F20203 		movt	r3, 16386
 371 006e 4FF40052 		mov	r2, #8192
 372 0072 C4F20202 		movt	r2, 16386
 373 0076 1169     		ldr	r1, [r2, #16]
 374 0078 41F6FD72 		movw	r2, #8189
 375 007c 0A40     		ands	r2, r2, r1
 376 007e 1A61     		str	r2, [r3, #16]
 377              	.L9:
 478:../Libraries/StdPeripheralDriver/src/stm32f10x_flash.c ****   }
 479:../Libraries/StdPeripheralDriver/src/stm32f10x_flash.c **** #endif /* STM32F10X_XL */
 480:../Libraries/StdPeripheralDriver/src/stm32f10x_flash.c **** 
 481:../Libraries/StdPeripheralDriver/src/stm32f10x_flash.c ****   /* Return the Erase Status */
 482:../Libraries/StdPeripheralDriver/src/stm32f10x_flash.c ****   return status;
 378              		.loc 1 482 0
 379 0080 FB7B     		ldrb	r3, [r7, #15]	@ zero_extendqisi2
 483:../Libraries/StdPeripheralDriver/src/stm32f10x_flash.c **** }
 380              		.loc 1 483 0
 381 0082 1846     		mov	r0, r3
 382 0084 1037     		adds	r7, r7, #16
 383 0086 BD46     		mov	sp, r7
 384              		@ sp needed
 385 0088 80BD     		pop	{r7, pc}
 386              		.cfi_endproc
 387              	.LFE36:
 389 008a 00BF     		.section	.text.FLASH_EraseAllPages,"ax",%progbits
 390              		.align	2
 391              		.global	FLASH_EraseAllPages
 392              		.thumb
 393              		.thumb_func
 395              	FLASH_EraseAllPages:
 396              	.LFB37:
 484:../Libraries/StdPeripheralDriver/src/stm32f10x_flash.c **** 
 485:../Libraries/StdPeripheralDriver/src/stm32f10x_flash.c **** /**
 486:../Libraries/StdPeripheralDriver/src/stm32f10x_flash.c ****   * @brief  Erases all FLASH pages.
 487:../Libraries/StdPeripheralDriver/src/stm32f10x_flash.c ****   * @note   This function can be used for all STM32F10x devices.
 488:../Libraries/StdPeripheralDriver/src/stm32f10x_flash.c ****   * @param  None
 489:../Libraries/StdPeripheralDriver/src/stm32f10x_flash.c ****   * @retval FLASH Status: The returned value can be: FLASH_ERROR_PG,
 490:../Libraries/StdPeripheralDriver/src/stm32f10x_flash.c ****   *         FLASH_ERROR_WRP, FLASH_COMPLETE or FLASH_TIMEOUT.
 491:../Libraries/StdPeripheralDriver/src/stm32f10x_flash.c ****   */
 492:../Libraries/StdPeripheralDriver/src/stm32f10x_flash.c **** FLASH_Status FLASH_EraseAllPages(void)
 493:../Libraries/StdPeripheralDriver/src/stm32f10x_flash.c **** {
 397              		.loc 1 493 0
 398              		.cfi_startproc
 399              		@ args = 0, pretend = 0, frame = 8
 400              		@ frame_needed = 1, uses_anonymous_args = 0
 401 0000 80B5     		push	{r7, lr}
 402              		.cfi_def_cfa_offset 8
 403              		.cfi_offset 7, -8
 404              		.cfi_offset 14, -4
 405 0002 82B0     		sub	sp, sp, #8
 406              		.cfi_def_cfa_offset 16
 407 0004 00AF     		add	r7, sp, #0
 408              		.cfi_def_cfa_register 7
 494:../Libraries/StdPeripheralDriver/src/stm32f10x_flash.c ****   FLASH_Status status = FLASH_COMPLETE;
 409              		.loc 1 494 0
 410 0006 0423     		movs	r3, #4
 411 0008 FB71     		strb	r3, [r7, #7]
 495:../Libraries/StdPeripheralDriver/src/stm32f10x_flash.c **** 
 496:../Libraries/StdPeripheralDriver/src/stm32f10x_flash.c **** #ifdef STM32F10X_XL
 497:../Libraries/StdPeripheralDriver/src/stm32f10x_flash.c ****   /* Wait for last operation to be completed */
 498:../Libraries/StdPeripheralDriver/src/stm32f10x_flash.c ****   status = FLASH_WaitForLastBank1Operation(EraseTimeout);
 499:../Libraries/StdPeripheralDriver/src/stm32f10x_flash.c ****   
 500:../Libraries/StdPeripheralDriver/src/stm32f10x_flash.c ****   if(status == FLASH_COMPLETE)
 501:../Libraries/StdPeripheralDriver/src/stm32f10x_flash.c ****   {
 502:../Libraries/StdPeripheralDriver/src/stm32f10x_flash.c ****     /* if the previous operation is completed, proceed to erase all pages */
 503:../Libraries/StdPeripheralDriver/src/stm32f10x_flash.c ****      FLASH->CR |= CR_MER_Set;
 504:../Libraries/StdPeripheralDriver/src/stm32f10x_flash.c ****      FLASH->CR |= CR_STRT_Set;
 505:../Libraries/StdPeripheralDriver/src/stm32f10x_flash.c ****     
 506:../Libraries/StdPeripheralDriver/src/stm32f10x_flash.c ****     /* Wait for last operation to be completed */
 507:../Libraries/StdPeripheralDriver/src/stm32f10x_flash.c ****     status = FLASH_WaitForLastBank1Operation(EraseTimeout);
 508:../Libraries/StdPeripheralDriver/src/stm32f10x_flash.c ****     
 509:../Libraries/StdPeripheralDriver/src/stm32f10x_flash.c ****     /* Disable the MER Bit */
 510:../Libraries/StdPeripheralDriver/src/stm32f10x_flash.c ****     FLASH->CR &= CR_MER_Reset;
 511:../Libraries/StdPeripheralDriver/src/stm32f10x_flash.c ****   }    
 512:../Libraries/StdPeripheralDriver/src/stm32f10x_flash.c ****   if(status == FLASH_COMPLETE)
 513:../Libraries/StdPeripheralDriver/src/stm32f10x_flash.c ****   {
 514:../Libraries/StdPeripheralDriver/src/stm32f10x_flash.c ****     /* if the previous operation is completed, proceed to erase all pages */
 515:../Libraries/StdPeripheralDriver/src/stm32f10x_flash.c ****      FLASH->CR2 |= CR_MER_Set;
 516:../Libraries/StdPeripheralDriver/src/stm32f10x_flash.c ****      FLASH->CR2 |= CR_STRT_Set;
 517:../Libraries/StdPeripheralDriver/src/stm32f10x_flash.c ****     
 518:../Libraries/StdPeripheralDriver/src/stm32f10x_flash.c ****     /* Wait for last operation to be completed */
 519:../Libraries/StdPeripheralDriver/src/stm32f10x_flash.c ****     status = FLASH_WaitForLastBank2Operation(EraseTimeout);
 520:../Libraries/StdPeripheralDriver/src/stm32f10x_flash.c ****     
 521:../Libraries/StdPeripheralDriver/src/stm32f10x_flash.c ****     /* Disable the MER Bit */
 522:../Libraries/StdPeripheralDriver/src/stm32f10x_flash.c ****     FLASH->CR2 &= CR_MER_Reset;
 523:../Libraries/StdPeripheralDriver/src/stm32f10x_flash.c ****   }
 524:../Libraries/StdPeripheralDriver/src/stm32f10x_flash.c **** #else
 525:../Libraries/StdPeripheralDriver/src/stm32f10x_flash.c ****   /* Wait for last operation to be completed */
 526:../Libraries/StdPeripheralDriver/src/stm32f10x_flash.c ****   status = FLASH_WaitForLastOperation(EraseTimeout);
 412              		.loc 1 526 0
 413 000a 4FF43020 		mov	r0, #720896
 414 000e FFF7FEFF 		bl	FLASH_WaitForLastOperation
 415 0012 0346     		mov	r3, r0
 416 0014 FB71     		strb	r3, [r7, #7]
 527:../Libraries/StdPeripheralDriver/src/stm32f10x_flash.c ****   if(status == FLASH_COMPLETE)
 417              		.loc 1 527 0
 418 0016 FB79     		ldrb	r3, [r7, #7]	@ zero_extendqisi2
 419 0018 042B     		cmp	r3, #4
 420 001a 2AD1     		bne	.L12
 528:../Libraries/StdPeripheralDriver/src/stm32f10x_flash.c ****   {
 529:../Libraries/StdPeripheralDriver/src/stm32f10x_flash.c ****     /* if the previous operation is completed, proceed to erase all pages */
 530:../Libraries/StdPeripheralDriver/src/stm32f10x_flash.c ****      FLASH->CR |= CR_MER_Set;
 421              		.loc 1 530 0
 422 001c 4FF40053 		mov	r3, #8192
 423 0020 C4F20203 		movt	r3, 16386
 424 0024 4FF40052 		mov	r2, #8192
 425 0028 C4F20202 		movt	r2, 16386
 426 002c 1269     		ldr	r2, [r2, #16]
 427 002e 42F00402 		orr	r2, r2, #4
 428 0032 1A61     		str	r2, [r3, #16]
 531:../Libraries/StdPeripheralDriver/src/stm32f10x_flash.c ****      FLASH->CR |= CR_STRT_Set;
 429              		.loc 1 531 0
 430 0034 4FF40053 		mov	r3, #8192
 431 0038 C4F20203 		movt	r3, 16386
 432 003c 4FF40052 		mov	r2, #8192
 433 0040 C4F20202 		movt	r2, 16386
 434 0044 1269     		ldr	r2, [r2, #16]
 435 0046 42F04002 		orr	r2, r2, #64
 436 004a 1A61     		str	r2, [r3, #16]
 532:../Libraries/StdPeripheralDriver/src/stm32f10x_flash.c ****     
 533:../Libraries/StdPeripheralDriver/src/stm32f10x_flash.c ****     /* Wait for last operation to be completed */
 534:../Libraries/StdPeripheralDriver/src/stm32f10x_flash.c ****     status = FLASH_WaitForLastOperation(EraseTimeout);
 437              		.loc 1 534 0
 438 004c 4FF43020 		mov	r0, #720896
 439 0050 FFF7FEFF 		bl	FLASH_WaitForLastOperation
 440 0054 0346     		mov	r3, r0
 441 0056 FB71     		strb	r3, [r7, #7]
 535:../Libraries/StdPeripheralDriver/src/stm32f10x_flash.c **** 
 536:../Libraries/StdPeripheralDriver/src/stm32f10x_flash.c ****     /* Disable the MER Bit */
 537:../Libraries/StdPeripheralDriver/src/stm32f10x_flash.c ****     FLASH->CR &= CR_MER_Reset;
 442              		.loc 1 537 0
 443 0058 4FF40053 		mov	r3, #8192
 444 005c C4F20203 		movt	r3, 16386
 445 0060 4FF40052 		mov	r2, #8192
 446 0064 C4F20202 		movt	r2, 16386
 447 0068 1169     		ldr	r1, [r2, #16]
 448 006a 41F6FB72 		movw	r2, #8187
 449 006e 0A40     		ands	r2, r2, r1
 450 0070 1A61     		str	r2, [r3, #16]
 451              	.L12:
 538:../Libraries/StdPeripheralDriver/src/stm32f10x_flash.c ****   }
 539:../Libraries/StdPeripheralDriver/src/stm32f10x_flash.c **** #endif /* STM32F10X_XL */
 540:../Libraries/StdPeripheralDriver/src/stm32f10x_flash.c **** 
 541:../Libraries/StdPeripheralDriver/src/stm32f10x_flash.c ****   /* Return the Erase Status */
 542:../Libraries/StdPeripheralDriver/src/stm32f10x_flash.c ****   return status;
 452              		.loc 1 542 0
 453 0072 FB79     		ldrb	r3, [r7, #7]	@ zero_extendqisi2
 543:../Libraries/StdPeripheralDriver/src/stm32f10x_flash.c **** }
 454              		.loc 1 543 0
 455 0074 1846     		mov	r0, r3
 456 0076 0837     		adds	r7, r7, #8
 457 0078 BD46     		mov	sp, r7
 458              		@ sp needed
 459 007a 80BD     		pop	{r7, pc}
 460              		.cfi_endproc
 461              	.LFE37:
 463              		.section	.text.FLASH_EraseAllBank1Pages,"ax",%progbits
 464              		.align	2
 465              		.global	FLASH_EraseAllBank1Pages
 466              		.thumb
 467              		.thumb_func
 469              	FLASH_EraseAllBank1Pages:
 470              	.LFB38:
 544:../Libraries/StdPeripheralDriver/src/stm32f10x_flash.c **** 
 545:../Libraries/StdPeripheralDriver/src/stm32f10x_flash.c **** /**
 546:../Libraries/StdPeripheralDriver/src/stm32f10x_flash.c ****   * @brief  Erases all Bank1 FLASH pages.
 547:../Libraries/StdPeripheralDriver/src/stm32f10x_flash.c ****   * @note   This function can be used for all STM32F10x devices.
 548:../Libraries/StdPeripheralDriver/src/stm32f10x_flash.c ****   *         - For STM32F10X_XL devices this function erases all Bank1 pages.
 549:../Libraries/StdPeripheralDriver/src/stm32f10x_flash.c ****   *         - For all other devices it erases all Bank1 pages and it is equivalent 
 550:../Libraries/StdPeripheralDriver/src/stm32f10x_flash.c ****   *           to FLASH_EraseAllPages function.
 551:../Libraries/StdPeripheralDriver/src/stm32f10x_flash.c ****   * @param  None
 552:../Libraries/StdPeripheralDriver/src/stm32f10x_flash.c ****   * @retval FLASH Status: The returned value can be: FLASH_ERROR_PG,
 553:../Libraries/StdPeripheralDriver/src/stm32f10x_flash.c ****   *         FLASH_ERROR_WRP, FLASH_COMPLETE or FLASH_TIMEOUT.
 554:../Libraries/StdPeripheralDriver/src/stm32f10x_flash.c ****   */
 555:../Libraries/StdPeripheralDriver/src/stm32f10x_flash.c **** FLASH_Status FLASH_EraseAllBank1Pages(void)
 556:../Libraries/StdPeripheralDriver/src/stm32f10x_flash.c **** {
 471              		.loc 1 556 0
 472              		.cfi_startproc
 473              		@ args = 0, pretend = 0, frame = 8
 474              		@ frame_needed = 1, uses_anonymous_args = 0
 475 0000 80B5     		push	{r7, lr}
 476              		.cfi_def_cfa_offset 8
 477              		.cfi_offset 7, -8
 478              		.cfi_offset 14, -4
 479 0002 82B0     		sub	sp, sp, #8
 480              		.cfi_def_cfa_offset 16
 481 0004 00AF     		add	r7, sp, #0
 482              		.cfi_def_cfa_register 7
 557:../Libraries/StdPeripheralDriver/src/stm32f10x_flash.c ****   FLASH_Status status = FLASH_COMPLETE;
 483              		.loc 1 557 0
 484 0006 0423     		movs	r3, #4
 485 0008 FB71     		strb	r3, [r7, #7]
 558:../Libraries/StdPeripheralDriver/src/stm32f10x_flash.c ****   /* Wait for last operation to be completed */
 559:../Libraries/StdPeripheralDriver/src/stm32f10x_flash.c ****   status = FLASH_WaitForLastBank1Operation(EraseTimeout);
 486              		.loc 1 559 0
 487 000a 4FF43020 		mov	r0, #720896
 488 000e FFF7FEFF 		bl	FLASH_WaitForLastBank1Operation
 489 0012 0346     		mov	r3, r0
 490 0014 FB71     		strb	r3, [r7, #7]
 560:../Libraries/StdPeripheralDriver/src/stm32f10x_flash.c ****   
 561:../Libraries/StdPeripheralDriver/src/stm32f10x_flash.c ****   if(status == FLASH_COMPLETE)
 491              		.loc 1 561 0
 492 0016 FB79     		ldrb	r3, [r7, #7]	@ zero_extendqisi2
 493 0018 042B     		cmp	r3, #4
 494 001a 2AD1     		bne	.L15
 562:../Libraries/StdPeripheralDriver/src/stm32f10x_flash.c ****   {
 563:../Libraries/StdPeripheralDriver/src/stm32f10x_flash.c ****     /* if the previous operation is completed, proceed to erase all pages */
 564:../Libraries/StdPeripheralDriver/src/stm32f10x_flash.c ****      FLASH->CR |= CR_MER_Set;
 495              		.loc 1 564 0
 496 001c 4FF40053 		mov	r3, #8192
 497 0020 C4F20203 		movt	r3, 16386
 498 0024 4FF40052 		mov	r2, #8192
 499 0028 C4F20202 		movt	r2, 16386
 500 002c 1269     		ldr	r2, [r2, #16]
 501 002e 42F00402 		orr	r2, r2, #4
 502 0032 1A61     		str	r2, [r3, #16]
 565:../Libraries/StdPeripheralDriver/src/stm32f10x_flash.c ****      FLASH->CR |= CR_STRT_Set;
 503              		.loc 1 565 0
 504 0034 4FF40053 		mov	r3, #8192
 505 0038 C4F20203 		movt	r3, 16386
 506 003c 4FF40052 		mov	r2, #8192
 507 0040 C4F20202 		movt	r2, 16386
 508 0044 1269     		ldr	r2, [r2, #16]
 509 0046 42F04002 		orr	r2, r2, #64
 510 004a 1A61     		str	r2, [r3, #16]
 566:../Libraries/StdPeripheralDriver/src/stm32f10x_flash.c ****     
 567:../Libraries/StdPeripheralDriver/src/stm32f10x_flash.c ****     /* Wait for last operation to be completed */
 568:../Libraries/StdPeripheralDriver/src/stm32f10x_flash.c ****     status = FLASH_WaitForLastBank1Operation(EraseTimeout);
 511              		.loc 1 568 0
 512 004c 4FF43020 		mov	r0, #720896
 513 0050 FFF7FEFF 		bl	FLASH_WaitForLastBank1Operation
 514 0054 0346     		mov	r3, r0
 515 0056 FB71     		strb	r3, [r7, #7]
 569:../Libraries/StdPeripheralDriver/src/stm32f10x_flash.c ****     
 570:../Libraries/StdPeripheralDriver/src/stm32f10x_flash.c ****     /* Disable the MER Bit */
 571:../Libraries/StdPeripheralDriver/src/stm32f10x_flash.c ****     FLASH->CR &= CR_MER_Reset;
 516              		.loc 1 571 0
 517 0058 4FF40053 		mov	r3, #8192
 518 005c C4F20203 		movt	r3, 16386
 519 0060 4FF40052 		mov	r2, #8192
 520 0064 C4F20202 		movt	r2, 16386
 521 0068 1169     		ldr	r1, [r2, #16]
 522 006a 41F6FB72 		movw	r2, #8187
 523 006e 0A40     		ands	r2, r2, r1
 524 0070 1A61     		str	r2, [r3, #16]
 525              	.L15:
 572:../Libraries/StdPeripheralDriver/src/stm32f10x_flash.c ****   }    
 573:../Libraries/StdPeripheralDriver/src/stm32f10x_flash.c ****   /* Return the Erase Status */
 574:../Libraries/StdPeripheralDriver/src/stm32f10x_flash.c ****   return status;
 526              		.loc 1 574 0
 527 0072 FB79     		ldrb	r3, [r7, #7]	@ zero_extendqisi2
 575:../Libraries/StdPeripheralDriver/src/stm32f10x_flash.c **** }
 528              		.loc 1 575 0
 529 0074 1846     		mov	r0, r3
 530 0076 0837     		adds	r7, r7, #8
 531 0078 BD46     		mov	sp, r7
 532              		@ sp needed
 533 007a 80BD     		pop	{r7, pc}
 534              		.cfi_endproc
 535              	.LFE38:
 537              		.section	.text.FLASH_EraseOptionBytes,"ax",%progbits
 538              		.align	2
 539              		.global	FLASH_EraseOptionBytes
 540              		.thumb
 541              		.thumb_func
 543              	FLASH_EraseOptionBytes:
 544              	.LFB39:
 576:../Libraries/StdPeripheralDriver/src/stm32f10x_flash.c **** 
 577:../Libraries/StdPeripheralDriver/src/stm32f10x_flash.c **** #ifdef STM32F10X_XL
 578:../Libraries/StdPeripheralDriver/src/stm32f10x_flash.c **** /**
 579:../Libraries/StdPeripheralDriver/src/stm32f10x_flash.c ****   * @brief  Erases all Bank2 FLASH pages.
 580:../Libraries/StdPeripheralDriver/src/stm32f10x_flash.c ****   * @note   This function can be used only for STM32F10x_XL density devices.
 581:../Libraries/StdPeripheralDriver/src/stm32f10x_flash.c ****   * @param  None
 582:../Libraries/StdPeripheralDriver/src/stm32f10x_flash.c ****   * @retval FLASH Status: The returned value can be: FLASH_ERROR_PG,
 583:../Libraries/StdPeripheralDriver/src/stm32f10x_flash.c ****   *         FLASH_ERROR_WRP, FLASH_COMPLETE or FLASH_TIMEOUT.
 584:../Libraries/StdPeripheralDriver/src/stm32f10x_flash.c ****   */
 585:../Libraries/StdPeripheralDriver/src/stm32f10x_flash.c **** FLASH_Status FLASH_EraseAllBank2Pages(void)
 586:../Libraries/StdPeripheralDriver/src/stm32f10x_flash.c **** {
 587:../Libraries/StdPeripheralDriver/src/stm32f10x_flash.c ****   FLASH_Status status = FLASH_COMPLETE;
 588:../Libraries/StdPeripheralDriver/src/stm32f10x_flash.c ****   /* Wait for last operation to be completed */
 589:../Libraries/StdPeripheralDriver/src/stm32f10x_flash.c ****   status = FLASH_WaitForLastBank2Operation(EraseTimeout);
 590:../Libraries/StdPeripheralDriver/src/stm32f10x_flash.c ****   
 591:../Libraries/StdPeripheralDriver/src/stm32f10x_flash.c ****   if(status == FLASH_COMPLETE)
 592:../Libraries/StdPeripheralDriver/src/stm32f10x_flash.c ****   {
 593:../Libraries/StdPeripheralDriver/src/stm32f10x_flash.c ****     /* if the previous operation is completed, proceed to erase all pages */
 594:../Libraries/StdPeripheralDriver/src/stm32f10x_flash.c ****      FLASH->CR2 |= CR_MER_Set;
 595:../Libraries/StdPeripheralDriver/src/stm32f10x_flash.c ****      FLASH->CR2 |= CR_STRT_Set;
 596:../Libraries/StdPeripheralDriver/src/stm32f10x_flash.c ****     
 597:../Libraries/StdPeripheralDriver/src/stm32f10x_flash.c ****     /* Wait for last operation to be completed */
 598:../Libraries/StdPeripheralDriver/src/stm32f10x_flash.c ****     status = FLASH_WaitForLastBank2Operation(EraseTimeout);
 599:../Libraries/StdPeripheralDriver/src/stm32f10x_flash.c **** 
 600:../Libraries/StdPeripheralDriver/src/stm32f10x_flash.c ****     /* Disable the MER Bit */
 601:../Libraries/StdPeripheralDriver/src/stm32f10x_flash.c ****     FLASH->CR2 &= CR_MER_Reset;
 602:../Libraries/StdPeripheralDriver/src/stm32f10x_flash.c ****   }    
 603:../Libraries/StdPeripheralDriver/src/stm32f10x_flash.c ****   /* Return the Erase Status */
 604:../Libraries/StdPeripheralDriver/src/stm32f10x_flash.c ****   return status;
 605:../Libraries/StdPeripheralDriver/src/stm32f10x_flash.c **** }
 606:../Libraries/StdPeripheralDriver/src/stm32f10x_flash.c **** #endif /* STM32F10X_XL */
 607:../Libraries/StdPeripheralDriver/src/stm32f10x_flash.c **** 
 608:../Libraries/StdPeripheralDriver/src/stm32f10x_flash.c **** /**
 609:../Libraries/StdPeripheralDriver/src/stm32f10x_flash.c ****   * @brief  Erases the FLASH option bytes.
 610:../Libraries/StdPeripheralDriver/src/stm32f10x_flash.c ****   * @note   This functions erases all option bytes except the Read protection (RDP). 
 611:../Libraries/StdPeripheralDriver/src/stm32f10x_flash.c ****   * @note   This function can be used for all STM32F10x devices.
 612:../Libraries/StdPeripheralDriver/src/stm32f10x_flash.c ****   * @param  None
 613:../Libraries/StdPeripheralDriver/src/stm32f10x_flash.c ****   * @retval FLASH Status: The returned value can be: FLASH_ERROR_PG,
 614:../Libraries/StdPeripheralDriver/src/stm32f10x_flash.c ****   *         FLASH_ERROR_WRP, FLASH_COMPLETE or FLASH_TIMEOUT.
 615:../Libraries/StdPeripheralDriver/src/stm32f10x_flash.c ****   */
 616:../Libraries/StdPeripheralDriver/src/stm32f10x_flash.c **** FLASH_Status FLASH_EraseOptionBytes(void)
 617:../Libraries/StdPeripheralDriver/src/stm32f10x_flash.c **** {
 545              		.loc 1 617 0
 546              		.cfi_startproc
 547              		@ args = 0, pretend = 0, frame = 8
 548              		@ frame_needed = 1, uses_anonymous_args = 0
 549 0000 80B5     		push	{r7, lr}
 550              		.cfi_def_cfa_offset 8
 551              		.cfi_offset 7, -8
 552              		.cfi_offset 14, -4
 553 0002 82B0     		sub	sp, sp, #8
 554              		.cfi_def_cfa_offset 16
 555 0004 00AF     		add	r7, sp, #0
 556              		.cfi_def_cfa_register 7
 618:../Libraries/StdPeripheralDriver/src/stm32f10x_flash.c ****   uint16_t rdptmp = RDP_Key;
 557              		.loc 1 618 0
 558 0006 A523     		movs	r3, #165
 559 0008 FB80     		strh	r3, [r7, #6]	@ movhi
 619:../Libraries/StdPeripheralDriver/src/stm32f10x_flash.c **** 
 620:../Libraries/StdPeripheralDriver/src/stm32f10x_flash.c ****   FLASH_Status status = FLASH_COMPLETE;
 560              		.loc 1 620 0
 561 000a 0423     		movs	r3, #4
 562 000c 7B71     		strb	r3, [r7, #5]
 621:../Libraries/StdPeripheralDriver/src/stm32f10x_flash.c **** 
 622:../Libraries/StdPeripheralDriver/src/stm32f10x_flash.c ****   /* Get the actual read protection Option Byte value */ 
 623:../Libraries/StdPeripheralDriver/src/stm32f10x_flash.c ****   if(FLASH_GetReadOutProtectionStatus() != RESET)
 563              		.loc 1 623 0
 564 000e FFF7FEFF 		bl	FLASH_GetReadOutProtectionStatus
 565 0012 0346     		mov	r3, r0
 566 0014 002B     		cmp	r3, #0
 567 0016 01D0     		beq	.L18
 624:../Libraries/StdPeripheralDriver/src/stm32f10x_flash.c ****   {
 625:../Libraries/StdPeripheralDriver/src/stm32f10x_flash.c ****     rdptmp = 0x00;  
 568              		.loc 1 625 0
 569 0018 0023     		movs	r3, #0
 570 001a FB80     		strh	r3, [r7, #6]	@ movhi
 571              	.L18:
 626:../Libraries/StdPeripheralDriver/src/stm32f10x_flash.c ****   }
 627:../Libraries/StdPeripheralDriver/src/stm32f10x_flash.c **** 
 628:../Libraries/StdPeripheralDriver/src/stm32f10x_flash.c ****   /* Wait for last operation to be completed */
 629:../Libraries/StdPeripheralDriver/src/stm32f10x_flash.c ****   status = FLASH_WaitForLastOperation(EraseTimeout);
 572              		.loc 1 629 0
 573 001c 4FF43020 		mov	r0, #720896
 574 0020 FFF7FEFF 		bl	FLASH_WaitForLastOperation
 575 0024 0346     		mov	r3, r0
 576 0026 7B71     		strb	r3, [r7, #5]
 630:../Libraries/StdPeripheralDriver/src/stm32f10x_flash.c ****   if(status == FLASH_COMPLETE)
 577              		.loc 1 630 0
 578 0028 7B79     		ldrb	r3, [r7, #5]	@ zero_extendqisi2
 579 002a 042B     		cmp	r3, #4
 580 002c 78D1     		bne	.L19
 631:../Libraries/StdPeripheralDriver/src/stm32f10x_flash.c ****   {
 632:../Libraries/StdPeripheralDriver/src/stm32f10x_flash.c ****     /* Authorize the small information block programming */
 633:../Libraries/StdPeripheralDriver/src/stm32f10x_flash.c ****     FLASH->OPTKEYR = FLASH_KEY1;
 581              		.loc 1 633 0
 582 002e 4FF40053 		mov	r3, #8192
 583 0032 C4F20203 		movt	r3, 16386
 584 0036 40F22312 		movw	r2, #291
 585 003a C4F26752 		movt	r2, 17767
 586 003e 9A60     		str	r2, [r3, #8]
 634:../Libraries/StdPeripheralDriver/src/stm32f10x_flash.c ****     FLASH->OPTKEYR = FLASH_KEY2;
 587              		.loc 1 634 0
 588 0040 4FF40053 		mov	r3, #8192
 589 0044 C4F20203 		movt	r3, 16386
 590 0048 48F6AB12 		movw	r2, #35243
 591 004c CCF6EF52 		movt	r2, 52719
 592 0050 9A60     		str	r2, [r3, #8]
 635:../Libraries/StdPeripheralDriver/src/stm32f10x_flash.c ****     
 636:../Libraries/StdPeripheralDriver/src/stm32f10x_flash.c ****     /* if the previous operation is completed, proceed to erase the option bytes */
 637:../Libraries/StdPeripheralDriver/src/stm32f10x_flash.c ****     FLASH->CR |= CR_OPTER_Set;
 593              		.loc 1 637 0
 594 0052 4FF40053 		mov	r3, #8192
 595 0056 C4F20203 		movt	r3, 16386
 596 005a 4FF40052 		mov	r2, #8192
 597 005e C4F20202 		movt	r2, 16386
 598 0062 1269     		ldr	r2, [r2, #16]
 599 0064 42F02002 		orr	r2, r2, #32
 600 0068 1A61     		str	r2, [r3, #16]
 638:../Libraries/StdPeripheralDriver/src/stm32f10x_flash.c ****     FLASH->CR |= CR_STRT_Set;
 601              		.loc 1 638 0
 602 006a 4FF40053 		mov	r3, #8192
 603 006e C4F20203 		movt	r3, 16386
 604 0072 4FF40052 		mov	r2, #8192
 605 0076 C4F20202 		movt	r2, 16386
 606 007a 1269     		ldr	r2, [r2, #16]
 607 007c 42F04002 		orr	r2, r2, #64
 608 0080 1A61     		str	r2, [r3, #16]
 639:../Libraries/StdPeripheralDriver/src/stm32f10x_flash.c ****     /* Wait for last operation to be completed */
 640:../Libraries/StdPeripheralDriver/src/stm32f10x_flash.c ****     status = FLASH_WaitForLastOperation(EraseTimeout);
 609              		.loc 1 640 0
 610 0082 4FF43020 		mov	r0, #720896
 611 0086 FFF7FEFF 		bl	FLASH_WaitForLastOperation
 612 008a 0346     		mov	r3, r0
 613 008c 7B71     		strb	r3, [r7, #5]
 641:../Libraries/StdPeripheralDriver/src/stm32f10x_flash.c ****     
 642:../Libraries/StdPeripheralDriver/src/stm32f10x_flash.c ****     if(status == FLASH_COMPLETE)
 614              		.loc 1 642 0
 615 008e 7B79     		ldrb	r3, [r7, #5]	@ zero_extendqisi2
 616 0090 042B     		cmp	r3, #4
 617 0092 35D1     		bne	.L20
 643:../Libraries/StdPeripheralDriver/src/stm32f10x_flash.c ****     {
 644:../Libraries/StdPeripheralDriver/src/stm32f10x_flash.c ****       /* if the erase operation is completed, disable the OPTER Bit */
 645:../Libraries/StdPeripheralDriver/src/stm32f10x_flash.c ****       FLASH->CR &= CR_OPTER_Reset;
 618              		.loc 1 645 0
 619 0094 4FF40053 		mov	r3, #8192
 620 0098 C4F20203 		movt	r3, 16386
 621 009c 4FF40052 		mov	r2, #8192
 622 00a0 C4F20202 		movt	r2, 16386
 623 00a4 1169     		ldr	r1, [r2, #16]
 624 00a6 41F6DF72 		movw	r2, #8159
 625 00aa 0A40     		ands	r2, r2, r1
 626 00ac 1A61     		str	r2, [r3, #16]
 646:../Libraries/StdPeripheralDriver/src/stm32f10x_flash.c ****        
 647:../Libraries/StdPeripheralDriver/src/stm32f10x_flash.c ****       /* Enable the Option Bytes Programming operation */
 648:../Libraries/StdPeripheralDriver/src/stm32f10x_flash.c ****       FLASH->CR |= CR_OPTPG_Set;
 627              		.loc 1 648 0
 628 00ae 4FF40053 		mov	r3, #8192
 629 00b2 C4F20203 		movt	r3, 16386
 630 00b6 4FF40052 		mov	r2, #8192
 631 00ba C4F20202 		movt	r2, 16386
 632 00be 1269     		ldr	r2, [r2, #16]
 633 00c0 42F01002 		orr	r2, r2, #16
 634 00c4 1A61     		str	r2, [r3, #16]
 649:../Libraries/StdPeripheralDriver/src/stm32f10x_flash.c ****       /* Restore the last read protection Option Byte value */
 650:../Libraries/StdPeripheralDriver/src/stm32f10x_flash.c ****       OB->RDP = (uint16_t)rdptmp; 
 635              		.loc 1 650 0
 636 00c6 4FF47843 		mov	r3, #63488
 637 00ca C1F6FF73 		movt	r3, 8191
 638 00ce FA88     		ldrh	r2, [r7, #6]	@ movhi
 639 00d0 1A80     		strh	r2, [r3]	@ movhi
 651:../Libraries/StdPeripheralDriver/src/stm32f10x_flash.c ****       /* Wait for last operation to be completed */
 652:../Libraries/StdPeripheralDriver/src/stm32f10x_flash.c ****       status = FLASH_WaitForLastOperation(ProgramTimeout);
 640              		.loc 1 652 0
 641 00d2 4FF40050 		mov	r0, #8192
 642 00d6 FFF7FEFF 		bl	FLASH_WaitForLastOperation
 643 00da 0346     		mov	r3, r0
 644 00dc 7B71     		strb	r3, [r7, #5]
 653:../Libraries/StdPeripheralDriver/src/stm32f10x_flash.c ****  
 654:../Libraries/StdPeripheralDriver/src/stm32f10x_flash.c ****       if(status != FLASH_TIMEOUT)
 645              		.loc 1 654 0
 646 00de 7B79     		ldrb	r3, [r7, #5]	@ zero_extendqisi2
 647 00e0 052B     		cmp	r3, #5
 648 00e2 1DD0     		beq	.L19
 655:../Libraries/StdPeripheralDriver/src/stm32f10x_flash.c ****       {
 656:../Libraries/StdPeripheralDriver/src/stm32f10x_flash.c ****         /* if the program operation is completed, disable the OPTPG Bit */
 657:../Libraries/StdPeripheralDriver/src/stm32f10x_flash.c ****         FLASH->CR &= CR_OPTPG_Reset;
 649              		.loc 1 657 0
 650 00e4 4FF40053 		mov	r3, #8192
 651 00e8 C4F20203 		movt	r3, 16386
 652 00ec 4FF40052 		mov	r2, #8192
 653 00f0 C4F20202 		movt	r2, 16386
 654 00f4 1169     		ldr	r1, [r2, #16]
 655 00f6 41F6EF72 		movw	r2, #8175
 656 00fa 0A40     		ands	r2, r2, r1
 657 00fc 1A61     		str	r2, [r3, #16]
 658 00fe 0FE0     		b	.L19
 659              	.L20:
 658:../Libraries/StdPeripheralDriver/src/stm32f10x_flash.c ****       }
 659:../Libraries/StdPeripheralDriver/src/stm32f10x_flash.c ****     }
 660:../Libraries/StdPeripheralDriver/src/stm32f10x_flash.c ****     else
 661:../Libraries/StdPeripheralDriver/src/stm32f10x_flash.c ****     {
 662:../Libraries/StdPeripheralDriver/src/stm32f10x_flash.c ****       if (status != FLASH_TIMEOUT)
 660              		.loc 1 662 0
 661 0100 7B79     		ldrb	r3, [r7, #5]	@ zero_extendqisi2
 662 0102 052B     		cmp	r3, #5
 663 0104 0CD0     		beq	.L19
 663:../Libraries/StdPeripheralDriver/src/stm32f10x_flash.c ****       {
 664:../Libraries/StdPeripheralDriver/src/stm32f10x_flash.c ****         /* Disable the OPTPG Bit */
 665:../Libraries/StdPeripheralDriver/src/stm32f10x_flash.c ****         FLASH->CR &= CR_OPTPG_Reset;
 664              		.loc 1 665 0
 665 0106 4FF40053 		mov	r3, #8192
 666 010a C4F20203 		movt	r3, 16386
 667 010e 4FF40052 		mov	r2, #8192
 668 0112 C4F20202 		movt	r2, 16386
 669 0116 1169     		ldr	r1, [r2, #16]
 670 0118 41F6EF72 		movw	r2, #8175
 671 011c 0A40     		ands	r2, r2, r1
 672 011e 1A61     		str	r2, [r3, #16]
 673              	.L19:
 666:../Libraries/StdPeripheralDriver/src/stm32f10x_flash.c ****       }
 667:../Libraries/StdPeripheralDriver/src/stm32f10x_flash.c ****     }  
 668:../Libraries/StdPeripheralDriver/src/stm32f10x_flash.c ****   }
 669:../Libraries/StdPeripheralDriver/src/stm32f10x_flash.c ****   /* Return the erase status */
 670:../Libraries/StdPeripheralDriver/src/stm32f10x_flash.c ****   return status;
 674              		.loc 1 670 0
 675 0120 7B79     		ldrb	r3, [r7, #5]	@ zero_extendqisi2
 671:../Libraries/StdPeripheralDriver/src/stm32f10x_flash.c **** }
 676              		.loc 1 671 0
 677 0122 1846     		mov	r0, r3
 678 0124 0837     		adds	r7, r7, #8
 679 0126 BD46     		mov	sp, r7
 680              		@ sp needed
 681 0128 80BD     		pop	{r7, pc}
 682              		.cfi_endproc
 683              	.LFE39:
 685 012a 00BF     		.section	.text.FLASH_ProgramWord,"ax",%progbits
 686              		.align	2
 687              		.global	FLASH_ProgramWord
 688              		.thumb
 689              		.thumb_func
 691              	FLASH_ProgramWord:
 692              	.LFB40:
 672:../Libraries/StdPeripheralDriver/src/stm32f10x_flash.c **** 
 673:../Libraries/StdPeripheralDriver/src/stm32f10x_flash.c **** /**
 674:../Libraries/StdPeripheralDriver/src/stm32f10x_flash.c ****   * @brief  Programs a word at a specified address.
 675:../Libraries/StdPeripheralDriver/src/stm32f10x_flash.c ****   * @note   This function can be used for all STM32F10x devices.
 676:../Libraries/StdPeripheralDriver/src/stm32f10x_flash.c ****   * @param  Address: specifies the address to be programmed.
 677:../Libraries/StdPeripheralDriver/src/stm32f10x_flash.c ****   * @param  Data: specifies the data to be programmed.
 678:../Libraries/StdPeripheralDriver/src/stm32f10x_flash.c ****   * @retval FLASH Status: The returned value can be: FLASH_ERROR_PG,
 679:../Libraries/StdPeripheralDriver/src/stm32f10x_flash.c ****   *         FLASH_ERROR_WRP, FLASH_COMPLETE or FLASH_TIMEOUT. 
 680:../Libraries/StdPeripheralDriver/src/stm32f10x_flash.c ****   */
 681:../Libraries/StdPeripheralDriver/src/stm32f10x_flash.c **** FLASH_Status FLASH_ProgramWord(uint32_t Address, uint32_t Data)
 682:../Libraries/StdPeripheralDriver/src/stm32f10x_flash.c **** {
 693              		.loc 1 682 0
 694              		.cfi_startproc
 695              		@ args = 0, pretend = 0, frame = 16
 696              		@ frame_needed = 1, uses_anonymous_args = 0
 697 0000 80B5     		push	{r7, lr}
 698              		.cfi_def_cfa_offset 8
 699              		.cfi_offset 7, -8
 700              		.cfi_offset 14, -4
 701 0002 84B0     		sub	sp, sp, #16
 702              		.cfi_def_cfa_offset 24
 703 0004 00AF     		add	r7, sp, #0
 704              		.cfi_def_cfa_register 7
 705 0006 7860     		str	r0, [r7, #4]
 706 0008 3960     		str	r1, [r7]
 683:../Libraries/StdPeripheralDriver/src/stm32f10x_flash.c ****   FLASH_Status status = FLASH_COMPLETE;
 707              		.loc 1 683 0
 708 000a 0423     		movs	r3, #4
 709 000c FB73     		strb	r3, [r7, #15]
 684:../Libraries/StdPeripheralDriver/src/stm32f10x_flash.c ****   __IO uint32_t tmp = 0;
 710              		.loc 1 684 0
 711 000e 0023     		movs	r3, #0
 712 0010 BB60     		str	r3, [r7, #8]
 685:../Libraries/StdPeripheralDriver/src/stm32f10x_flash.c **** 
 686:../Libraries/StdPeripheralDriver/src/stm32f10x_flash.c ****   /* Check the parameters */
 687:../Libraries/StdPeripheralDriver/src/stm32f10x_flash.c ****   assert_param(IS_FLASH_ADDRESS(Address));
 688:../Libraries/StdPeripheralDriver/src/stm32f10x_flash.c **** 
 689:../Libraries/StdPeripheralDriver/src/stm32f10x_flash.c **** #ifdef STM32F10X_XL
 690:../Libraries/StdPeripheralDriver/src/stm32f10x_flash.c ****   if(Address < FLASH_BANK1_END_ADDRESS - 2)
 691:../Libraries/StdPeripheralDriver/src/stm32f10x_flash.c ****   { 
 692:../Libraries/StdPeripheralDriver/src/stm32f10x_flash.c ****     /* Wait for last operation to be completed */
 693:../Libraries/StdPeripheralDriver/src/stm32f10x_flash.c ****     status = FLASH_WaitForLastBank1Operation(ProgramTimeout); 
 694:../Libraries/StdPeripheralDriver/src/stm32f10x_flash.c ****     if(status == FLASH_COMPLETE)
 695:../Libraries/StdPeripheralDriver/src/stm32f10x_flash.c ****     {
 696:../Libraries/StdPeripheralDriver/src/stm32f10x_flash.c ****       /* if the previous operation is completed, proceed to program the new first 
 697:../Libraries/StdPeripheralDriver/src/stm32f10x_flash.c ****         half word */
 698:../Libraries/StdPeripheralDriver/src/stm32f10x_flash.c ****       FLASH->CR |= CR_PG_Set;
 699:../Libraries/StdPeripheralDriver/src/stm32f10x_flash.c ****   
 700:../Libraries/StdPeripheralDriver/src/stm32f10x_flash.c ****       *(__IO uint16_t*)Address = (uint16_t)Data;
 701:../Libraries/StdPeripheralDriver/src/stm32f10x_flash.c ****       /* Wait for last operation to be completed */
 702:../Libraries/StdPeripheralDriver/src/stm32f10x_flash.c ****       status = FLASH_WaitForLastOperation(ProgramTimeout);
 703:../Libraries/StdPeripheralDriver/src/stm32f10x_flash.c ****  
 704:../Libraries/StdPeripheralDriver/src/stm32f10x_flash.c ****       if(status == FLASH_COMPLETE)
 705:../Libraries/StdPeripheralDriver/src/stm32f10x_flash.c ****       {
 706:../Libraries/StdPeripheralDriver/src/stm32f10x_flash.c ****         /* if the previous operation is completed, proceed to program the new second 
 707:../Libraries/StdPeripheralDriver/src/stm32f10x_flash.c ****         half word */
 708:../Libraries/StdPeripheralDriver/src/stm32f10x_flash.c ****         tmp = Address + 2;
 709:../Libraries/StdPeripheralDriver/src/stm32f10x_flash.c **** 
 710:../Libraries/StdPeripheralDriver/src/stm32f10x_flash.c ****         *(__IO uint16_t*) tmp = Data >> 16;
 711:../Libraries/StdPeripheralDriver/src/stm32f10x_flash.c ****     
 712:../Libraries/StdPeripheralDriver/src/stm32f10x_flash.c ****         /* Wait for last operation to be completed */
 713:../Libraries/StdPeripheralDriver/src/stm32f10x_flash.c ****         status = FLASH_WaitForLastOperation(ProgramTimeout);
 714:../Libraries/StdPeripheralDriver/src/stm32f10x_flash.c ****         
 715:../Libraries/StdPeripheralDriver/src/stm32f10x_flash.c ****         /* Disable the PG Bit */
 716:../Libraries/StdPeripheralDriver/src/stm32f10x_flash.c ****         FLASH->CR &= CR_PG_Reset;
 717:../Libraries/StdPeripheralDriver/src/stm32f10x_flash.c ****       }
 718:../Libraries/StdPeripheralDriver/src/stm32f10x_flash.c ****       else
 719:../Libraries/StdPeripheralDriver/src/stm32f10x_flash.c ****       {
 720:../Libraries/StdPeripheralDriver/src/stm32f10x_flash.c ****         /* Disable the PG Bit */
 721:../Libraries/StdPeripheralDriver/src/stm32f10x_flash.c ****         FLASH->CR &= CR_PG_Reset;
 722:../Libraries/StdPeripheralDriver/src/stm32f10x_flash.c ****        }
 723:../Libraries/StdPeripheralDriver/src/stm32f10x_flash.c ****     }
 724:../Libraries/StdPeripheralDriver/src/stm32f10x_flash.c ****   }
 725:../Libraries/StdPeripheralDriver/src/stm32f10x_flash.c ****   else if(Address == (FLASH_BANK1_END_ADDRESS - 1))
 726:../Libraries/StdPeripheralDriver/src/stm32f10x_flash.c ****   {
 727:../Libraries/StdPeripheralDriver/src/stm32f10x_flash.c ****     /* Wait for last operation to be completed */
 728:../Libraries/StdPeripheralDriver/src/stm32f10x_flash.c ****     status = FLASH_WaitForLastBank1Operation(ProgramTimeout);
 729:../Libraries/StdPeripheralDriver/src/stm32f10x_flash.c **** 
 730:../Libraries/StdPeripheralDriver/src/stm32f10x_flash.c ****     if(status == FLASH_COMPLETE)
 731:../Libraries/StdPeripheralDriver/src/stm32f10x_flash.c ****     {
 732:../Libraries/StdPeripheralDriver/src/stm32f10x_flash.c ****       /* if the previous operation is completed, proceed to program the new first 
 733:../Libraries/StdPeripheralDriver/src/stm32f10x_flash.c ****         half word */
 734:../Libraries/StdPeripheralDriver/src/stm32f10x_flash.c ****       FLASH->CR |= CR_PG_Set;
 735:../Libraries/StdPeripheralDriver/src/stm32f10x_flash.c ****   
 736:../Libraries/StdPeripheralDriver/src/stm32f10x_flash.c ****       *(__IO uint16_t*)Address = (uint16_t)Data;
 737:../Libraries/StdPeripheralDriver/src/stm32f10x_flash.c **** 
 738:../Libraries/StdPeripheralDriver/src/stm32f10x_flash.c ****       /* Wait for last operation to be completed */
 739:../Libraries/StdPeripheralDriver/src/stm32f10x_flash.c ****       status = FLASH_WaitForLastBank1Operation(ProgramTimeout);
 740:../Libraries/StdPeripheralDriver/src/stm32f10x_flash.c ****       
 741:../Libraries/StdPeripheralDriver/src/stm32f10x_flash.c **** 	  /* Disable the PG Bit */
 742:../Libraries/StdPeripheralDriver/src/stm32f10x_flash.c ****       FLASH->CR &= CR_PG_Reset;
 743:../Libraries/StdPeripheralDriver/src/stm32f10x_flash.c ****     }
 744:../Libraries/StdPeripheralDriver/src/stm32f10x_flash.c ****     else
 745:../Libraries/StdPeripheralDriver/src/stm32f10x_flash.c ****     {
 746:../Libraries/StdPeripheralDriver/src/stm32f10x_flash.c ****       /* Disable the PG Bit */
 747:../Libraries/StdPeripheralDriver/src/stm32f10x_flash.c ****       FLASH->CR &= CR_PG_Reset;
 748:../Libraries/StdPeripheralDriver/src/stm32f10x_flash.c ****     }
 749:../Libraries/StdPeripheralDriver/src/stm32f10x_flash.c **** 
 750:../Libraries/StdPeripheralDriver/src/stm32f10x_flash.c ****     /* Wait for last operation to be completed */
 751:../Libraries/StdPeripheralDriver/src/stm32f10x_flash.c ****     status = FLASH_WaitForLastBank2Operation(ProgramTimeout);
 752:../Libraries/StdPeripheralDriver/src/stm32f10x_flash.c **** 
 753:../Libraries/StdPeripheralDriver/src/stm32f10x_flash.c ****     if(status == FLASH_COMPLETE)
 754:../Libraries/StdPeripheralDriver/src/stm32f10x_flash.c ****     {
 755:../Libraries/StdPeripheralDriver/src/stm32f10x_flash.c ****       /* if the previous operation is completed, proceed to program the new second 
 756:../Libraries/StdPeripheralDriver/src/stm32f10x_flash.c ****       half word */
 757:../Libraries/StdPeripheralDriver/src/stm32f10x_flash.c ****       FLASH->CR2 |= CR_PG_Set;
 758:../Libraries/StdPeripheralDriver/src/stm32f10x_flash.c ****       tmp = Address + 2;
 759:../Libraries/StdPeripheralDriver/src/stm32f10x_flash.c **** 
 760:../Libraries/StdPeripheralDriver/src/stm32f10x_flash.c ****       *(__IO uint16_t*) tmp = Data >> 16;
 761:../Libraries/StdPeripheralDriver/src/stm32f10x_flash.c ****     
 762:../Libraries/StdPeripheralDriver/src/stm32f10x_flash.c ****       /* Wait for last operation to be completed */
 763:../Libraries/StdPeripheralDriver/src/stm32f10x_flash.c ****       status = FLASH_WaitForLastBank2Operation(ProgramTimeout);
 764:../Libraries/StdPeripheralDriver/src/stm32f10x_flash.c ****         
 765:../Libraries/StdPeripheralDriver/src/stm32f10x_flash.c ****       /* Disable the PG Bit */
 766:../Libraries/StdPeripheralDriver/src/stm32f10x_flash.c ****       FLASH->CR2 &= CR_PG_Reset;
 767:../Libraries/StdPeripheralDriver/src/stm32f10x_flash.c ****     }
 768:../Libraries/StdPeripheralDriver/src/stm32f10x_flash.c ****     else
 769:../Libraries/StdPeripheralDriver/src/stm32f10x_flash.c ****     {
 770:../Libraries/StdPeripheralDriver/src/stm32f10x_flash.c ****       /* Disable the PG Bit */
 771:../Libraries/StdPeripheralDriver/src/stm32f10x_flash.c ****       FLASH->CR2 &= CR_PG_Reset;
 772:../Libraries/StdPeripheralDriver/src/stm32f10x_flash.c ****     }
 773:../Libraries/StdPeripheralDriver/src/stm32f10x_flash.c ****   }
 774:../Libraries/StdPeripheralDriver/src/stm32f10x_flash.c ****   else
 775:../Libraries/StdPeripheralDriver/src/stm32f10x_flash.c ****   {
 776:../Libraries/StdPeripheralDriver/src/stm32f10x_flash.c ****     /* Wait for last operation to be completed */
 777:../Libraries/StdPeripheralDriver/src/stm32f10x_flash.c ****     status = FLASH_WaitForLastBank2Operation(ProgramTimeout);
 778:../Libraries/StdPeripheralDriver/src/stm32f10x_flash.c **** 
 779:../Libraries/StdPeripheralDriver/src/stm32f10x_flash.c ****     if(status == FLASH_COMPLETE)
 780:../Libraries/StdPeripheralDriver/src/stm32f10x_flash.c ****     {
 781:../Libraries/StdPeripheralDriver/src/stm32f10x_flash.c ****       /* if the previous operation is completed, proceed to program the new first 
 782:../Libraries/StdPeripheralDriver/src/stm32f10x_flash.c ****         half word */
 783:../Libraries/StdPeripheralDriver/src/stm32f10x_flash.c ****       FLASH->CR2 |= CR_PG_Set;
 784:../Libraries/StdPeripheralDriver/src/stm32f10x_flash.c ****   
 785:../Libraries/StdPeripheralDriver/src/stm32f10x_flash.c ****       *(__IO uint16_t*)Address = (uint16_t)Data;
 786:../Libraries/StdPeripheralDriver/src/stm32f10x_flash.c ****       /* Wait for last operation to be completed */
 787:../Libraries/StdPeripheralDriver/src/stm32f10x_flash.c ****       status = FLASH_WaitForLastBank2Operation(ProgramTimeout);
 788:../Libraries/StdPeripheralDriver/src/stm32f10x_flash.c ****  
 789:../Libraries/StdPeripheralDriver/src/stm32f10x_flash.c ****       if(status == FLASH_COMPLETE)
 790:../Libraries/StdPeripheralDriver/src/stm32f10x_flash.c ****       {
 791:../Libraries/StdPeripheralDriver/src/stm32f10x_flash.c ****         /* if the previous operation is completed, proceed to program the new second 
 792:../Libraries/StdPeripheralDriver/src/stm32f10x_flash.c ****         half word */
 793:../Libraries/StdPeripheralDriver/src/stm32f10x_flash.c ****         tmp = Address + 2;
 794:../Libraries/StdPeripheralDriver/src/stm32f10x_flash.c **** 
 795:../Libraries/StdPeripheralDriver/src/stm32f10x_flash.c ****         *(__IO uint16_t*) tmp = Data >> 16;
 796:../Libraries/StdPeripheralDriver/src/stm32f10x_flash.c ****     
 797:../Libraries/StdPeripheralDriver/src/stm32f10x_flash.c ****         /* Wait for last operation to be completed */
 798:../Libraries/StdPeripheralDriver/src/stm32f10x_flash.c ****         status = FLASH_WaitForLastBank2Operation(ProgramTimeout);
 799:../Libraries/StdPeripheralDriver/src/stm32f10x_flash.c ****         
 800:../Libraries/StdPeripheralDriver/src/stm32f10x_flash.c ****         /* Disable the PG Bit */
 801:../Libraries/StdPeripheralDriver/src/stm32f10x_flash.c ****         FLASH->CR2 &= CR_PG_Reset;
 802:../Libraries/StdPeripheralDriver/src/stm32f10x_flash.c ****       }
 803:../Libraries/StdPeripheralDriver/src/stm32f10x_flash.c ****       else
 804:../Libraries/StdPeripheralDriver/src/stm32f10x_flash.c ****       {
 805:../Libraries/StdPeripheralDriver/src/stm32f10x_flash.c ****         /* Disable the PG Bit */
 806:../Libraries/StdPeripheralDriver/src/stm32f10x_flash.c ****         FLASH->CR2 &= CR_PG_Reset;
 807:../Libraries/StdPeripheralDriver/src/stm32f10x_flash.c ****       }
 808:../Libraries/StdPeripheralDriver/src/stm32f10x_flash.c ****     }
 809:../Libraries/StdPeripheralDriver/src/stm32f10x_flash.c ****   }
 810:../Libraries/StdPeripheralDriver/src/stm32f10x_flash.c **** #else
 811:../Libraries/StdPeripheralDriver/src/stm32f10x_flash.c ****   /* Wait for last operation to be completed */
 812:../Libraries/StdPeripheralDriver/src/stm32f10x_flash.c ****   status = FLASH_WaitForLastOperation(ProgramTimeout);
 713              		.loc 1 812 0
 714 0012 4FF40050 		mov	r0, #8192
 715 0016 FFF7FEFF 		bl	FLASH_WaitForLastOperation
 716 001a 0346     		mov	r3, r0
 717 001c FB73     		strb	r3, [r7, #15]
 813:../Libraries/StdPeripheralDriver/src/stm32f10x_flash.c ****   
 814:../Libraries/StdPeripheralDriver/src/stm32f10x_flash.c ****   if(status == FLASH_COMPLETE)
 718              		.loc 1 814 0
 719 001e FB7B     		ldrb	r3, [r7, #15]	@ zero_extendqisi2
 720 0020 042B     		cmp	r3, #4
 721 0022 41D1     		bne	.L24
 815:../Libraries/StdPeripheralDriver/src/stm32f10x_flash.c ****   {
 816:../Libraries/StdPeripheralDriver/src/stm32f10x_flash.c ****     /* if the previous operation is completed, proceed to program the new first 
 817:../Libraries/StdPeripheralDriver/src/stm32f10x_flash.c ****     half word */
 818:../Libraries/StdPeripheralDriver/src/stm32f10x_flash.c ****     FLASH->CR |= CR_PG_Set;
 722              		.loc 1 818 0
 723 0024 4FF40053 		mov	r3, #8192
 724 0028 C4F20203 		movt	r3, 16386
 725 002c 4FF40052 		mov	r2, #8192
 726 0030 C4F20202 		movt	r2, 16386
 727 0034 1269     		ldr	r2, [r2, #16]
 728 0036 42F00102 		orr	r2, r2, #1
 729 003a 1A61     		str	r2, [r3, #16]
 819:../Libraries/StdPeripheralDriver/src/stm32f10x_flash.c ****   
 820:../Libraries/StdPeripheralDriver/src/stm32f10x_flash.c ****     *(__IO uint16_t*)Address = (uint16_t)Data;
 730              		.loc 1 820 0
 731 003c 7B68     		ldr	r3, [r7, #4]
 732 003e 3A68     		ldr	r2, [r7]
 733 0040 92B2     		uxth	r2, r2
 734 0042 1A80     		strh	r2, [r3]	@ movhi
 821:../Libraries/StdPeripheralDriver/src/stm32f10x_flash.c ****     /* Wait for last operation to be completed */
 822:../Libraries/StdPeripheralDriver/src/stm32f10x_flash.c ****     status = FLASH_WaitForLastOperation(ProgramTimeout);
 735              		.loc 1 822 0
 736 0044 4FF40050 		mov	r0, #8192
 737 0048 FFF7FEFF 		bl	FLASH_WaitForLastOperation
 738 004c 0346     		mov	r3, r0
 739 004e FB73     		strb	r3, [r7, #15]
 823:../Libraries/StdPeripheralDriver/src/stm32f10x_flash.c ****  
 824:../Libraries/StdPeripheralDriver/src/stm32f10x_flash.c ****     if(status == FLASH_COMPLETE)
 740              		.loc 1 824 0
 741 0050 FB7B     		ldrb	r3, [r7, #15]	@ zero_extendqisi2
 742 0052 042B     		cmp	r3, #4
 743 0054 1BD1     		bne	.L25
 825:../Libraries/StdPeripheralDriver/src/stm32f10x_flash.c ****     {
 826:../Libraries/StdPeripheralDriver/src/stm32f10x_flash.c ****       /* if the previous operation is completed, proceed to program the new second 
 827:../Libraries/StdPeripheralDriver/src/stm32f10x_flash.c ****       half word */
 828:../Libraries/StdPeripheralDriver/src/stm32f10x_flash.c ****       tmp = Address + 2;
 744              		.loc 1 828 0
 745 0056 7B68     		ldr	r3, [r7, #4]
 746 0058 0233     		adds	r3, r3, #2
 747 005a BB60     		str	r3, [r7, #8]
 829:../Libraries/StdPeripheralDriver/src/stm32f10x_flash.c **** 
 830:../Libraries/StdPeripheralDriver/src/stm32f10x_flash.c ****       *(__IO uint16_t*) tmp = Data >> 16;
 748              		.loc 1 830 0
 749 005c BB68     		ldr	r3, [r7, #8]
 750 005e 3A68     		ldr	r2, [r7]
 751 0060 120C     		lsrs	r2, r2, #16
 752 0062 92B2     		uxth	r2, r2
 753 0064 1A80     		strh	r2, [r3]	@ movhi
 831:../Libraries/StdPeripheralDriver/src/stm32f10x_flash.c ****     
 832:../Libraries/StdPeripheralDriver/src/stm32f10x_flash.c ****       /* Wait for last operation to be completed */
 833:../Libraries/StdPeripheralDriver/src/stm32f10x_flash.c ****       status = FLASH_WaitForLastOperation(ProgramTimeout);
 754              		.loc 1 833 0
 755 0066 4FF40050 		mov	r0, #8192
 756 006a FFF7FEFF 		bl	FLASH_WaitForLastOperation
 757 006e 0346     		mov	r3, r0
 758 0070 FB73     		strb	r3, [r7, #15]
 834:../Libraries/StdPeripheralDriver/src/stm32f10x_flash.c ****         
 835:../Libraries/StdPeripheralDriver/src/stm32f10x_flash.c ****       /* Disable the PG Bit */
 836:../Libraries/StdPeripheralDriver/src/stm32f10x_flash.c ****       FLASH->CR &= CR_PG_Reset;
 759              		.loc 1 836 0
 760 0072 4FF40053 		mov	r3, #8192
 761 0076 C4F20203 		movt	r3, 16386
 762 007a 4FF40052 		mov	r2, #8192
 763 007e C4F20202 		movt	r2, 16386
 764 0082 1169     		ldr	r1, [r2, #16]
 765 0084 41F6FE72 		movw	r2, #8190
 766 0088 0A40     		ands	r2, r2, r1
 767 008a 1A61     		str	r2, [r3, #16]
 768 008c 0CE0     		b	.L24
 769              	.L25:
 837:../Libraries/StdPeripheralDriver/src/stm32f10x_flash.c ****     }
 838:../Libraries/StdPeripheralDriver/src/stm32f10x_flash.c ****     else
 839:../Libraries/StdPeripheralDriver/src/stm32f10x_flash.c ****     {
 840:../Libraries/StdPeripheralDriver/src/stm32f10x_flash.c ****       /* Disable the PG Bit */
 841:../Libraries/StdPeripheralDriver/src/stm32f10x_flash.c ****       FLASH->CR &= CR_PG_Reset;
 770              		.loc 1 841 0
 771 008e 4FF40053 		mov	r3, #8192
 772 0092 C4F20203 		movt	r3, 16386
 773 0096 4FF40052 		mov	r2, #8192
 774 009a C4F20202 		movt	r2, 16386
 775 009e 1169     		ldr	r1, [r2, #16]
 776 00a0 41F6FE72 		movw	r2, #8190
 777 00a4 0A40     		ands	r2, r2, r1
 778 00a6 1A61     		str	r2, [r3, #16]
 779              	.L24:
 842:../Libraries/StdPeripheralDriver/src/stm32f10x_flash.c ****     }
 843:../Libraries/StdPeripheralDriver/src/stm32f10x_flash.c ****   }         
 844:../Libraries/StdPeripheralDriver/src/stm32f10x_flash.c **** #endif /* STM32F10X_XL */
 845:../Libraries/StdPeripheralDriver/src/stm32f10x_flash.c ****    
 846:../Libraries/StdPeripheralDriver/src/stm32f10x_flash.c ****   /* Return the Program Status */
 847:../Libraries/StdPeripheralDriver/src/stm32f10x_flash.c ****   return status;
 780              		.loc 1 847 0
 781 00a8 FB7B     		ldrb	r3, [r7, #15]	@ zero_extendqisi2
 848:../Libraries/StdPeripheralDriver/src/stm32f10x_flash.c **** }
 782              		.loc 1 848 0
 783 00aa 1846     		mov	r0, r3
 784 00ac 1037     		adds	r7, r7, #16
 785 00ae BD46     		mov	sp, r7
 786              		@ sp needed
 787 00b0 80BD     		pop	{r7, pc}
 788              		.cfi_endproc
 789              	.LFE40:
 791 00b2 00BF     		.section	.text.FLASH_ProgramHalfWord,"ax",%progbits
 792              		.align	2
 793              		.global	FLASH_ProgramHalfWord
 794              		.thumb
 795              		.thumb_func
 797              	FLASH_ProgramHalfWord:
 798              	.LFB41:
 849:../Libraries/StdPeripheralDriver/src/stm32f10x_flash.c **** 
 850:../Libraries/StdPeripheralDriver/src/stm32f10x_flash.c **** /**
 851:../Libraries/StdPeripheralDriver/src/stm32f10x_flash.c ****   * @brief  Programs a half word at a specified address.
 852:../Libraries/StdPeripheralDriver/src/stm32f10x_flash.c ****   * @note   This function can be used for all STM32F10x devices.
 853:../Libraries/StdPeripheralDriver/src/stm32f10x_flash.c ****   * @param  Address: specifies the address to be programmed.
 854:../Libraries/StdPeripheralDriver/src/stm32f10x_flash.c ****   * @param  Data: specifies the data to be programmed.
 855:../Libraries/StdPeripheralDriver/src/stm32f10x_flash.c ****   * @retval FLASH Status: The returned value can be: FLASH_ERROR_PG,
 856:../Libraries/StdPeripheralDriver/src/stm32f10x_flash.c ****   *         FLASH_ERROR_WRP, FLASH_COMPLETE or FLASH_TIMEOUT. 
 857:../Libraries/StdPeripheralDriver/src/stm32f10x_flash.c ****   */
 858:../Libraries/StdPeripheralDriver/src/stm32f10x_flash.c **** FLASH_Status FLASH_ProgramHalfWord(uint32_t Address, uint16_t Data)
 859:../Libraries/StdPeripheralDriver/src/stm32f10x_flash.c **** {
 799              		.loc 1 859 0
 800              		.cfi_startproc
 801              		@ args = 0, pretend = 0, frame = 16
 802              		@ frame_needed = 1, uses_anonymous_args = 0
 803 0000 80B5     		push	{r7, lr}
 804              		.cfi_def_cfa_offset 8
 805              		.cfi_offset 7, -8
 806              		.cfi_offset 14, -4
 807 0002 84B0     		sub	sp, sp, #16
 808              		.cfi_def_cfa_offset 24
 809 0004 00AF     		add	r7, sp, #0
 810              		.cfi_def_cfa_register 7
 811 0006 7860     		str	r0, [r7, #4]
 812 0008 0B46     		mov	r3, r1
 813 000a 7B80     		strh	r3, [r7, #2]	@ movhi
 860:../Libraries/StdPeripheralDriver/src/stm32f10x_flash.c ****   FLASH_Status status = FLASH_COMPLETE;
 814              		.loc 1 860 0
 815 000c 0423     		movs	r3, #4
 816 000e FB73     		strb	r3, [r7, #15]
 861:../Libraries/StdPeripheralDriver/src/stm32f10x_flash.c ****   /* Check the parameters */
 862:../Libraries/StdPeripheralDriver/src/stm32f10x_flash.c ****   assert_param(IS_FLASH_ADDRESS(Address));
 863:../Libraries/StdPeripheralDriver/src/stm32f10x_flash.c **** 
 864:../Libraries/StdPeripheralDriver/src/stm32f10x_flash.c **** #ifdef STM32F10X_XL
 865:../Libraries/StdPeripheralDriver/src/stm32f10x_flash.c ****   /* Wait for last operation to be completed */
 866:../Libraries/StdPeripheralDriver/src/stm32f10x_flash.c ****   status = FLASH_WaitForLastOperation(ProgramTimeout);
 867:../Libraries/StdPeripheralDriver/src/stm32f10x_flash.c ****   
 868:../Libraries/StdPeripheralDriver/src/stm32f10x_flash.c ****   if(Address < FLASH_BANK1_END_ADDRESS)
 869:../Libraries/StdPeripheralDriver/src/stm32f10x_flash.c ****   {
 870:../Libraries/StdPeripheralDriver/src/stm32f10x_flash.c ****     if(status == FLASH_COMPLETE)
 871:../Libraries/StdPeripheralDriver/src/stm32f10x_flash.c ****     {
 872:../Libraries/StdPeripheralDriver/src/stm32f10x_flash.c ****       /* if the previous operation is completed, proceed to program the new data */
 873:../Libraries/StdPeripheralDriver/src/stm32f10x_flash.c ****       FLASH->CR |= CR_PG_Set;
 874:../Libraries/StdPeripheralDriver/src/stm32f10x_flash.c ****   
 875:../Libraries/StdPeripheralDriver/src/stm32f10x_flash.c ****       *(__IO uint16_t*)Address = Data;
 876:../Libraries/StdPeripheralDriver/src/stm32f10x_flash.c ****       /* Wait for last operation to be completed */
 877:../Libraries/StdPeripheralDriver/src/stm32f10x_flash.c ****       status = FLASH_WaitForLastBank1Operation(ProgramTimeout);
 878:../Libraries/StdPeripheralDriver/src/stm32f10x_flash.c **** 
 879:../Libraries/StdPeripheralDriver/src/stm32f10x_flash.c ****       /* Disable the PG Bit */
 880:../Libraries/StdPeripheralDriver/src/stm32f10x_flash.c ****       FLASH->CR &= CR_PG_Reset;
 881:../Libraries/StdPeripheralDriver/src/stm32f10x_flash.c ****     }
 882:../Libraries/StdPeripheralDriver/src/stm32f10x_flash.c ****   }
 883:../Libraries/StdPeripheralDriver/src/stm32f10x_flash.c ****   else
 884:../Libraries/StdPeripheralDriver/src/stm32f10x_flash.c ****   {
 885:../Libraries/StdPeripheralDriver/src/stm32f10x_flash.c ****     if(status == FLASH_COMPLETE)
 886:../Libraries/StdPeripheralDriver/src/stm32f10x_flash.c ****     {
 887:../Libraries/StdPeripheralDriver/src/stm32f10x_flash.c ****       /* if the previous operation is completed, proceed to program the new data */
 888:../Libraries/StdPeripheralDriver/src/stm32f10x_flash.c ****       FLASH->CR2 |= CR_PG_Set;
 889:../Libraries/StdPeripheralDriver/src/stm32f10x_flash.c ****   
 890:../Libraries/StdPeripheralDriver/src/stm32f10x_flash.c ****       *(__IO uint16_t*)Address = Data;
 891:../Libraries/StdPeripheralDriver/src/stm32f10x_flash.c ****       /* Wait for last operation to be completed */
 892:../Libraries/StdPeripheralDriver/src/stm32f10x_flash.c ****       status = FLASH_WaitForLastBank2Operation(ProgramTimeout);
 893:../Libraries/StdPeripheralDriver/src/stm32f10x_flash.c **** 
 894:../Libraries/StdPeripheralDriver/src/stm32f10x_flash.c ****       /* Disable the PG Bit */
 895:../Libraries/StdPeripheralDriver/src/stm32f10x_flash.c ****       FLASH->CR2 &= CR_PG_Reset;
 896:../Libraries/StdPeripheralDriver/src/stm32f10x_flash.c ****     }
 897:../Libraries/StdPeripheralDriver/src/stm32f10x_flash.c ****   }
 898:../Libraries/StdPeripheralDriver/src/stm32f10x_flash.c **** #else
 899:../Libraries/StdPeripheralDriver/src/stm32f10x_flash.c ****   /* Wait for last operation to be completed */
 900:../Libraries/StdPeripheralDriver/src/stm32f10x_flash.c ****   status = FLASH_WaitForLastOperation(ProgramTimeout);
 817              		.loc 1 900 0
 818 0010 4FF40050 		mov	r0, #8192
 819 0014 FFF7FEFF 		bl	FLASH_WaitForLastOperation
 820 0018 0346     		mov	r3, r0
 821 001a FB73     		strb	r3, [r7, #15]
 901:../Libraries/StdPeripheralDriver/src/stm32f10x_flash.c ****   
 902:../Libraries/StdPeripheralDriver/src/stm32f10x_flash.c ****   if(status == FLASH_COMPLETE)
 822              		.loc 1 902 0
 823 001c FB7B     		ldrb	r3, [r7, #15]	@ zero_extendqisi2
 824 001e 042B     		cmp	r3, #4
 825 0020 21D1     		bne	.L28
 903:../Libraries/StdPeripheralDriver/src/stm32f10x_flash.c ****   {
 904:../Libraries/StdPeripheralDriver/src/stm32f10x_flash.c ****     /* if the previous operation is completed, proceed to program the new data */
 905:../Libraries/StdPeripheralDriver/src/stm32f10x_flash.c ****     FLASH->CR |= CR_PG_Set;
 826              		.loc 1 905 0
 827 0022 4FF40053 		mov	r3, #8192
 828 0026 C4F20203 		movt	r3, 16386
 829 002a 4FF40052 		mov	r2, #8192
 830 002e C4F20202 		movt	r2, 16386
 831 0032 1269     		ldr	r2, [r2, #16]
 832 0034 42F00102 		orr	r2, r2, #1
 833 0038 1A61     		str	r2, [r3, #16]
 906:../Libraries/StdPeripheralDriver/src/stm32f10x_flash.c ****   
 907:../Libraries/StdPeripheralDriver/src/stm32f10x_flash.c ****     *(__IO uint16_t*)Address = Data;
 834              		.loc 1 907 0
 835 003a 7B68     		ldr	r3, [r7, #4]
 836 003c 7A88     		ldrh	r2, [r7, #2]	@ movhi
 837 003e 1A80     		strh	r2, [r3]	@ movhi
 908:../Libraries/StdPeripheralDriver/src/stm32f10x_flash.c ****     /* Wait for last operation to be completed */
 909:../Libraries/StdPeripheralDriver/src/stm32f10x_flash.c ****     status = FLASH_WaitForLastOperation(ProgramTimeout);
 838              		.loc 1 909 0
 839 0040 4FF40050 		mov	r0, #8192
 840 0044 FFF7FEFF 		bl	FLASH_WaitForLastOperation
 841 0048 0346     		mov	r3, r0
 842 004a FB73     		strb	r3, [r7, #15]
 910:../Libraries/StdPeripheralDriver/src/stm32f10x_flash.c ****     
 911:../Libraries/StdPeripheralDriver/src/stm32f10x_flash.c ****     /* Disable the PG Bit */
 912:../Libraries/StdPeripheralDriver/src/stm32f10x_flash.c ****     FLASH->CR &= CR_PG_Reset;
 843              		.loc 1 912 0
 844 004c 4FF40053 		mov	r3, #8192
 845 0050 C4F20203 		movt	r3, 16386
 846 0054 4FF40052 		mov	r2, #8192
 847 0058 C4F20202 		movt	r2, 16386
 848 005c 1169     		ldr	r1, [r2, #16]
 849 005e 41F6FE72 		movw	r2, #8190
 850 0062 0A40     		ands	r2, r2, r1
 851 0064 1A61     		str	r2, [r3, #16]
 852              	.L28:
 913:../Libraries/StdPeripheralDriver/src/stm32f10x_flash.c ****   } 
 914:../Libraries/StdPeripheralDriver/src/stm32f10x_flash.c **** #endif  /* STM32F10X_XL */
 915:../Libraries/StdPeripheralDriver/src/stm32f10x_flash.c ****   
 916:../Libraries/StdPeripheralDriver/src/stm32f10x_flash.c ****   /* Return the Program Status */
 917:../Libraries/StdPeripheralDriver/src/stm32f10x_flash.c ****   return status;
 853              		.loc 1 917 0
 854 0066 FB7B     		ldrb	r3, [r7, #15]	@ zero_extendqisi2
 918:../Libraries/StdPeripheralDriver/src/stm32f10x_flash.c **** }
 855              		.loc 1 918 0
 856 0068 1846     		mov	r0, r3
 857 006a 1037     		adds	r7, r7, #16
 858 006c BD46     		mov	sp, r7
 859              		@ sp needed
 860 006e 80BD     		pop	{r7, pc}
 861              		.cfi_endproc
 862              	.LFE41:
 864              		.section	.text.FLASH_ProgramOptionByteData,"ax",%progbits
 865              		.align	2
 866              		.global	FLASH_ProgramOptionByteData
 867              		.thumb
 868              		.thumb_func
 870              	FLASH_ProgramOptionByteData:
 871              	.LFB42:
 919:../Libraries/StdPeripheralDriver/src/stm32f10x_flash.c **** 
 920:../Libraries/StdPeripheralDriver/src/stm32f10x_flash.c **** /**
 921:../Libraries/StdPeripheralDriver/src/stm32f10x_flash.c ****   * @brief  Programs a half word at a specified Option Byte Data address.
 922:../Libraries/StdPeripheralDriver/src/stm32f10x_flash.c ****   * @note   This function can be used for all STM32F10x devices.
 923:../Libraries/StdPeripheralDriver/src/stm32f10x_flash.c ****   * @param  Address: specifies the address to be programmed.
 924:../Libraries/StdPeripheralDriver/src/stm32f10x_flash.c ****   *   This parameter can be 0x1FFFF804 or 0x1FFFF806. 
 925:../Libraries/StdPeripheralDriver/src/stm32f10x_flash.c ****   * @param  Data: specifies the data to be programmed.
 926:../Libraries/StdPeripheralDriver/src/stm32f10x_flash.c ****   * @retval FLASH Status: The returned value can be: FLASH_ERROR_PG,
 927:../Libraries/StdPeripheralDriver/src/stm32f10x_flash.c ****   *         FLASH_ERROR_WRP, FLASH_COMPLETE or FLASH_TIMEOUT. 
 928:../Libraries/StdPeripheralDriver/src/stm32f10x_flash.c ****   */
 929:../Libraries/StdPeripheralDriver/src/stm32f10x_flash.c **** FLASH_Status FLASH_ProgramOptionByteData(uint32_t Address, uint8_t Data)
 930:../Libraries/StdPeripheralDriver/src/stm32f10x_flash.c **** {
 872              		.loc 1 930 0
 873              		.cfi_startproc
 874              		@ args = 0, pretend = 0, frame = 16
 875              		@ frame_needed = 1, uses_anonymous_args = 0
 876 0000 80B5     		push	{r7, lr}
 877              		.cfi_def_cfa_offset 8
 878              		.cfi_offset 7, -8
 879              		.cfi_offset 14, -4
 880 0002 84B0     		sub	sp, sp, #16
 881              		.cfi_def_cfa_offset 24
 882 0004 00AF     		add	r7, sp, #0
 883              		.cfi_def_cfa_register 7
 884 0006 7860     		str	r0, [r7, #4]
 885 0008 0B46     		mov	r3, r1
 886 000a FB70     		strb	r3, [r7, #3]
 931:../Libraries/StdPeripheralDriver/src/stm32f10x_flash.c ****   FLASH_Status status = FLASH_COMPLETE;
 887              		.loc 1 931 0
 888 000c 0423     		movs	r3, #4
 889 000e FB73     		strb	r3, [r7, #15]
 932:../Libraries/StdPeripheralDriver/src/stm32f10x_flash.c ****   /* Check the parameters */
 933:../Libraries/StdPeripheralDriver/src/stm32f10x_flash.c ****   assert_param(IS_OB_DATA_ADDRESS(Address));
 934:../Libraries/StdPeripheralDriver/src/stm32f10x_flash.c ****   status = FLASH_WaitForLastOperation(ProgramTimeout);
 890              		.loc 1 934 0
 891 0010 4FF40050 		mov	r0, #8192
 892 0014 FFF7FEFF 		bl	FLASH_WaitForLastOperation
 893 0018 0346     		mov	r3, r0
 894 001a FB73     		strb	r3, [r7, #15]
 935:../Libraries/StdPeripheralDriver/src/stm32f10x_flash.c **** 
 936:../Libraries/StdPeripheralDriver/src/stm32f10x_flash.c ****   if(status == FLASH_COMPLETE)
 895              		.loc 1 936 0
 896 001c FB7B     		ldrb	r3, [r7, #15]	@ zero_extendqisi2
 897 001e 042B     		cmp	r3, #4
 898 0020 37D1     		bne	.L31
 937:../Libraries/StdPeripheralDriver/src/stm32f10x_flash.c ****   {
 938:../Libraries/StdPeripheralDriver/src/stm32f10x_flash.c ****     /* Authorize the small information block programming */
 939:../Libraries/StdPeripheralDriver/src/stm32f10x_flash.c ****     FLASH->OPTKEYR = FLASH_KEY1;
 899              		.loc 1 939 0
 900 0022 4FF40053 		mov	r3, #8192
 901 0026 C4F20203 		movt	r3, 16386
 902 002a 40F22312 		movw	r2, #291
 903 002e C4F26752 		movt	r2, 17767
 904 0032 9A60     		str	r2, [r3, #8]
 940:../Libraries/StdPeripheralDriver/src/stm32f10x_flash.c ****     FLASH->OPTKEYR = FLASH_KEY2;
 905              		.loc 1 940 0
 906 0034 4FF40053 		mov	r3, #8192
 907 0038 C4F20203 		movt	r3, 16386
 908 003c 48F6AB12 		movw	r2, #35243
 909 0040 CCF6EF52 		movt	r2, 52719
 910 0044 9A60     		str	r2, [r3, #8]
 941:../Libraries/StdPeripheralDriver/src/stm32f10x_flash.c ****     /* Enables the Option Bytes Programming operation */
 942:../Libraries/StdPeripheralDriver/src/stm32f10x_flash.c ****     FLASH->CR |= CR_OPTPG_Set; 
 911              		.loc 1 942 0
 912 0046 4FF40053 		mov	r3, #8192
 913 004a C4F20203 		movt	r3, 16386
 914 004e 4FF40052 		mov	r2, #8192
 915 0052 C4F20202 		movt	r2, 16386
 916 0056 1269     		ldr	r2, [r2, #16]
 917 0058 42F01002 		orr	r2, r2, #16
 918 005c 1A61     		str	r2, [r3, #16]
 943:../Libraries/StdPeripheralDriver/src/stm32f10x_flash.c ****     *(__IO uint16_t*)Address = Data;
 919              		.loc 1 943 0
 920 005e 7B68     		ldr	r3, [r7, #4]
 921 0060 FA78     		ldrb	r2, [r7, #3]	@ zero_extendqisi2
 922 0062 92B2     		uxth	r2, r2
 923 0064 1A80     		strh	r2, [r3]	@ movhi
 944:../Libraries/StdPeripheralDriver/src/stm32f10x_flash.c ****     
 945:../Libraries/StdPeripheralDriver/src/stm32f10x_flash.c ****     /* Wait for last operation to be completed */
 946:../Libraries/StdPeripheralDriver/src/stm32f10x_flash.c ****     status = FLASH_WaitForLastOperation(ProgramTimeout);
 924              		.loc 1 946 0
 925 0066 4FF40050 		mov	r0, #8192
 926 006a FFF7FEFF 		bl	FLASH_WaitForLastOperation
 927 006e 0346     		mov	r3, r0
 928 0070 FB73     		strb	r3, [r7, #15]
 947:../Libraries/StdPeripheralDriver/src/stm32f10x_flash.c ****     if(status != FLASH_TIMEOUT)
 929              		.loc 1 947 0
 930 0072 FB7B     		ldrb	r3, [r7, #15]	@ zero_extendqisi2
 931 0074 052B     		cmp	r3, #5
 932 0076 0CD0     		beq	.L31
 948:../Libraries/StdPeripheralDriver/src/stm32f10x_flash.c ****     {
 949:../Libraries/StdPeripheralDriver/src/stm32f10x_flash.c ****       /* if the program operation is completed, disable the OPTPG Bit */
 950:../Libraries/StdPeripheralDriver/src/stm32f10x_flash.c ****       FLASH->CR &= CR_OPTPG_Reset;
 933              		.loc 1 950 0
 934 0078 4FF40053 		mov	r3, #8192
 935 007c C4F20203 		movt	r3, 16386
 936 0080 4FF40052 		mov	r2, #8192
 937 0084 C4F20202 		movt	r2, 16386
 938 0088 1169     		ldr	r1, [r2, #16]
 939 008a 41F6EF72 		movw	r2, #8175
 940 008e 0A40     		ands	r2, r2, r1
 941 0090 1A61     		str	r2, [r3, #16]
 942              	.L31:
 951:../Libraries/StdPeripheralDriver/src/stm32f10x_flash.c ****     }
 952:../Libraries/StdPeripheralDriver/src/stm32f10x_flash.c ****   }
 953:../Libraries/StdPeripheralDriver/src/stm32f10x_flash.c ****   /* Return the Option Byte Data Program Status */
 954:../Libraries/StdPeripheralDriver/src/stm32f10x_flash.c ****   return status;
 943              		.loc 1 954 0
 944 0092 FB7B     		ldrb	r3, [r7, #15]	@ zero_extendqisi2
 955:../Libraries/StdPeripheralDriver/src/stm32f10x_flash.c **** }
 945              		.loc 1 955 0
 946 0094 1846     		mov	r0, r3
 947 0096 1037     		adds	r7, r7, #16
 948 0098 BD46     		mov	sp, r7
 949              		@ sp needed
 950 009a 80BD     		pop	{r7, pc}
 951              		.cfi_endproc
 952              	.LFE42:
 954              		.section	.text.FLASH_EnableWriteProtection,"ax",%progbits
 955              		.align	2
 956              		.global	FLASH_EnableWriteProtection
 957              		.thumb
 958              		.thumb_func
 960              	FLASH_EnableWriteProtection:
 961              	.LFB43:
 956:../Libraries/StdPeripheralDriver/src/stm32f10x_flash.c **** 
 957:../Libraries/StdPeripheralDriver/src/stm32f10x_flash.c **** /**
 958:../Libraries/StdPeripheralDriver/src/stm32f10x_flash.c ****   * @brief  Write protects the desired pages
 959:../Libraries/StdPeripheralDriver/src/stm32f10x_flash.c ****   * @note   This function can be used for all STM32F10x devices.
 960:../Libraries/StdPeripheralDriver/src/stm32f10x_flash.c ****   * @param  FLASH_Pages: specifies the address of the pages to be write protected.
 961:../Libraries/StdPeripheralDriver/src/stm32f10x_flash.c ****   *   This parameter can be:
 962:../Libraries/StdPeripheralDriver/src/stm32f10x_flash.c ****   *     @arg For @b STM32_Low-density_devices: value between FLASH_WRProt_Pages0to3 and FLASH_WRPro
 963:../Libraries/StdPeripheralDriver/src/stm32f10x_flash.c ****   *     @arg For @b STM32_Medium-density_devices: value between FLASH_WRProt_Pages0to3
 964:../Libraries/StdPeripheralDriver/src/stm32f10x_flash.c ****   *       and FLASH_WRProt_Pages124to127
 965:../Libraries/StdPeripheralDriver/src/stm32f10x_flash.c ****   *     @arg For @b STM32_High-density_devices: value between FLASH_WRProt_Pages0to1 and
 966:../Libraries/StdPeripheralDriver/src/stm32f10x_flash.c ****   *       FLASH_WRProt_Pages60to61 or FLASH_WRProt_Pages62to255
 967:../Libraries/StdPeripheralDriver/src/stm32f10x_flash.c ****   *     @arg For @b STM32_Connectivity_line_devices: value between FLASH_WRProt_Pages0to1 and
 968:../Libraries/StdPeripheralDriver/src/stm32f10x_flash.c ****   *       FLASH_WRProt_Pages60to61 or FLASH_WRProt_Pages62to127    
 969:../Libraries/StdPeripheralDriver/src/stm32f10x_flash.c ****   *     @arg For @b STM32_XL-density_devices: value between FLASH_WRProt_Pages0to1 and
 970:../Libraries/StdPeripheralDriver/src/stm32f10x_flash.c ****   *       FLASH_WRProt_Pages60to61 or FLASH_WRProt_Pages62to511
 971:../Libraries/StdPeripheralDriver/src/stm32f10x_flash.c ****   *     @arg FLASH_WRProt_AllPages
 972:../Libraries/StdPeripheralDriver/src/stm32f10x_flash.c ****   * @retval FLASH Status: The returned value can be: FLASH_ERROR_PG,
 973:../Libraries/StdPeripheralDriver/src/stm32f10x_flash.c ****   *         FLASH_ERROR_WRP, FLASH_COMPLETE or FLASH_TIMEOUT.
 974:../Libraries/StdPeripheralDriver/src/stm32f10x_flash.c ****   */
 975:../Libraries/StdPeripheralDriver/src/stm32f10x_flash.c **** FLASH_Status FLASH_EnableWriteProtection(uint32_t FLASH_Pages)
 976:../Libraries/StdPeripheralDriver/src/stm32f10x_flash.c **** {
 962              		.loc 1 976 0
 963              		.cfi_startproc
 964              		@ args = 0, pretend = 0, frame = 24
 965              		@ frame_needed = 1, uses_anonymous_args = 0
 966 0000 80B5     		push	{r7, lr}
 967              		.cfi_def_cfa_offset 8
 968              		.cfi_offset 7, -8
 969              		.cfi_offset 14, -4
 970 0002 86B0     		sub	sp, sp, #24
 971              		.cfi_def_cfa_offset 32
 972 0004 00AF     		add	r7, sp, #0
 973              		.cfi_def_cfa_register 7
 974 0006 7860     		str	r0, [r7, #4]
 977:../Libraries/StdPeripheralDriver/src/stm32f10x_flash.c ****   uint16_t WRP0_Data = 0xFFFF, WRP1_Data = 0xFFFF, WRP2_Data = 0xFFFF, WRP3_Data = 0xFFFF;
 975              		.loc 1 977 0
 976 0008 4FF6FF73 		movw	r3, #65535
 977 000c BB82     		strh	r3, [r7, #20]	@ movhi
 978 000e 4FF6FF73 		movw	r3, #65535
 979 0012 7B82     		strh	r3, [r7, #18]	@ movhi
 980 0014 4FF6FF73 		movw	r3, #65535
 981 0018 3B82     		strh	r3, [r7, #16]	@ movhi
 982 001a 4FF6FF73 		movw	r3, #65535
 983 001e FB81     		strh	r3, [r7, #14]	@ movhi
 978:../Libraries/StdPeripheralDriver/src/stm32f10x_flash.c ****   
 979:../Libraries/StdPeripheralDriver/src/stm32f10x_flash.c ****   FLASH_Status status = FLASH_COMPLETE;
 984              		.loc 1 979 0
 985 0020 0423     		movs	r3, #4
 986 0022 FB75     		strb	r3, [r7, #23]
 980:../Libraries/StdPeripheralDriver/src/stm32f10x_flash.c ****   
 981:../Libraries/StdPeripheralDriver/src/stm32f10x_flash.c ****   /* Check the parameters */
 982:../Libraries/StdPeripheralDriver/src/stm32f10x_flash.c ****   assert_param(IS_FLASH_WRPROT_PAGE(FLASH_Pages));
 983:../Libraries/StdPeripheralDriver/src/stm32f10x_flash.c ****   
 984:../Libraries/StdPeripheralDriver/src/stm32f10x_flash.c ****   FLASH_Pages = (uint32_t)(~FLASH_Pages);
 987              		.loc 1 984 0
 988 0024 7B68     		ldr	r3, [r7, #4]
 989 0026 DB43     		mvns	r3, r3
 990 0028 7B60     		str	r3, [r7, #4]
 985:../Libraries/StdPeripheralDriver/src/stm32f10x_flash.c ****   WRP0_Data = (uint16_t)(FLASH_Pages & WRP0_Mask);
 991              		.loc 1 985 0
 992 002a 7B68     		ldr	r3, [r7, #4]
 993 002c 9BB2     		uxth	r3, r3
 994 002e DBB2     		uxtb	r3, r3
 995 0030 BB82     		strh	r3, [r7, #20]	@ movhi
 986:../Libraries/StdPeripheralDriver/src/stm32f10x_flash.c ****   WRP1_Data = (uint16_t)((FLASH_Pages & WRP1_Mask) >> 8);
 996              		.loc 1 986 0
 997 0032 7B68     		ldr	r3, [r7, #4]
 998 0034 03F47F43 		and	r3, r3, #65280
 999 0038 1B0A     		lsrs	r3, r3, #8
 1000 003a 7B82     		strh	r3, [r7, #18]	@ movhi
 987:../Libraries/StdPeripheralDriver/src/stm32f10x_flash.c ****   WRP2_Data = (uint16_t)((FLASH_Pages & WRP2_Mask) >> 16);
 1001              		.loc 1 987 0
 1002 003c 7B68     		ldr	r3, [r7, #4]
 1003 003e 03F47F03 		and	r3, r3, #16711680
 1004 0042 1B0C     		lsrs	r3, r3, #16
 1005 0044 3B82     		strh	r3, [r7, #16]	@ movhi
 988:../Libraries/StdPeripheralDriver/src/stm32f10x_flash.c ****   WRP3_Data = (uint16_t)((FLASH_Pages & WRP3_Mask) >> 24);
 1006              		.loc 1 988 0
 1007 0046 7B68     		ldr	r3, [r7, #4]
 1008 0048 1B0E     		lsrs	r3, r3, #24
 1009 004a FB81     		strh	r3, [r7, #14]	@ movhi
 989:../Libraries/StdPeripheralDriver/src/stm32f10x_flash.c ****   
 990:../Libraries/StdPeripheralDriver/src/stm32f10x_flash.c ****   /* Wait for last operation to be completed */
 991:../Libraries/StdPeripheralDriver/src/stm32f10x_flash.c ****   status = FLASH_WaitForLastOperation(ProgramTimeout);
 1010              		.loc 1 991 0
 1011 004c 4FF40050 		mov	r0, #8192
 1012 0050 FFF7FEFF 		bl	FLASH_WaitForLastOperation
 1013 0054 0346     		mov	r3, r0
 1014 0056 FB75     		strb	r3, [r7, #23]
 992:../Libraries/StdPeripheralDriver/src/stm32f10x_flash.c ****   
 993:../Libraries/StdPeripheralDriver/src/stm32f10x_flash.c ****   if(status == FLASH_COMPLETE)
 1015              		.loc 1 993 0
 1016 0058 FB7D     		ldrb	r3, [r7, #23]	@ zero_extendqisi2
 1017 005a 042B     		cmp	r3, #4
 1018 005c 72D1     		bne	.L34
 994:../Libraries/StdPeripheralDriver/src/stm32f10x_flash.c ****   {
 995:../Libraries/StdPeripheralDriver/src/stm32f10x_flash.c ****     /* Authorizes the small information block programming */
 996:../Libraries/StdPeripheralDriver/src/stm32f10x_flash.c ****     FLASH->OPTKEYR = FLASH_KEY1;
 1019              		.loc 1 996 0
 1020 005e 4FF40053 		mov	r3, #8192
 1021 0062 C4F20203 		movt	r3, 16386
 1022 0066 40F22312 		movw	r2, #291
 1023 006a C4F26752 		movt	r2, 17767
 1024 006e 9A60     		str	r2, [r3, #8]
 997:../Libraries/StdPeripheralDriver/src/stm32f10x_flash.c ****     FLASH->OPTKEYR = FLASH_KEY2;
 1025              		.loc 1 997 0
 1026 0070 4FF40053 		mov	r3, #8192
 1027 0074 C4F20203 		movt	r3, 16386
 1028 0078 48F6AB12 		movw	r2, #35243
 1029 007c CCF6EF52 		movt	r2, 52719
 1030 0080 9A60     		str	r2, [r3, #8]
 998:../Libraries/StdPeripheralDriver/src/stm32f10x_flash.c ****     FLASH->CR |= CR_OPTPG_Set;
 1031              		.loc 1 998 0
 1032 0082 4FF40053 		mov	r3, #8192
 1033 0086 C4F20203 		movt	r3, 16386
 1034 008a 4FF40052 		mov	r2, #8192
 1035 008e C4F20202 		movt	r2, 16386
 1036 0092 1269     		ldr	r2, [r2, #16]
 1037 0094 42F01002 		orr	r2, r2, #16
 1038 0098 1A61     		str	r2, [r3, #16]
 999:../Libraries/StdPeripheralDriver/src/stm32f10x_flash.c ****     if(WRP0_Data != 0xFF)
 1039              		.loc 1 999 0
 1040 009a BB8A     		ldrh	r3, [r7, #20]
 1041 009c FF2B     		cmp	r3, #255
 1042 009e 0BD0     		beq	.L35
1000:../Libraries/StdPeripheralDriver/src/stm32f10x_flash.c ****     {
1001:../Libraries/StdPeripheralDriver/src/stm32f10x_flash.c ****       OB->WRP0 = WRP0_Data;
 1043              		.loc 1 1001 0
 1044 00a0 4FF47843 		mov	r3, #63488
 1045 00a4 C1F6FF73 		movt	r3, 8191
 1046 00a8 BA8A     		ldrh	r2, [r7, #20]	@ movhi
 1047 00aa 1A81     		strh	r2, [r3, #8]	@ movhi
1002:../Libraries/StdPeripheralDriver/src/stm32f10x_flash.c ****       
1003:../Libraries/StdPeripheralDriver/src/stm32f10x_flash.c ****       /* Wait for last operation to be completed */
1004:../Libraries/StdPeripheralDriver/src/stm32f10x_flash.c ****       status = FLASH_WaitForLastOperation(ProgramTimeout);
 1048              		.loc 1 1004 0
 1049 00ac 4FF40050 		mov	r0, #8192
 1050 00b0 FFF7FEFF 		bl	FLASH_WaitForLastOperation
 1051 00b4 0346     		mov	r3, r0
 1052 00b6 FB75     		strb	r3, [r7, #23]
 1053              	.L35:
1005:../Libraries/StdPeripheralDriver/src/stm32f10x_flash.c ****     }
1006:../Libraries/StdPeripheralDriver/src/stm32f10x_flash.c ****     if((status == FLASH_COMPLETE) && (WRP1_Data != 0xFF))
 1054              		.loc 1 1006 0
 1055 00b8 FB7D     		ldrb	r3, [r7, #23]	@ zero_extendqisi2
 1056 00ba 042B     		cmp	r3, #4
 1057 00bc 0ED1     		bne	.L36
 1058              		.loc 1 1006 0 is_stmt 0 discriminator 1
 1059 00be 7B8A     		ldrh	r3, [r7, #18]
 1060 00c0 FF2B     		cmp	r3, #255
 1061 00c2 0BD0     		beq	.L36
1007:../Libraries/StdPeripheralDriver/src/stm32f10x_flash.c ****     {
1008:../Libraries/StdPeripheralDriver/src/stm32f10x_flash.c ****       OB->WRP1 = WRP1_Data;
 1062              		.loc 1 1008 0 is_stmt 1
 1063 00c4 4FF47843 		mov	r3, #63488
 1064 00c8 C1F6FF73 		movt	r3, 8191
 1065 00cc 7A8A     		ldrh	r2, [r7, #18]	@ movhi
 1066 00ce 5A81     		strh	r2, [r3, #10]	@ movhi
1009:../Libraries/StdPeripheralDriver/src/stm32f10x_flash.c ****       
1010:../Libraries/StdPeripheralDriver/src/stm32f10x_flash.c ****       /* Wait for last operation to be completed */
1011:../Libraries/StdPeripheralDriver/src/stm32f10x_flash.c ****       status = FLASH_WaitForLastOperation(ProgramTimeout);
 1067              		.loc 1 1011 0
 1068 00d0 4FF40050 		mov	r0, #8192
 1069 00d4 FFF7FEFF 		bl	FLASH_WaitForLastOperation
 1070 00d8 0346     		mov	r3, r0
 1071 00da FB75     		strb	r3, [r7, #23]
 1072              	.L36:
1012:../Libraries/StdPeripheralDriver/src/stm32f10x_flash.c ****     }
1013:../Libraries/StdPeripheralDriver/src/stm32f10x_flash.c ****     if((status == FLASH_COMPLETE) && (WRP2_Data != 0xFF))
 1073              		.loc 1 1013 0
 1074 00dc FB7D     		ldrb	r3, [r7, #23]	@ zero_extendqisi2
 1075 00de 042B     		cmp	r3, #4
 1076 00e0 0ED1     		bne	.L37
 1077              		.loc 1 1013 0 is_stmt 0 discriminator 1
 1078 00e2 3B8A     		ldrh	r3, [r7, #16]
 1079 00e4 FF2B     		cmp	r3, #255
 1080 00e6 0BD0     		beq	.L37
1014:../Libraries/StdPeripheralDriver/src/stm32f10x_flash.c ****     {
1015:../Libraries/StdPeripheralDriver/src/stm32f10x_flash.c ****       OB->WRP2 = WRP2_Data;
 1081              		.loc 1 1015 0 is_stmt 1
 1082 00e8 4FF47843 		mov	r3, #63488
 1083 00ec C1F6FF73 		movt	r3, 8191
 1084 00f0 3A8A     		ldrh	r2, [r7, #16]	@ movhi
 1085 00f2 9A81     		strh	r2, [r3, #12]	@ movhi
1016:../Libraries/StdPeripheralDriver/src/stm32f10x_flash.c ****       
1017:../Libraries/StdPeripheralDriver/src/stm32f10x_flash.c ****       /* Wait for last operation to be completed */
1018:../Libraries/StdPeripheralDriver/src/stm32f10x_flash.c ****       status = FLASH_WaitForLastOperation(ProgramTimeout);
 1086              		.loc 1 1018 0
 1087 00f4 4FF40050 		mov	r0, #8192
 1088 00f8 FFF7FEFF 		bl	FLASH_WaitForLastOperation
 1089 00fc 0346     		mov	r3, r0
 1090 00fe FB75     		strb	r3, [r7, #23]
 1091              	.L37:
1019:../Libraries/StdPeripheralDriver/src/stm32f10x_flash.c ****     }
1020:../Libraries/StdPeripheralDriver/src/stm32f10x_flash.c ****     
1021:../Libraries/StdPeripheralDriver/src/stm32f10x_flash.c ****     if((status == FLASH_COMPLETE)&& (WRP3_Data != 0xFF))
 1092              		.loc 1 1021 0
 1093 0100 FB7D     		ldrb	r3, [r7, #23]	@ zero_extendqisi2
 1094 0102 042B     		cmp	r3, #4
 1095 0104 0ED1     		bne	.L38
 1096              		.loc 1 1021 0 is_stmt 0 discriminator 1
 1097 0106 FB89     		ldrh	r3, [r7, #14]
 1098 0108 FF2B     		cmp	r3, #255
 1099 010a 0BD0     		beq	.L38
1022:../Libraries/StdPeripheralDriver/src/stm32f10x_flash.c ****     {
1023:../Libraries/StdPeripheralDriver/src/stm32f10x_flash.c ****       OB->WRP3 = WRP3_Data;
 1100              		.loc 1 1023 0 is_stmt 1
 1101 010c 4FF47843 		mov	r3, #63488
 1102 0110 C1F6FF73 		movt	r3, 8191
 1103 0114 FA89     		ldrh	r2, [r7, #14]	@ movhi
 1104 0116 DA81     		strh	r2, [r3, #14]	@ movhi
1024:../Libraries/StdPeripheralDriver/src/stm32f10x_flash.c ****      
1025:../Libraries/StdPeripheralDriver/src/stm32f10x_flash.c ****       /* Wait for last operation to be completed */
1026:../Libraries/StdPeripheralDriver/src/stm32f10x_flash.c ****       status = FLASH_WaitForLastOperation(ProgramTimeout);
 1105              		.loc 1 1026 0
 1106 0118 4FF40050 		mov	r0, #8192
 1107 011c FFF7FEFF 		bl	FLASH_WaitForLastOperation
 1108 0120 0346     		mov	r3, r0
 1109 0122 FB75     		strb	r3, [r7, #23]
 1110              	.L38:
1027:../Libraries/StdPeripheralDriver/src/stm32f10x_flash.c ****     }
1028:../Libraries/StdPeripheralDriver/src/stm32f10x_flash.c ****           
1029:../Libraries/StdPeripheralDriver/src/stm32f10x_flash.c ****     if(status != FLASH_TIMEOUT)
 1111              		.loc 1 1029 0
 1112 0124 FB7D     		ldrb	r3, [r7, #23]	@ zero_extendqisi2
 1113 0126 052B     		cmp	r3, #5
 1114 0128 0CD0     		beq	.L34
1030:../Libraries/StdPeripheralDriver/src/stm32f10x_flash.c ****     {
1031:../Libraries/StdPeripheralDriver/src/stm32f10x_flash.c ****       /* if the program operation is completed, disable the OPTPG Bit */
1032:../Libraries/StdPeripheralDriver/src/stm32f10x_flash.c ****       FLASH->CR &= CR_OPTPG_Reset;
 1115              		.loc 1 1032 0
 1116 012a 4FF40053 		mov	r3, #8192
 1117 012e C4F20203 		movt	r3, 16386
 1118 0132 4FF40052 		mov	r2, #8192
 1119 0136 C4F20202 		movt	r2, 16386
 1120 013a 1169     		ldr	r1, [r2, #16]
 1121 013c 41F6EF72 		movw	r2, #8175
 1122 0140 0A40     		ands	r2, r2, r1
 1123 0142 1A61     		str	r2, [r3, #16]
 1124              	.L34:
1033:../Libraries/StdPeripheralDriver/src/stm32f10x_flash.c ****     }
1034:../Libraries/StdPeripheralDriver/src/stm32f10x_flash.c ****   } 
1035:../Libraries/StdPeripheralDriver/src/stm32f10x_flash.c ****   /* Return the write protection operation Status */
1036:../Libraries/StdPeripheralDriver/src/stm32f10x_flash.c ****   return status;       
 1125              		.loc 1 1036 0
 1126 0144 FB7D     		ldrb	r3, [r7, #23]	@ zero_extendqisi2
1037:../Libraries/StdPeripheralDriver/src/stm32f10x_flash.c **** }
 1127              		.loc 1 1037 0
 1128 0146 1846     		mov	r0, r3
 1129 0148 1837     		adds	r7, r7, #24
 1130 014a BD46     		mov	sp, r7
 1131              		@ sp needed
 1132 014c 80BD     		pop	{r7, pc}
 1133              		.cfi_endproc
 1134              	.LFE43:
 1136 014e 00BF     		.section	.text.FLASH_ReadOutProtection,"ax",%progbits
 1137              		.align	2
 1138              		.global	FLASH_ReadOutProtection
 1139              		.thumb
 1140              		.thumb_func
 1142              	FLASH_ReadOutProtection:
 1143              	.LFB44:
1038:../Libraries/StdPeripheralDriver/src/stm32f10x_flash.c **** 
1039:../Libraries/StdPeripheralDriver/src/stm32f10x_flash.c **** /**
1040:../Libraries/StdPeripheralDriver/src/stm32f10x_flash.c ****   * @brief  Enables or disables the read out protection.
1041:../Libraries/StdPeripheralDriver/src/stm32f10x_flash.c ****   * @note   If the user has already programmed the other option bytes before calling 
1042:../Libraries/StdPeripheralDriver/src/stm32f10x_flash.c ****   *   this function, he must re-program them since this function erases all option bytes.
1043:../Libraries/StdPeripheralDriver/src/stm32f10x_flash.c ****   * @note   This function can be used for all STM32F10x devices.
1044:../Libraries/StdPeripheralDriver/src/stm32f10x_flash.c ****   * @param  Newstate: new state of the ReadOut Protection.
1045:../Libraries/StdPeripheralDriver/src/stm32f10x_flash.c ****   *   This parameter can be: ENABLE or DISABLE.
1046:../Libraries/StdPeripheralDriver/src/stm32f10x_flash.c ****   * @retval FLASH Status: The returned value can be: FLASH_ERROR_PG,
1047:../Libraries/StdPeripheralDriver/src/stm32f10x_flash.c ****   *         FLASH_ERROR_WRP, FLASH_COMPLETE or FLASH_TIMEOUT.
1048:../Libraries/StdPeripheralDriver/src/stm32f10x_flash.c ****   */
1049:../Libraries/StdPeripheralDriver/src/stm32f10x_flash.c **** FLASH_Status FLASH_ReadOutProtection(FunctionalState NewState)
1050:../Libraries/StdPeripheralDriver/src/stm32f10x_flash.c **** {
 1144              		.loc 1 1050 0
 1145              		.cfi_startproc
 1146              		@ args = 0, pretend = 0, frame = 16
 1147              		@ frame_needed = 1, uses_anonymous_args = 0
 1148 0000 80B5     		push	{r7, lr}
 1149              		.cfi_def_cfa_offset 8
 1150              		.cfi_offset 7, -8
 1151              		.cfi_offset 14, -4
 1152 0002 84B0     		sub	sp, sp, #16
 1153              		.cfi_def_cfa_offset 24
 1154 0004 00AF     		add	r7, sp, #0
 1155              		.cfi_def_cfa_register 7
 1156 0006 0346     		mov	r3, r0
 1157 0008 FB71     		strb	r3, [r7, #7]
1051:../Libraries/StdPeripheralDriver/src/stm32f10x_flash.c ****   FLASH_Status status = FLASH_COMPLETE;
 1158              		.loc 1 1051 0
 1159 000a 0423     		movs	r3, #4
 1160 000c FB73     		strb	r3, [r7, #15]
1052:../Libraries/StdPeripheralDriver/src/stm32f10x_flash.c ****   /* Check the parameters */
1053:../Libraries/StdPeripheralDriver/src/stm32f10x_flash.c ****   assert_param(IS_FUNCTIONAL_STATE(NewState));
1054:../Libraries/StdPeripheralDriver/src/stm32f10x_flash.c ****   status = FLASH_WaitForLastOperation(EraseTimeout);
 1161              		.loc 1 1054 0
 1162 000e 4FF43020 		mov	r0, #720896
 1163 0012 FFF7FEFF 		bl	FLASH_WaitForLastOperation
 1164 0016 0346     		mov	r3, r0
 1165 0018 FB73     		strb	r3, [r7, #15]
1055:../Libraries/StdPeripheralDriver/src/stm32f10x_flash.c ****   if(status == FLASH_COMPLETE)
 1166              		.loc 1 1055 0
 1167 001a FB7B     		ldrb	r3, [r7, #15]	@ zero_extendqisi2
 1168 001c 042B     		cmp	r3, #4
 1169 001e 40F08380 		bne	.L41
1056:../Libraries/StdPeripheralDriver/src/stm32f10x_flash.c ****   {
1057:../Libraries/StdPeripheralDriver/src/stm32f10x_flash.c ****     /* Authorizes the small information block programming */
1058:../Libraries/StdPeripheralDriver/src/stm32f10x_flash.c ****     FLASH->OPTKEYR = FLASH_KEY1;
 1170              		.loc 1 1058 0
 1171 0022 4FF40053 		mov	r3, #8192
 1172 0026 C4F20203 		movt	r3, 16386
 1173 002a 40F22312 		movw	r2, #291
 1174 002e C4F26752 		movt	r2, 17767
 1175 0032 9A60     		str	r2, [r3, #8]
1059:../Libraries/StdPeripheralDriver/src/stm32f10x_flash.c ****     FLASH->OPTKEYR = FLASH_KEY2;
 1176              		.loc 1 1059 0
 1177 0034 4FF40053 		mov	r3, #8192
 1178 0038 C4F20203 		movt	r3, 16386
 1179 003c 48F6AB12 		movw	r2, #35243
 1180 0040 CCF6EF52 		movt	r2, 52719
 1181 0044 9A60     		str	r2, [r3, #8]
1060:../Libraries/StdPeripheralDriver/src/stm32f10x_flash.c ****     FLASH->CR |= CR_OPTER_Set;
 1182              		.loc 1 1060 0
 1183 0046 4FF40053 		mov	r3, #8192
 1184 004a C4F20203 		movt	r3, 16386
 1185 004e 4FF40052 		mov	r2, #8192
 1186 0052 C4F20202 		movt	r2, 16386
 1187 0056 1269     		ldr	r2, [r2, #16]
 1188 0058 42F02002 		orr	r2, r2, #32
 1189 005c 1A61     		str	r2, [r3, #16]
1061:../Libraries/StdPeripheralDriver/src/stm32f10x_flash.c ****     FLASH->CR |= CR_STRT_Set;
 1190              		.loc 1 1061 0
 1191 005e 4FF40053 		mov	r3, #8192
 1192 0062 C4F20203 		movt	r3, 16386
 1193 0066 4FF40052 		mov	r2, #8192
 1194 006a C4F20202 		movt	r2, 16386
 1195 006e 1269     		ldr	r2, [r2, #16]
 1196 0070 42F04002 		orr	r2, r2, #64
 1197 0074 1A61     		str	r2, [r3, #16]
1062:../Libraries/StdPeripheralDriver/src/stm32f10x_flash.c ****     /* Wait for last operation to be completed */
1063:../Libraries/StdPeripheralDriver/src/stm32f10x_flash.c ****     status = FLASH_WaitForLastOperation(EraseTimeout);
 1198              		.loc 1 1063 0
 1199 0076 4FF43020 		mov	r0, #720896
 1200 007a FFF7FEFF 		bl	FLASH_WaitForLastOperation
 1201 007e 0346     		mov	r3, r0
 1202 0080 FB73     		strb	r3, [r7, #15]
1064:../Libraries/StdPeripheralDriver/src/stm32f10x_flash.c ****     if(status == FLASH_COMPLETE)
 1203              		.loc 1 1064 0
 1204 0082 FB7B     		ldrb	r3, [r7, #15]	@ zero_extendqisi2
 1205 0084 042B     		cmp	r3, #4
 1206 0086 3FD1     		bne	.L42
1065:../Libraries/StdPeripheralDriver/src/stm32f10x_flash.c ****     {
1066:../Libraries/StdPeripheralDriver/src/stm32f10x_flash.c ****       /* if the erase operation is completed, disable the OPTER Bit */
1067:../Libraries/StdPeripheralDriver/src/stm32f10x_flash.c ****       FLASH->CR &= CR_OPTER_Reset;
 1207              		.loc 1 1067 0
 1208 0088 4FF40053 		mov	r3, #8192
 1209 008c C4F20203 		movt	r3, 16386
 1210 0090 4FF40052 		mov	r2, #8192
 1211 0094 C4F20202 		movt	r2, 16386
 1212 0098 1169     		ldr	r1, [r2, #16]
 1213 009a 41F6DF72 		movw	r2, #8159
 1214 009e 0A40     		ands	r2, r2, r1
 1215 00a0 1A61     		str	r2, [r3, #16]
1068:../Libraries/StdPeripheralDriver/src/stm32f10x_flash.c ****       /* Enable the Option Bytes Programming operation */
1069:../Libraries/StdPeripheralDriver/src/stm32f10x_flash.c ****       FLASH->CR |= CR_OPTPG_Set; 
 1216              		.loc 1 1069 0
 1217 00a2 4FF40053 		mov	r3, #8192
 1218 00a6 C4F20203 		movt	r3, 16386
 1219 00aa 4FF40052 		mov	r2, #8192
 1220 00ae C4F20202 		movt	r2, 16386
 1221 00b2 1269     		ldr	r2, [r2, #16]
 1222 00b4 42F01002 		orr	r2, r2, #16
 1223 00b8 1A61     		str	r2, [r3, #16]
1070:../Libraries/StdPeripheralDriver/src/stm32f10x_flash.c ****       if(NewState != DISABLE)
 1224              		.loc 1 1070 0
 1225 00ba FB79     		ldrb	r3, [r7, #7]	@ zero_extendqisi2
 1226 00bc 002B     		cmp	r3, #0
 1227 00be 06D0     		beq	.L43
1071:../Libraries/StdPeripheralDriver/src/stm32f10x_flash.c ****       {
1072:../Libraries/StdPeripheralDriver/src/stm32f10x_flash.c ****         OB->RDP = 0x00;
 1228              		.loc 1 1072 0
 1229 00c0 4FF47843 		mov	r3, #63488
 1230 00c4 C1F6FF73 		movt	r3, 8191
 1231 00c8 0022     		movs	r2, #0
 1232 00ca 1A80     		strh	r2, [r3]	@ movhi
 1233 00cc 05E0     		b	.L44
 1234              	.L43:
1073:../Libraries/StdPeripheralDriver/src/stm32f10x_flash.c ****       }
1074:../Libraries/StdPeripheralDriver/src/stm32f10x_flash.c ****       else
1075:../Libraries/StdPeripheralDriver/src/stm32f10x_flash.c ****       {
1076:../Libraries/StdPeripheralDriver/src/stm32f10x_flash.c ****         OB->RDP = RDP_Key;  
 1235              		.loc 1 1076 0
 1236 00ce 4FF47843 		mov	r3, #63488
 1237 00d2 C1F6FF73 		movt	r3, 8191
 1238 00d6 A522     		movs	r2, #165
 1239 00d8 1A80     		strh	r2, [r3]	@ movhi
 1240              	.L44:
1077:../Libraries/StdPeripheralDriver/src/stm32f10x_flash.c ****       }
1078:../Libraries/StdPeripheralDriver/src/stm32f10x_flash.c ****       /* Wait for last operation to be completed */
1079:../Libraries/StdPeripheralDriver/src/stm32f10x_flash.c ****       status = FLASH_WaitForLastOperation(EraseTimeout); 
 1241              		.loc 1 1079 0
 1242 00da 4FF43020 		mov	r0, #720896
 1243 00de FFF7FEFF 		bl	FLASH_WaitForLastOperation
 1244 00e2 0346     		mov	r3, r0
 1245 00e4 FB73     		strb	r3, [r7, #15]
1080:../Libraries/StdPeripheralDriver/src/stm32f10x_flash.c ****     
1081:../Libraries/StdPeripheralDriver/src/stm32f10x_flash.c ****       if(status != FLASH_TIMEOUT)
 1246              		.loc 1 1081 0
 1247 00e6 FB7B     		ldrb	r3, [r7, #15]	@ zero_extendqisi2
 1248 00e8 052B     		cmp	r3, #5
 1249 00ea 1DD0     		beq	.L41
1082:../Libraries/StdPeripheralDriver/src/stm32f10x_flash.c ****       {
1083:../Libraries/StdPeripheralDriver/src/stm32f10x_flash.c ****         /* if the program operation is completed, disable the OPTPG Bit */
1084:../Libraries/StdPeripheralDriver/src/stm32f10x_flash.c ****         FLASH->CR &= CR_OPTPG_Reset;
 1250              		.loc 1 1084 0
 1251 00ec 4FF40053 		mov	r3, #8192
 1252 00f0 C4F20203 		movt	r3, 16386
 1253 00f4 4FF40052 		mov	r2, #8192
 1254 00f8 C4F20202 		movt	r2, 16386
 1255 00fc 1169     		ldr	r1, [r2, #16]
 1256 00fe 41F6EF72 		movw	r2, #8175
 1257 0102 0A40     		ands	r2, r2, r1
 1258 0104 1A61     		str	r2, [r3, #16]
 1259 0106 0FE0     		b	.L41
 1260              	.L42:
1085:../Libraries/StdPeripheralDriver/src/stm32f10x_flash.c ****       }
1086:../Libraries/StdPeripheralDriver/src/stm32f10x_flash.c ****     }
1087:../Libraries/StdPeripheralDriver/src/stm32f10x_flash.c ****     else 
1088:../Libraries/StdPeripheralDriver/src/stm32f10x_flash.c ****     {
1089:../Libraries/StdPeripheralDriver/src/stm32f10x_flash.c ****       if(status != FLASH_TIMEOUT)
 1261              		.loc 1 1089 0
 1262 0108 FB7B     		ldrb	r3, [r7, #15]	@ zero_extendqisi2
 1263 010a 052B     		cmp	r3, #5
 1264 010c 0CD0     		beq	.L41
1090:../Libraries/StdPeripheralDriver/src/stm32f10x_flash.c ****       {
1091:../Libraries/StdPeripheralDriver/src/stm32f10x_flash.c ****         /* Disable the OPTER Bit */
1092:../Libraries/StdPeripheralDriver/src/stm32f10x_flash.c ****         FLASH->CR &= CR_OPTER_Reset;
 1265              		.loc 1 1092 0
 1266 010e 4FF40053 		mov	r3, #8192
 1267 0112 C4F20203 		movt	r3, 16386
 1268 0116 4FF40052 		mov	r2, #8192
 1269 011a C4F20202 		movt	r2, 16386
 1270 011e 1169     		ldr	r1, [r2, #16]
 1271 0120 41F6DF72 		movw	r2, #8159
 1272 0124 0A40     		ands	r2, r2, r1
 1273 0126 1A61     		str	r2, [r3, #16]
 1274              	.L41:
1093:../Libraries/StdPeripheralDriver/src/stm32f10x_flash.c ****       }
1094:../Libraries/StdPeripheralDriver/src/stm32f10x_flash.c ****     }
1095:../Libraries/StdPeripheralDriver/src/stm32f10x_flash.c ****   }
1096:../Libraries/StdPeripheralDriver/src/stm32f10x_flash.c ****   /* Return the protection operation Status */
1097:../Libraries/StdPeripheralDriver/src/stm32f10x_flash.c ****   return status;       
 1275              		.loc 1 1097 0
 1276 0128 FB7B     		ldrb	r3, [r7, #15]	@ zero_extendqisi2
1098:../Libraries/StdPeripheralDriver/src/stm32f10x_flash.c **** }
 1277              		.loc 1 1098 0
 1278 012a 1846     		mov	r0, r3
 1279 012c 1037     		adds	r7, r7, #16
 1280 012e BD46     		mov	sp, r7
 1281              		@ sp needed
 1282 0130 80BD     		pop	{r7, pc}
 1283              		.cfi_endproc
 1284              	.LFE44:
 1286 0132 00BF     		.section	.text.FLASH_UserOptionByteConfig,"ax",%progbits
 1287              		.align	2
 1288              		.global	FLASH_UserOptionByteConfig
 1289              		.thumb
 1290              		.thumb_func
 1292              	FLASH_UserOptionByteConfig:
 1293              	.LFB45:
1099:../Libraries/StdPeripheralDriver/src/stm32f10x_flash.c **** 
1100:../Libraries/StdPeripheralDriver/src/stm32f10x_flash.c **** /**
1101:../Libraries/StdPeripheralDriver/src/stm32f10x_flash.c ****   * @brief  Programs the FLASH User Option Byte: IWDG_SW / RST_STOP / RST_STDBY.
1102:../Libraries/StdPeripheralDriver/src/stm32f10x_flash.c ****   * @note   This function can be used for all STM32F10x devices.
1103:../Libraries/StdPeripheralDriver/src/stm32f10x_flash.c ****   * @param  OB_IWDG: Selects the IWDG mode
1104:../Libraries/StdPeripheralDriver/src/stm32f10x_flash.c ****   *   This parameter can be one of the following values:
1105:../Libraries/StdPeripheralDriver/src/stm32f10x_flash.c ****   *     @arg OB_IWDG_SW: Software IWDG selected
1106:../Libraries/StdPeripheralDriver/src/stm32f10x_flash.c ****   *     @arg OB_IWDG_HW: Hardware IWDG selected
1107:../Libraries/StdPeripheralDriver/src/stm32f10x_flash.c ****   * @param  OB_STOP: Reset event when entering STOP mode.
1108:../Libraries/StdPeripheralDriver/src/stm32f10x_flash.c ****   *   This parameter can be one of the following values:
1109:../Libraries/StdPeripheralDriver/src/stm32f10x_flash.c ****   *     @arg OB_STOP_NoRST: No reset generated when entering in STOP
1110:../Libraries/StdPeripheralDriver/src/stm32f10x_flash.c ****   *     @arg OB_STOP_RST: Reset generated when entering in STOP
1111:../Libraries/StdPeripheralDriver/src/stm32f10x_flash.c ****   * @param  OB_STDBY: Reset event when entering Standby mode.
1112:../Libraries/StdPeripheralDriver/src/stm32f10x_flash.c ****   *   This parameter can be one of the following values:
1113:../Libraries/StdPeripheralDriver/src/stm32f10x_flash.c ****   *     @arg OB_STDBY_NoRST: No reset generated when entering in STANDBY
1114:../Libraries/StdPeripheralDriver/src/stm32f10x_flash.c ****   *     @arg OB_STDBY_RST: Reset generated when entering in STANDBY
1115:../Libraries/StdPeripheralDriver/src/stm32f10x_flash.c ****   * @retval FLASH Status: The returned value can be: FLASH_ERROR_PG, 
1116:../Libraries/StdPeripheralDriver/src/stm32f10x_flash.c ****   *         FLASH_ERROR_WRP, FLASH_COMPLETE or FLASH_TIMEOUT.
1117:../Libraries/StdPeripheralDriver/src/stm32f10x_flash.c ****   */
1118:../Libraries/StdPeripheralDriver/src/stm32f10x_flash.c **** FLASH_Status FLASH_UserOptionByteConfig(uint16_t OB_IWDG, uint16_t OB_STOP, uint16_t OB_STDBY)
1119:../Libraries/StdPeripheralDriver/src/stm32f10x_flash.c **** {
 1294              		.loc 1 1119 0
 1295              		.cfi_startproc
 1296              		@ args = 0, pretend = 0, frame = 16
 1297              		@ frame_needed = 1, uses_anonymous_args = 0
 1298 0000 80B5     		push	{r7, lr}
 1299              		.cfi_def_cfa_offset 8
 1300              		.cfi_offset 7, -8
 1301              		.cfi_offset 14, -4
 1302 0002 84B0     		sub	sp, sp, #16
 1303              		.cfi_def_cfa_offset 24
 1304 0004 00AF     		add	r7, sp, #0
 1305              		.cfi_def_cfa_register 7
 1306 0006 1346     		mov	r3, r2
 1307 0008 0246     		mov	r2, r0	@ movhi
 1308 000a FA80     		strh	r2, [r7, #6]	@ movhi
 1309 000c 0A46     		mov	r2, r1	@ movhi
 1310 000e BA80     		strh	r2, [r7, #4]	@ movhi
 1311 0010 7B80     		strh	r3, [r7, #2]	@ movhi
1120:../Libraries/StdPeripheralDriver/src/stm32f10x_flash.c ****   FLASH_Status status = FLASH_COMPLETE; 
 1312              		.loc 1 1120 0
 1313 0012 0423     		movs	r3, #4
 1314 0014 FB73     		strb	r3, [r7, #15]
1121:../Libraries/StdPeripheralDriver/src/stm32f10x_flash.c **** 
1122:../Libraries/StdPeripheralDriver/src/stm32f10x_flash.c ****   /* Check the parameters */
1123:../Libraries/StdPeripheralDriver/src/stm32f10x_flash.c ****   assert_param(IS_OB_IWDG_SOURCE(OB_IWDG));
1124:../Libraries/StdPeripheralDriver/src/stm32f10x_flash.c ****   assert_param(IS_OB_STOP_SOURCE(OB_STOP));
1125:../Libraries/StdPeripheralDriver/src/stm32f10x_flash.c ****   assert_param(IS_OB_STDBY_SOURCE(OB_STDBY));
1126:../Libraries/StdPeripheralDriver/src/stm32f10x_flash.c **** 
1127:../Libraries/StdPeripheralDriver/src/stm32f10x_flash.c ****   /* Authorize the small information block programming */
1128:../Libraries/StdPeripheralDriver/src/stm32f10x_flash.c ****   FLASH->OPTKEYR = FLASH_KEY1;
 1315              		.loc 1 1128 0
 1316 0016 4FF40053 		mov	r3, #8192
 1317 001a C4F20203 		movt	r3, 16386
 1318 001e 40F22312 		movw	r2, #291
 1319 0022 C4F26752 		movt	r2, 17767
 1320 0026 9A60     		str	r2, [r3, #8]
1129:../Libraries/StdPeripheralDriver/src/stm32f10x_flash.c ****   FLASH->OPTKEYR = FLASH_KEY2;
 1321              		.loc 1 1129 0
 1322 0028 4FF40053 		mov	r3, #8192
 1323 002c C4F20203 		movt	r3, 16386
 1324 0030 48F6AB12 		movw	r2, #35243
 1325 0034 CCF6EF52 		movt	r2, 52719
 1326 0038 9A60     		str	r2, [r3, #8]
1130:../Libraries/StdPeripheralDriver/src/stm32f10x_flash.c ****   
1131:../Libraries/StdPeripheralDriver/src/stm32f10x_flash.c ****   /* Wait for last operation to be completed */
1132:../Libraries/StdPeripheralDriver/src/stm32f10x_flash.c ****   status = FLASH_WaitForLastOperation(ProgramTimeout);
 1327              		.loc 1 1132 0
 1328 003a 4FF40050 		mov	r0, #8192
 1329 003e FFF7FEFF 		bl	FLASH_WaitForLastOperation
 1330 0042 0346     		mov	r3, r0
 1331 0044 FB73     		strb	r3, [r7, #15]
1133:../Libraries/StdPeripheralDriver/src/stm32f10x_flash.c ****   
1134:../Libraries/StdPeripheralDriver/src/stm32f10x_flash.c ****   if(status == FLASH_COMPLETE)
 1332              		.loc 1 1134 0
 1333 0046 FB7B     		ldrb	r3, [r7, #15]	@ zero_extendqisi2
 1334 0048 042B     		cmp	r3, #4
 1335 004a 30D1     		bne	.L48
1135:../Libraries/StdPeripheralDriver/src/stm32f10x_flash.c ****   {  
1136:../Libraries/StdPeripheralDriver/src/stm32f10x_flash.c ****     /* Enable the Option Bytes Programming operation */
1137:../Libraries/StdPeripheralDriver/src/stm32f10x_flash.c ****     FLASH->CR |= CR_OPTPG_Set; 
 1336              		.loc 1 1137 0
 1337 004c 4FF40053 		mov	r3, #8192
 1338 0050 C4F20203 		movt	r3, 16386
 1339 0054 4FF40052 		mov	r2, #8192
 1340 0058 C4F20202 		movt	r2, 16386
 1341 005c 1269     		ldr	r2, [r2, #16]
 1342 005e 42F01002 		orr	r2, r2, #16
 1343 0062 1A61     		str	r2, [r3, #16]
1138:../Libraries/StdPeripheralDriver/src/stm32f10x_flash.c ****            
1139:../Libraries/StdPeripheralDriver/src/stm32f10x_flash.c ****     OB->USER = OB_IWDG | (uint16_t)(OB_STOP | (uint16_t)(OB_STDBY | ((uint16_t)0xF8))); 
 1344              		.loc 1 1139 0
 1345 0064 4FF47843 		mov	r3, #63488
 1346 0068 C1F6FF73 		movt	r3, 8191
 1347 006c 7988     		ldrh	r1, [r7, #2]	@ movhi
 1348 006e BA88     		ldrh	r2, [r7, #4]	@ movhi
 1349 0070 0A43     		orrs	r2, r2, r1
 1350 0072 91B2     		uxth	r1, r2
 1351 0074 FA88     		ldrh	r2, [r7, #6]	@ movhi
 1352 0076 0A43     		orrs	r2, r2, r1
 1353 0078 92B2     		uxth	r2, r2
 1354 007a 42F0F802 		orr	r2, r2, #248
 1355 007e 92B2     		uxth	r2, r2
 1356 0080 5A80     		strh	r2, [r3, #2]	@ movhi
1140:../Libraries/StdPeripheralDriver/src/stm32f10x_flash.c ****   
1141:../Libraries/StdPeripheralDriver/src/stm32f10x_flash.c ****     /* Wait for last operation to be completed */
1142:../Libraries/StdPeripheralDriver/src/stm32f10x_flash.c ****     status = FLASH_WaitForLastOperation(ProgramTimeout);
 1357              		.loc 1 1142 0
 1358 0082 4FF40050 		mov	r0, #8192
 1359 0086 FFF7FEFF 		bl	FLASH_WaitForLastOperation
 1360 008a 0346     		mov	r3, r0
 1361 008c FB73     		strb	r3, [r7, #15]
1143:../Libraries/StdPeripheralDriver/src/stm32f10x_flash.c ****     if(status != FLASH_TIMEOUT)
 1362              		.loc 1 1143 0
 1363 008e FB7B     		ldrb	r3, [r7, #15]	@ zero_extendqisi2
 1364 0090 052B     		cmp	r3, #5
 1365 0092 0CD0     		beq	.L48
1144:../Libraries/StdPeripheralDriver/src/stm32f10x_flash.c ****     {
1145:../Libraries/StdPeripheralDriver/src/stm32f10x_flash.c ****       /* if the program operation is completed, disable the OPTPG Bit */
1146:../Libraries/StdPeripheralDriver/src/stm32f10x_flash.c ****       FLASH->CR &= CR_OPTPG_Reset;
 1366              		.loc 1 1146 0
 1367 0094 4FF40053 		mov	r3, #8192
 1368 0098 C4F20203 		movt	r3, 16386
 1369 009c 4FF40052 		mov	r2, #8192
 1370 00a0 C4F20202 		movt	r2, 16386
 1371 00a4 1169     		ldr	r1, [r2, #16]
 1372 00a6 41F6EF72 		movw	r2, #8175
 1373 00aa 0A40     		ands	r2, r2, r1
 1374 00ac 1A61     		str	r2, [r3, #16]
 1375              	.L48:
1147:../Libraries/StdPeripheralDriver/src/stm32f10x_flash.c ****     }
1148:../Libraries/StdPeripheralDriver/src/stm32f10x_flash.c ****   }    
1149:../Libraries/StdPeripheralDriver/src/stm32f10x_flash.c ****   /* Return the Option Byte program Status */
1150:../Libraries/StdPeripheralDriver/src/stm32f10x_flash.c ****   return status;
 1376              		.loc 1 1150 0
 1377 00ae FB7B     		ldrb	r3, [r7, #15]	@ zero_extendqisi2
1151:../Libraries/StdPeripheralDriver/src/stm32f10x_flash.c **** }
 1378              		.loc 1 1151 0
 1379 00b0 1846     		mov	r0, r3
 1380 00b2 1037     		adds	r7, r7, #16
 1381 00b4 BD46     		mov	sp, r7
 1382              		@ sp needed
 1383 00b6 80BD     		pop	{r7, pc}
 1384              		.cfi_endproc
 1385              	.LFE45:
 1387              		.section	.text.FLASH_GetUserOptionByte,"ax",%progbits
 1388              		.align	2
 1389              		.global	FLASH_GetUserOptionByte
 1390              		.thumb
 1391              		.thumb_func
 1393              	FLASH_GetUserOptionByte:
 1394              	.LFB46:
1152:../Libraries/StdPeripheralDriver/src/stm32f10x_flash.c **** 
1153:../Libraries/StdPeripheralDriver/src/stm32f10x_flash.c **** #ifdef STM32F10X_XL
1154:../Libraries/StdPeripheralDriver/src/stm32f10x_flash.c **** /**
1155:../Libraries/StdPeripheralDriver/src/stm32f10x_flash.c ****   * @brief  Configures to boot from Bank1 or Bank2.  
1156:../Libraries/StdPeripheralDriver/src/stm32f10x_flash.c ****   * @note   This function can be used only for STM32F10x_XL density devices.
1157:../Libraries/StdPeripheralDriver/src/stm32f10x_flash.c ****   * @param  FLASH_BOOT: select the FLASH Bank to boot from.
1158:../Libraries/StdPeripheralDriver/src/stm32f10x_flash.c ****   *   This parameter can be one of the following values:
1159:../Libraries/StdPeripheralDriver/src/stm32f10x_flash.c ****   *     @arg FLASH_BOOT_Bank1: At startup, if boot pins are set in boot from user Flash
1160:../Libraries/StdPeripheralDriver/src/stm32f10x_flash.c ****   *        position and this parameter is selected the device will boot from Bank1(Default).
1161:../Libraries/StdPeripheralDriver/src/stm32f10x_flash.c ****   *     @arg FLASH_BOOT_Bank2: At startup, if boot pins are set in boot from user Flash
1162:../Libraries/StdPeripheralDriver/src/stm32f10x_flash.c ****   *        position and this parameter is selected the device will boot from Bank2 or Bank1,
1163:../Libraries/StdPeripheralDriver/src/stm32f10x_flash.c ****   *        depending on the activation of the bank. The active banks are checked in
1164:../Libraries/StdPeripheralDriver/src/stm32f10x_flash.c ****   *        the following order: Bank2, followed by Bank1.
1165:../Libraries/StdPeripheralDriver/src/stm32f10x_flash.c ****   *        The active bank is recognized by the value programmed at the base address
1166:../Libraries/StdPeripheralDriver/src/stm32f10x_flash.c ****   *        of the respective bank (corresponding to the initial stack pointer value
1167:../Libraries/StdPeripheralDriver/src/stm32f10x_flash.c ****   *        in the interrupt vector table).
1168:../Libraries/StdPeripheralDriver/src/stm32f10x_flash.c ****   *        For more information, please refer to AN2606 from www.st.com.    
1169:../Libraries/StdPeripheralDriver/src/stm32f10x_flash.c ****   * @retval FLASH Status: The returned value can be: FLASH_ERROR_PG, 
1170:../Libraries/StdPeripheralDriver/src/stm32f10x_flash.c ****   *         FLASH_ERROR_WRP, FLASH_COMPLETE or FLASH_TIMEOUT.
1171:../Libraries/StdPeripheralDriver/src/stm32f10x_flash.c ****   */
1172:../Libraries/StdPeripheralDriver/src/stm32f10x_flash.c **** FLASH_Status FLASH_BootConfig(uint16_t FLASH_BOOT)
1173:../Libraries/StdPeripheralDriver/src/stm32f10x_flash.c **** { 
1174:../Libraries/StdPeripheralDriver/src/stm32f10x_flash.c ****   FLASH_Status status = FLASH_COMPLETE; 
1175:../Libraries/StdPeripheralDriver/src/stm32f10x_flash.c ****   assert_param(IS_FLASH_BOOT(FLASH_BOOT));
1176:../Libraries/StdPeripheralDriver/src/stm32f10x_flash.c ****   /* Authorize the small information block programming */
1177:../Libraries/StdPeripheralDriver/src/stm32f10x_flash.c ****   FLASH->OPTKEYR = FLASH_KEY1;
1178:../Libraries/StdPeripheralDriver/src/stm32f10x_flash.c ****   FLASH->OPTKEYR = FLASH_KEY2;
1179:../Libraries/StdPeripheralDriver/src/stm32f10x_flash.c ****   
1180:../Libraries/StdPeripheralDriver/src/stm32f10x_flash.c ****   /* Wait for last operation to be completed */
1181:../Libraries/StdPeripheralDriver/src/stm32f10x_flash.c ****   status = FLASH_WaitForLastOperation(ProgramTimeout);
1182:../Libraries/StdPeripheralDriver/src/stm32f10x_flash.c ****   
1183:../Libraries/StdPeripheralDriver/src/stm32f10x_flash.c ****   if(status == FLASH_COMPLETE)
1184:../Libraries/StdPeripheralDriver/src/stm32f10x_flash.c ****   {  
1185:../Libraries/StdPeripheralDriver/src/stm32f10x_flash.c ****     /* Enable the Option Bytes Programming operation */
1186:../Libraries/StdPeripheralDriver/src/stm32f10x_flash.c ****     FLASH->CR |= CR_OPTPG_Set; 
1187:../Libraries/StdPeripheralDriver/src/stm32f10x_flash.c **** 
1188:../Libraries/StdPeripheralDriver/src/stm32f10x_flash.c ****     if(FLASH_BOOT == FLASH_BOOT_Bank1)
1189:../Libraries/StdPeripheralDriver/src/stm32f10x_flash.c ****     {
1190:../Libraries/StdPeripheralDriver/src/stm32f10x_flash.c ****       OB->USER |= OB_USER_BFB2;
1191:../Libraries/StdPeripheralDriver/src/stm32f10x_flash.c ****     }
1192:../Libraries/StdPeripheralDriver/src/stm32f10x_flash.c ****     else
1193:../Libraries/StdPeripheralDriver/src/stm32f10x_flash.c ****     {
1194:../Libraries/StdPeripheralDriver/src/stm32f10x_flash.c ****       OB->USER &= (uint16_t)(~(uint16_t)(OB_USER_BFB2));
1195:../Libraries/StdPeripheralDriver/src/stm32f10x_flash.c ****     }
1196:../Libraries/StdPeripheralDriver/src/stm32f10x_flash.c ****     /* Wait for last operation to be completed */
1197:../Libraries/StdPeripheralDriver/src/stm32f10x_flash.c ****     status = FLASH_WaitForLastOperation(ProgramTimeout);
1198:../Libraries/StdPeripheralDriver/src/stm32f10x_flash.c ****     if(status != FLASH_TIMEOUT)
1199:../Libraries/StdPeripheralDriver/src/stm32f10x_flash.c ****     {
1200:../Libraries/StdPeripheralDriver/src/stm32f10x_flash.c ****       /* if the program operation is completed, disable the OPTPG Bit */
1201:../Libraries/StdPeripheralDriver/src/stm32f10x_flash.c ****       FLASH->CR &= CR_OPTPG_Reset;
1202:../Libraries/StdPeripheralDriver/src/stm32f10x_flash.c ****     }
1203:../Libraries/StdPeripheralDriver/src/stm32f10x_flash.c ****   }    
1204:../Libraries/StdPeripheralDriver/src/stm32f10x_flash.c ****   /* Return the Option Byte program Status */
1205:../Libraries/StdPeripheralDriver/src/stm32f10x_flash.c ****   return status;
1206:../Libraries/StdPeripheralDriver/src/stm32f10x_flash.c **** }
1207:../Libraries/StdPeripheralDriver/src/stm32f10x_flash.c **** #endif /* STM32F10X_XL */
1208:../Libraries/StdPeripheralDriver/src/stm32f10x_flash.c **** 
1209:../Libraries/StdPeripheralDriver/src/stm32f10x_flash.c **** /**
1210:../Libraries/StdPeripheralDriver/src/stm32f10x_flash.c ****   * @brief  Returns the FLASH User Option Bytes values.
1211:../Libraries/StdPeripheralDriver/src/stm32f10x_flash.c ****   * @note   This function can be used for all STM32F10x devices.
1212:../Libraries/StdPeripheralDriver/src/stm32f10x_flash.c ****   * @param  None
1213:../Libraries/StdPeripheralDriver/src/stm32f10x_flash.c ****   * @retval The FLASH User Option Bytes values:IWDG_SW(Bit0), RST_STOP(Bit1)
1214:../Libraries/StdPeripheralDriver/src/stm32f10x_flash.c ****   *         and RST_STDBY(Bit2).
1215:../Libraries/StdPeripheralDriver/src/stm32f10x_flash.c ****   */
1216:../Libraries/StdPeripheralDriver/src/stm32f10x_flash.c **** uint32_t FLASH_GetUserOptionByte(void)
1217:../Libraries/StdPeripheralDriver/src/stm32f10x_flash.c **** {
 1395              		.loc 1 1217 0
 1396              		.cfi_startproc
 1397              		@ args = 0, pretend = 0, frame = 0
 1398              		@ frame_needed = 1, uses_anonymous_args = 0
 1399              		@ link register save eliminated.
 1400 0000 80B4     		push	{r7}
 1401              		.cfi_def_cfa_offset 4
 1402              		.cfi_offset 7, -4
 1403 0002 00AF     		add	r7, sp, #0
 1404              		.cfi_def_cfa_register 7
1218:../Libraries/StdPeripheralDriver/src/stm32f10x_flash.c ****   /* Return the User Option Byte */
1219:../Libraries/StdPeripheralDriver/src/stm32f10x_flash.c ****   return (uint32_t)(FLASH->OBR >> 2);
 1405              		.loc 1 1219 0
 1406 0004 4FF40053 		mov	r3, #8192
 1407 0008 C4F20203 		movt	r3, 16386
 1408 000c DB69     		ldr	r3, [r3, #28]
 1409 000e 9B08     		lsrs	r3, r3, #2
1220:../Libraries/StdPeripheralDriver/src/stm32f10x_flash.c **** }
 1410              		.loc 1 1220 0
 1411 0010 1846     		mov	r0, r3
 1412 0012 BD46     		mov	sp, r7
 1413              		@ sp needed
 1414 0014 5DF8047B 		ldr	r7, [sp], #4
 1415 0018 7047     		bx	lr
 1416              		.cfi_endproc
 1417              	.LFE46:
 1419 001a 00BF     		.section	.text.FLASH_GetWriteProtectionOptionByte,"ax",%progbits
 1420              		.align	2
 1421              		.global	FLASH_GetWriteProtectionOptionByte
 1422              		.thumb
 1423              		.thumb_func
 1425              	FLASH_GetWriteProtectionOptionByte:
 1426              	.LFB47:
1221:../Libraries/StdPeripheralDriver/src/stm32f10x_flash.c **** 
1222:../Libraries/StdPeripheralDriver/src/stm32f10x_flash.c **** /**
1223:../Libraries/StdPeripheralDriver/src/stm32f10x_flash.c ****   * @brief  Returns the FLASH Write Protection Option Bytes Register value.
1224:../Libraries/StdPeripheralDriver/src/stm32f10x_flash.c ****   * @note   This function can be used for all STM32F10x devices.
1225:../Libraries/StdPeripheralDriver/src/stm32f10x_flash.c ****   * @param  None
1226:../Libraries/StdPeripheralDriver/src/stm32f10x_flash.c ****   * @retval The FLASH Write Protection  Option Bytes Register value
1227:../Libraries/StdPeripheralDriver/src/stm32f10x_flash.c ****   */
1228:../Libraries/StdPeripheralDriver/src/stm32f10x_flash.c **** uint32_t FLASH_GetWriteProtectionOptionByte(void)
1229:../Libraries/StdPeripheralDriver/src/stm32f10x_flash.c **** {
 1427              		.loc 1 1229 0
 1428              		.cfi_startproc
 1429              		@ args = 0, pretend = 0, frame = 0
 1430              		@ frame_needed = 1, uses_anonymous_args = 0
 1431              		@ link register save eliminated.
 1432 0000 80B4     		push	{r7}
 1433              		.cfi_def_cfa_offset 4
 1434              		.cfi_offset 7, -4
 1435 0002 00AF     		add	r7, sp, #0
 1436              		.cfi_def_cfa_register 7
1230:../Libraries/StdPeripheralDriver/src/stm32f10x_flash.c ****   /* Return the Flash write protection Register value */
1231:../Libraries/StdPeripheralDriver/src/stm32f10x_flash.c ****   return (uint32_t)(FLASH->WRPR);
 1437              		.loc 1 1231 0
 1438 0004 4FF40053 		mov	r3, #8192
 1439 0008 C4F20203 		movt	r3, 16386
 1440 000c 1B6A     		ldr	r3, [r3, #32]
1232:../Libraries/StdPeripheralDriver/src/stm32f10x_flash.c **** }
 1441              		.loc 1 1232 0
 1442 000e 1846     		mov	r0, r3
 1443 0010 BD46     		mov	sp, r7
 1444              		@ sp needed
 1445 0012 5DF8047B 		ldr	r7, [sp], #4
 1446 0016 7047     		bx	lr
 1447              		.cfi_endproc
 1448              	.LFE47:
 1450              		.section	.text.FLASH_GetReadOutProtectionStatus,"ax",%progbits
 1451              		.align	2
 1452              		.global	FLASH_GetReadOutProtectionStatus
 1453              		.thumb
 1454              		.thumb_func
 1456              	FLASH_GetReadOutProtectionStatus:
 1457              	.LFB48:
1233:../Libraries/StdPeripheralDriver/src/stm32f10x_flash.c **** 
1234:../Libraries/StdPeripheralDriver/src/stm32f10x_flash.c **** /**
1235:../Libraries/StdPeripheralDriver/src/stm32f10x_flash.c ****   * @brief  Checks whether the FLASH Read Out Protection Status is set or not.
1236:../Libraries/StdPeripheralDriver/src/stm32f10x_flash.c ****   * @note   This function can be used for all STM32F10x devices.
1237:../Libraries/StdPeripheralDriver/src/stm32f10x_flash.c ****   * @param  None
1238:../Libraries/StdPeripheralDriver/src/stm32f10x_flash.c ****   * @retval FLASH ReadOut Protection Status(SET or RESET)
1239:../Libraries/StdPeripheralDriver/src/stm32f10x_flash.c ****   */
1240:../Libraries/StdPeripheralDriver/src/stm32f10x_flash.c **** FlagStatus FLASH_GetReadOutProtectionStatus(void)
1241:../Libraries/StdPeripheralDriver/src/stm32f10x_flash.c **** {
 1458              		.loc 1 1241 0
 1459              		.cfi_startproc
 1460              		@ args = 0, pretend = 0, frame = 8
 1461              		@ frame_needed = 1, uses_anonymous_args = 0
 1462              		@ link register save eliminated.
 1463 0000 80B4     		push	{r7}
 1464              		.cfi_def_cfa_offset 4
 1465              		.cfi_offset 7, -4
 1466 0002 83B0     		sub	sp, sp, #12
 1467              		.cfi_def_cfa_offset 16
 1468 0004 00AF     		add	r7, sp, #0
 1469              		.cfi_def_cfa_register 7
1242:../Libraries/StdPeripheralDriver/src/stm32f10x_flash.c ****   FlagStatus readoutstatus = RESET;
 1470              		.loc 1 1242 0
 1471 0006 0023     		movs	r3, #0
 1472 0008 FB71     		strb	r3, [r7, #7]
1243:../Libraries/StdPeripheralDriver/src/stm32f10x_flash.c ****   if ((FLASH->OBR & RDPRT_Mask) != (uint32_t)RESET)
 1473              		.loc 1 1243 0
 1474 000a 4FF40053 		mov	r3, #8192
 1475 000e C4F20203 		movt	r3, 16386
 1476 0012 DB69     		ldr	r3, [r3, #28]
 1477 0014 03F00203 		and	r3, r3, #2
 1478 0018 002B     		cmp	r3, #0
 1479 001a 02D0     		beq	.L55
1244:../Libraries/StdPeripheralDriver/src/stm32f10x_flash.c ****   {
1245:../Libraries/StdPeripheralDriver/src/stm32f10x_flash.c ****     readoutstatus = SET;
 1480              		.loc 1 1245 0
 1481 001c 0123     		movs	r3, #1
 1482 001e FB71     		strb	r3, [r7, #7]
 1483 0020 01E0     		b	.L56
 1484              	.L55:
1246:../Libraries/StdPeripheralDriver/src/stm32f10x_flash.c ****   }
1247:../Libraries/StdPeripheralDriver/src/stm32f10x_flash.c ****   else
1248:../Libraries/StdPeripheralDriver/src/stm32f10x_flash.c ****   {
1249:../Libraries/StdPeripheralDriver/src/stm32f10x_flash.c ****     readoutstatus = RESET;
 1485              		.loc 1 1249 0
 1486 0022 0023     		movs	r3, #0
 1487 0024 FB71     		strb	r3, [r7, #7]
 1488              	.L56:
1250:../Libraries/StdPeripheralDriver/src/stm32f10x_flash.c ****   }
1251:../Libraries/StdPeripheralDriver/src/stm32f10x_flash.c ****   return readoutstatus;
 1489              		.loc 1 1251 0
 1490 0026 FB79     		ldrb	r3, [r7, #7]	@ zero_extendqisi2
1252:../Libraries/StdPeripheralDriver/src/stm32f10x_flash.c **** }
 1491              		.loc 1 1252 0
 1492 0028 1846     		mov	r0, r3
 1493 002a 0C37     		adds	r7, r7, #12
 1494 002c BD46     		mov	sp, r7
 1495              		@ sp needed
 1496 002e 5DF8047B 		ldr	r7, [sp], #4
 1497 0032 7047     		bx	lr
 1498              		.cfi_endproc
 1499              	.LFE48:
 1501              		.section	.text.FLASH_GetPrefetchBufferStatus,"ax",%progbits
 1502              		.align	2
 1503              		.global	FLASH_GetPrefetchBufferStatus
 1504              		.thumb
 1505              		.thumb_func
 1507              	FLASH_GetPrefetchBufferStatus:
 1508              	.LFB49:
1253:../Libraries/StdPeripheralDriver/src/stm32f10x_flash.c **** 
1254:../Libraries/StdPeripheralDriver/src/stm32f10x_flash.c **** /**
1255:../Libraries/StdPeripheralDriver/src/stm32f10x_flash.c ****   * @brief  Checks whether the FLASH Prefetch Buffer status is set or not.
1256:../Libraries/StdPeripheralDriver/src/stm32f10x_flash.c ****   * @note   This function can be used for all STM32F10x devices.
1257:../Libraries/StdPeripheralDriver/src/stm32f10x_flash.c ****   * @param  None
1258:../Libraries/StdPeripheralDriver/src/stm32f10x_flash.c ****   * @retval FLASH Prefetch Buffer Status (SET or RESET).
1259:../Libraries/StdPeripheralDriver/src/stm32f10x_flash.c ****   */
1260:../Libraries/StdPeripheralDriver/src/stm32f10x_flash.c **** FlagStatus FLASH_GetPrefetchBufferStatus(void)
1261:../Libraries/StdPeripheralDriver/src/stm32f10x_flash.c **** {
 1509              		.loc 1 1261 0
 1510              		.cfi_startproc
 1511              		@ args = 0, pretend = 0, frame = 8
 1512              		@ frame_needed = 1, uses_anonymous_args = 0
 1513              		@ link register save eliminated.
 1514 0000 80B4     		push	{r7}
 1515              		.cfi_def_cfa_offset 4
 1516              		.cfi_offset 7, -4
 1517 0002 83B0     		sub	sp, sp, #12
 1518              		.cfi_def_cfa_offset 16
 1519 0004 00AF     		add	r7, sp, #0
 1520              		.cfi_def_cfa_register 7
1262:../Libraries/StdPeripheralDriver/src/stm32f10x_flash.c ****   FlagStatus bitstatus = RESET;
 1521              		.loc 1 1262 0
 1522 0006 0023     		movs	r3, #0
 1523 0008 FB71     		strb	r3, [r7, #7]
1263:../Libraries/StdPeripheralDriver/src/stm32f10x_flash.c ****   
1264:../Libraries/StdPeripheralDriver/src/stm32f10x_flash.c ****   if ((FLASH->ACR & ACR_PRFTBS_Mask) != (uint32_t)RESET)
 1524              		.loc 1 1264 0
 1525 000a 4FF40053 		mov	r3, #8192
 1526 000e C4F20203 		movt	r3, 16386
 1527 0012 1B68     		ldr	r3, [r3]
 1528 0014 03F02003 		and	r3, r3, #32
 1529 0018 002B     		cmp	r3, #0
 1530 001a 02D0     		beq	.L59
1265:../Libraries/StdPeripheralDriver/src/stm32f10x_flash.c ****   {
1266:../Libraries/StdPeripheralDriver/src/stm32f10x_flash.c ****     bitstatus = SET;
 1531              		.loc 1 1266 0
 1532 001c 0123     		movs	r3, #1
 1533 001e FB71     		strb	r3, [r7, #7]
 1534 0020 01E0     		b	.L60
 1535              	.L59:
1267:../Libraries/StdPeripheralDriver/src/stm32f10x_flash.c ****   }
1268:../Libraries/StdPeripheralDriver/src/stm32f10x_flash.c ****   else
1269:../Libraries/StdPeripheralDriver/src/stm32f10x_flash.c ****   {
1270:../Libraries/StdPeripheralDriver/src/stm32f10x_flash.c ****     bitstatus = RESET;
 1536              		.loc 1 1270 0
 1537 0022 0023     		movs	r3, #0
 1538 0024 FB71     		strb	r3, [r7, #7]
 1539              	.L60:
1271:../Libraries/StdPeripheralDriver/src/stm32f10x_flash.c ****   }
1272:../Libraries/StdPeripheralDriver/src/stm32f10x_flash.c ****   /* Return the new state of FLASH Prefetch Buffer Status (SET or RESET) */
1273:../Libraries/StdPeripheralDriver/src/stm32f10x_flash.c ****   return bitstatus; 
 1540              		.loc 1 1273 0
 1541 0026 FB79     		ldrb	r3, [r7, #7]	@ zero_extendqisi2
1274:../Libraries/StdPeripheralDriver/src/stm32f10x_flash.c **** }
 1542              		.loc 1 1274 0
 1543 0028 1846     		mov	r0, r3
 1544 002a 0C37     		adds	r7, r7, #12
 1545 002c BD46     		mov	sp, r7
 1546              		@ sp needed
 1547 002e 5DF8047B 		ldr	r7, [sp], #4
 1548 0032 7047     		bx	lr
 1549              		.cfi_endproc
 1550              	.LFE49:
 1552              		.section	.text.FLASH_ITConfig,"ax",%progbits
 1553              		.align	2
 1554              		.global	FLASH_ITConfig
 1555              		.thumb
 1556              		.thumb_func
 1558              	FLASH_ITConfig:
 1559              	.LFB50:
1275:../Libraries/StdPeripheralDriver/src/stm32f10x_flash.c **** 
1276:../Libraries/StdPeripheralDriver/src/stm32f10x_flash.c **** /**
1277:../Libraries/StdPeripheralDriver/src/stm32f10x_flash.c ****   * @brief  Enables or disables the specified FLASH interrupts.
1278:../Libraries/StdPeripheralDriver/src/stm32f10x_flash.c ****   * @note   This function can be used for all STM32F10x devices.
1279:../Libraries/StdPeripheralDriver/src/stm32f10x_flash.c ****   *         - For STM32F10X_XL devices, enables or disables the specified FLASH interrupts
1280:../Libraries/StdPeripheralDriver/src/stm32f10x_flash.c ****               for Bank1 and Bank2.
1281:../Libraries/StdPeripheralDriver/src/stm32f10x_flash.c ****   *         - For other devices it enables or disables the specified FLASH interrupts for Bank1.
1282:../Libraries/StdPeripheralDriver/src/stm32f10x_flash.c ****   * @param  FLASH_IT: specifies the FLASH interrupt sources to be enabled or disabled.
1283:../Libraries/StdPeripheralDriver/src/stm32f10x_flash.c ****   *   This parameter can be any combination of the following values:
1284:../Libraries/StdPeripheralDriver/src/stm32f10x_flash.c ****   *     @arg FLASH_IT_ERROR: FLASH Error Interrupt
1285:../Libraries/StdPeripheralDriver/src/stm32f10x_flash.c ****   *     @arg FLASH_IT_EOP: FLASH end of operation Interrupt
1286:../Libraries/StdPeripheralDriver/src/stm32f10x_flash.c ****   * @param  NewState: new state of the specified Flash interrupts.
1287:../Libraries/StdPeripheralDriver/src/stm32f10x_flash.c ****   *   This parameter can be: ENABLE or DISABLE.      
1288:../Libraries/StdPeripheralDriver/src/stm32f10x_flash.c ****   * @retval None 
1289:../Libraries/StdPeripheralDriver/src/stm32f10x_flash.c ****   */
1290:../Libraries/StdPeripheralDriver/src/stm32f10x_flash.c **** void FLASH_ITConfig(uint32_t FLASH_IT, FunctionalState NewState)
1291:../Libraries/StdPeripheralDriver/src/stm32f10x_flash.c **** {
 1560              		.loc 1 1291 0
 1561              		.cfi_startproc
 1562              		@ args = 0, pretend = 0, frame = 8
 1563              		@ frame_needed = 1, uses_anonymous_args = 0
 1564              		@ link register save eliminated.
 1565 0000 80B4     		push	{r7}
 1566              		.cfi_def_cfa_offset 4
 1567              		.cfi_offset 7, -4
 1568 0002 83B0     		sub	sp, sp, #12
 1569              		.cfi_def_cfa_offset 16
 1570 0004 00AF     		add	r7, sp, #0
 1571              		.cfi_def_cfa_register 7
 1572 0006 7860     		str	r0, [r7, #4]
 1573 0008 0B46     		mov	r3, r1
 1574 000a FB70     		strb	r3, [r7, #3]
1292:../Libraries/StdPeripheralDriver/src/stm32f10x_flash.c **** #ifdef STM32F10X_XL
1293:../Libraries/StdPeripheralDriver/src/stm32f10x_flash.c ****   /* Check the parameters */
1294:../Libraries/StdPeripheralDriver/src/stm32f10x_flash.c ****   assert_param(IS_FLASH_IT(FLASH_IT)); 
1295:../Libraries/StdPeripheralDriver/src/stm32f10x_flash.c ****   assert_param(IS_FUNCTIONAL_STATE(NewState));
1296:../Libraries/StdPeripheralDriver/src/stm32f10x_flash.c **** 
1297:../Libraries/StdPeripheralDriver/src/stm32f10x_flash.c ****   if((FLASH_IT & 0x80000000) != 0x0)
1298:../Libraries/StdPeripheralDriver/src/stm32f10x_flash.c ****   {
1299:../Libraries/StdPeripheralDriver/src/stm32f10x_flash.c ****     if(NewState != DISABLE)
1300:../Libraries/StdPeripheralDriver/src/stm32f10x_flash.c ****     {
1301:../Libraries/StdPeripheralDriver/src/stm32f10x_flash.c ****       /* Enable the interrupt sources */
1302:../Libraries/StdPeripheralDriver/src/stm32f10x_flash.c ****       FLASH->CR2 |= (FLASH_IT & 0x7FFFFFFF);
1303:../Libraries/StdPeripheralDriver/src/stm32f10x_flash.c ****     }
1304:../Libraries/StdPeripheralDriver/src/stm32f10x_flash.c ****     else
1305:../Libraries/StdPeripheralDriver/src/stm32f10x_flash.c ****     {
1306:../Libraries/StdPeripheralDriver/src/stm32f10x_flash.c ****       /* Disable the interrupt sources */
1307:../Libraries/StdPeripheralDriver/src/stm32f10x_flash.c ****       FLASH->CR2 &= ~(uint32_t)(FLASH_IT & 0x7FFFFFFF);
1308:../Libraries/StdPeripheralDriver/src/stm32f10x_flash.c ****     }
1309:../Libraries/StdPeripheralDriver/src/stm32f10x_flash.c ****   }
1310:../Libraries/StdPeripheralDriver/src/stm32f10x_flash.c ****   else
1311:../Libraries/StdPeripheralDriver/src/stm32f10x_flash.c ****   {
1312:../Libraries/StdPeripheralDriver/src/stm32f10x_flash.c ****     if(NewState != DISABLE)
1313:../Libraries/StdPeripheralDriver/src/stm32f10x_flash.c ****     {
1314:../Libraries/StdPeripheralDriver/src/stm32f10x_flash.c ****       /* Enable the interrupt sources */
1315:../Libraries/StdPeripheralDriver/src/stm32f10x_flash.c ****       FLASH->CR |= FLASH_IT;
1316:../Libraries/StdPeripheralDriver/src/stm32f10x_flash.c ****     }
1317:../Libraries/StdPeripheralDriver/src/stm32f10x_flash.c ****     else
1318:../Libraries/StdPeripheralDriver/src/stm32f10x_flash.c ****     {
1319:../Libraries/StdPeripheralDriver/src/stm32f10x_flash.c ****       /* Disable the interrupt sources */
1320:../Libraries/StdPeripheralDriver/src/stm32f10x_flash.c ****       FLASH->CR &= ~(uint32_t)FLASH_IT;
1321:../Libraries/StdPeripheralDriver/src/stm32f10x_flash.c ****     }
1322:../Libraries/StdPeripheralDriver/src/stm32f10x_flash.c ****   }
1323:../Libraries/StdPeripheralDriver/src/stm32f10x_flash.c **** #else
1324:../Libraries/StdPeripheralDriver/src/stm32f10x_flash.c ****   /* Check the parameters */
1325:../Libraries/StdPeripheralDriver/src/stm32f10x_flash.c ****   assert_param(IS_FLASH_IT(FLASH_IT)); 
1326:../Libraries/StdPeripheralDriver/src/stm32f10x_flash.c ****   assert_param(IS_FUNCTIONAL_STATE(NewState));
1327:../Libraries/StdPeripheralDriver/src/stm32f10x_flash.c **** 
1328:../Libraries/StdPeripheralDriver/src/stm32f10x_flash.c ****   if(NewState != DISABLE)
 1575              		.loc 1 1328 0
 1576 000c FB78     		ldrb	r3, [r7, #3]	@ zero_extendqisi2
 1577 000e 002B     		cmp	r3, #0
 1578 0010 0CD0     		beq	.L63
1329:../Libraries/StdPeripheralDriver/src/stm32f10x_flash.c ****   {
1330:../Libraries/StdPeripheralDriver/src/stm32f10x_flash.c ****     /* Enable the interrupt sources */
1331:../Libraries/StdPeripheralDriver/src/stm32f10x_flash.c ****     FLASH->CR |= FLASH_IT;
 1579              		.loc 1 1331 0
 1580 0012 4FF40053 		mov	r3, #8192
 1581 0016 C4F20203 		movt	r3, 16386
 1582 001a 4FF40052 		mov	r2, #8192
 1583 001e C4F20202 		movt	r2, 16386
 1584 0022 1169     		ldr	r1, [r2, #16]
 1585 0024 7A68     		ldr	r2, [r7, #4]
 1586 0026 0A43     		orrs	r2, r2, r1
 1587 0028 1A61     		str	r2, [r3, #16]
 1588 002a 0CE0     		b	.L62
 1589              	.L63:
1332:../Libraries/StdPeripheralDriver/src/stm32f10x_flash.c ****   }
1333:../Libraries/StdPeripheralDriver/src/stm32f10x_flash.c ****   else
1334:../Libraries/StdPeripheralDriver/src/stm32f10x_flash.c ****   {
1335:../Libraries/StdPeripheralDriver/src/stm32f10x_flash.c ****     /* Disable the interrupt sources */
1336:../Libraries/StdPeripheralDriver/src/stm32f10x_flash.c ****     FLASH->CR &= ~(uint32_t)FLASH_IT;
 1590              		.loc 1 1336 0
 1591 002c 4FF40053 		mov	r3, #8192
 1592 0030 C4F20203 		movt	r3, 16386
 1593 0034 4FF40052 		mov	r2, #8192
 1594 0038 C4F20202 		movt	r2, 16386
 1595 003c 1169     		ldr	r1, [r2, #16]
 1596 003e 7A68     		ldr	r2, [r7, #4]
 1597 0040 D243     		mvns	r2, r2
 1598 0042 0A40     		ands	r2, r2, r1
 1599 0044 1A61     		str	r2, [r3, #16]
 1600              	.L62:
1337:../Libraries/StdPeripheralDriver/src/stm32f10x_flash.c ****   }
1338:../Libraries/StdPeripheralDriver/src/stm32f10x_flash.c **** #endif /* STM32F10X_XL */
1339:../Libraries/StdPeripheralDriver/src/stm32f10x_flash.c **** }
 1601              		.loc 1 1339 0
 1602 0046 0C37     		adds	r7, r7, #12
 1603 0048 BD46     		mov	sp, r7
 1604              		@ sp needed
 1605 004a 5DF8047B 		ldr	r7, [sp], #4
 1606 004e 7047     		bx	lr
 1607              		.cfi_endproc
 1608              	.LFE50:
 1610              		.section	.text.FLASH_GetFlagStatus,"ax",%progbits
 1611              		.align	2
 1612              		.global	FLASH_GetFlagStatus
 1613              		.thumb
 1614              		.thumb_func
 1616              	FLASH_GetFlagStatus:
 1617              	.LFB51:
1340:../Libraries/StdPeripheralDriver/src/stm32f10x_flash.c **** 
1341:../Libraries/StdPeripheralDriver/src/stm32f10x_flash.c **** /**
1342:../Libraries/StdPeripheralDriver/src/stm32f10x_flash.c ****   * @brief  Checks whether the specified FLASH flag is set or not.
1343:../Libraries/StdPeripheralDriver/src/stm32f10x_flash.c ****   * @note   This function can be used for all STM32F10x devices.
1344:../Libraries/StdPeripheralDriver/src/stm32f10x_flash.c ****   *         - For STM32F10X_XL devices, this function checks whether the specified 
1345:../Libraries/StdPeripheralDriver/src/stm32f10x_flash.c ****   *           Bank1 or Bank2 flag is set or not.
1346:../Libraries/StdPeripheralDriver/src/stm32f10x_flash.c ****   *         - For other devices, it checks whether the specified Bank1 flag is 
1347:../Libraries/StdPeripheralDriver/src/stm32f10x_flash.c ****   *           set or not.
1348:../Libraries/StdPeripheralDriver/src/stm32f10x_flash.c ****   * @param  FLASH_FLAG: specifies the FLASH flag to check.
1349:../Libraries/StdPeripheralDriver/src/stm32f10x_flash.c ****   *   This parameter can be one of the following values:
1350:../Libraries/StdPeripheralDriver/src/stm32f10x_flash.c ****   *     @arg FLASH_FLAG_BSY: FLASH Busy flag           
1351:../Libraries/StdPeripheralDriver/src/stm32f10x_flash.c ****   *     @arg FLASH_FLAG_PGERR: FLASH Program error flag       
1352:../Libraries/StdPeripheralDriver/src/stm32f10x_flash.c ****   *     @arg FLASH_FLAG_WRPRTERR: FLASH Write protected error flag      
1353:../Libraries/StdPeripheralDriver/src/stm32f10x_flash.c ****   *     @arg FLASH_FLAG_EOP: FLASH End of Operation flag           
1354:../Libraries/StdPeripheralDriver/src/stm32f10x_flash.c ****   *     @arg FLASH_FLAG_OPTERR:  FLASH Option Byte error flag     
1355:../Libraries/StdPeripheralDriver/src/stm32f10x_flash.c ****   * @retval The new state of FLASH_FLAG (SET or RESET).
1356:../Libraries/StdPeripheralDriver/src/stm32f10x_flash.c ****   */
1357:../Libraries/StdPeripheralDriver/src/stm32f10x_flash.c **** FlagStatus FLASH_GetFlagStatus(uint32_t FLASH_FLAG)
1358:../Libraries/StdPeripheralDriver/src/stm32f10x_flash.c **** {
 1618              		.loc 1 1358 0
 1619              		.cfi_startproc
 1620              		@ args = 0, pretend = 0, frame = 16
 1621              		@ frame_needed = 1, uses_anonymous_args = 0
 1622              		@ link register save eliminated.
 1623 0000 80B4     		push	{r7}
 1624              		.cfi_def_cfa_offset 4
 1625              		.cfi_offset 7, -4
 1626 0002 85B0     		sub	sp, sp, #20
 1627              		.cfi_def_cfa_offset 24
 1628 0004 00AF     		add	r7, sp, #0
 1629              		.cfi_def_cfa_register 7
 1630 0006 7860     		str	r0, [r7, #4]
1359:../Libraries/StdPeripheralDriver/src/stm32f10x_flash.c ****   FlagStatus bitstatus = RESET;
 1631              		.loc 1 1359 0
 1632 0008 0023     		movs	r3, #0
 1633 000a FB73     		strb	r3, [r7, #15]
1360:../Libraries/StdPeripheralDriver/src/stm32f10x_flash.c **** 
1361:../Libraries/StdPeripheralDriver/src/stm32f10x_flash.c **** #ifdef STM32F10X_XL
1362:../Libraries/StdPeripheralDriver/src/stm32f10x_flash.c ****   /* Check the parameters */
1363:../Libraries/StdPeripheralDriver/src/stm32f10x_flash.c ****   assert_param(IS_FLASH_GET_FLAG(FLASH_FLAG)) ;
1364:../Libraries/StdPeripheralDriver/src/stm32f10x_flash.c ****   if(FLASH_FLAG == FLASH_FLAG_OPTERR) 
1365:../Libraries/StdPeripheralDriver/src/stm32f10x_flash.c ****   {
1366:../Libraries/StdPeripheralDriver/src/stm32f10x_flash.c ****     if((FLASH->OBR & FLASH_FLAG_OPTERR) != (uint32_t)RESET)
1367:../Libraries/StdPeripheralDriver/src/stm32f10x_flash.c ****     {
1368:../Libraries/StdPeripheralDriver/src/stm32f10x_flash.c ****       bitstatus = SET;
1369:../Libraries/StdPeripheralDriver/src/stm32f10x_flash.c ****     }
1370:../Libraries/StdPeripheralDriver/src/stm32f10x_flash.c ****     else
1371:../Libraries/StdPeripheralDriver/src/stm32f10x_flash.c ****     {
1372:../Libraries/StdPeripheralDriver/src/stm32f10x_flash.c ****       bitstatus = RESET;
1373:../Libraries/StdPeripheralDriver/src/stm32f10x_flash.c ****     }
1374:../Libraries/StdPeripheralDriver/src/stm32f10x_flash.c ****   }
1375:../Libraries/StdPeripheralDriver/src/stm32f10x_flash.c ****   else
1376:../Libraries/StdPeripheralDriver/src/stm32f10x_flash.c ****   {
1377:../Libraries/StdPeripheralDriver/src/stm32f10x_flash.c ****     if((FLASH_FLAG & 0x80000000) != 0x0)
1378:../Libraries/StdPeripheralDriver/src/stm32f10x_flash.c ****     {
1379:../Libraries/StdPeripheralDriver/src/stm32f10x_flash.c ****       if((FLASH->SR2 & FLASH_FLAG) != (uint32_t)RESET)
1380:../Libraries/StdPeripheralDriver/src/stm32f10x_flash.c ****       {
1381:../Libraries/StdPeripheralDriver/src/stm32f10x_flash.c ****         bitstatus = SET;
1382:../Libraries/StdPeripheralDriver/src/stm32f10x_flash.c ****       }
1383:../Libraries/StdPeripheralDriver/src/stm32f10x_flash.c ****       else
1384:../Libraries/StdPeripheralDriver/src/stm32f10x_flash.c ****       {
1385:../Libraries/StdPeripheralDriver/src/stm32f10x_flash.c ****         bitstatus = RESET;
1386:../Libraries/StdPeripheralDriver/src/stm32f10x_flash.c ****       }
1387:../Libraries/StdPeripheralDriver/src/stm32f10x_flash.c ****     }
1388:../Libraries/StdPeripheralDriver/src/stm32f10x_flash.c ****     else
1389:../Libraries/StdPeripheralDriver/src/stm32f10x_flash.c ****     {
1390:../Libraries/StdPeripheralDriver/src/stm32f10x_flash.c ****       if((FLASH->SR & FLASH_FLAG) != (uint32_t)RESET)
1391:../Libraries/StdPeripheralDriver/src/stm32f10x_flash.c ****       {
1392:../Libraries/StdPeripheralDriver/src/stm32f10x_flash.c ****         bitstatus = SET;
1393:../Libraries/StdPeripheralDriver/src/stm32f10x_flash.c ****       }
1394:../Libraries/StdPeripheralDriver/src/stm32f10x_flash.c ****       else
1395:../Libraries/StdPeripheralDriver/src/stm32f10x_flash.c ****       {
1396:../Libraries/StdPeripheralDriver/src/stm32f10x_flash.c ****         bitstatus = RESET;
1397:../Libraries/StdPeripheralDriver/src/stm32f10x_flash.c ****       }
1398:../Libraries/StdPeripheralDriver/src/stm32f10x_flash.c ****     }
1399:../Libraries/StdPeripheralDriver/src/stm32f10x_flash.c ****   }
1400:../Libraries/StdPeripheralDriver/src/stm32f10x_flash.c **** #else
1401:../Libraries/StdPeripheralDriver/src/stm32f10x_flash.c ****   /* Check the parameters */
1402:../Libraries/StdPeripheralDriver/src/stm32f10x_flash.c ****   assert_param(IS_FLASH_GET_FLAG(FLASH_FLAG)) ;
1403:../Libraries/StdPeripheralDriver/src/stm32f10x_flash.c ****   if(FLASH_FLAG == FLASH_FLAG_OPTERR) 
 1634              		.loc 1 1403 0
 1635 000c 7B68     		ldr	r3, [r7, #4]
 1636 000e 012B     		cmp	r3, #1
 1637 0010 0ED1     		bne	.L66
1404:../Libraries/StdPeripheralDriver/src/stm32f10x_flash.c ****   {
1405:../Libraries/StdPeripheralDriver/src/stm32f10x_flash.c ****     if((FLASH->OBR & FLASH_FLAG_OPTERR) != (uint32_t)RESET)
 1638              		.loc 1 1405 0
 1639 0012 4FF40053 		mov	r3, #8192
 1640 0016 C4F20203 		movt	r3, 16386
 1641 001a DB69     		ldr	r3, [r3, #28]
 1642 001c 03F00103 		and	r3, r3, #1
 1643 0020 002B     		cmp	r3, #0
 1644 0022 02D0     		beq	.L67
1406:../Libraries/StdPeripheralDriver/src/stm32f10x_flash.c ****     {
1407:../Libraries/StdPeripheralDriver/src/stm32f10x_flash.c ****       bitstatus = SET;
 1645              		.loc 1 1407 0
 1646 0024 0123     		movs	r3, #1
 1647 0026 FB73     		strb	r3, [r7, #15]
 1648 0028 10E0     		b	.L69
 1649              	.L67:
1408:../Libraries/StdPeripheralDriver/src/stm32f10x_flash.c ****     }
1409:../Libraries/StdPeripheralDriver/src/stm32f10x_flash.c ****     else
1410:../Libraries/StdPeripheralDriver/src/stm32f10x_flash.c ****     {
1411:../Libraries/StdPeripheralDriver/src/stm32f10x_flash.c ****       bitstatus = RESET;
 1650              		.loc 1 1411 0
 1651 002a 0023     		movs	r3, #0
 1652 002c FB73     		strb	r3, [r7, #15]
 1653 002e 0DE0     		b	.L69
 1654              	.L66:
1412:../Libraries/StdPeripheralDriver/src/stm32f10x_flash.c ****     }
1413:../Libraries/StdPeripheralDriver/src/stm32f10x_flash.c ****   }
1414:../Libraries/StdPeripheralDriver/src/stm32f10x_flash.c ****   else
1415:../Libraries/StdPeripheralDriver/src/stm32f10x_flash.c ****   {
1416:../Libraries/StdPeripheralDriver/src/stm32f10x_flash.c ****    if((FLASH->SR & FLASH_FLAG) != (uint32_t)RESET)
 1655              		.loc 1 1416 0
 1656 0030 4FF40053 		mov	r3, #8192
 1657 0034 C4F20203 		movt	r3, 16386
 1658 0038 DA68     		ldr	r2, [r3, #12]
 1659 003a 7B68     		ldr	r3, [r7, #4]
 1660 003c 1340     		ands	r3, r3, r2
 1661 003e 002B     		cmp	r3, #0
 1662 0040 02D0     		beq	.L70
1417:../Libraries/StdPeripheralDriver/src/stm32f10x_flash.c ****     {
1418:../Libraries/StdPeripheralDriver/src/stm32f10x_flash.c ****       bitstatus = SET;
 1663              		.loc 1 1418 0
 1664 0042 0123     		movs	r3, #1
 1665 0044 FB73     		strb	r3, [r7, #15]
 1666 0046 01E0     		b	.L69
 1667              	.L70:
1419:../Libraries/StdPeripheralDriver/src/stm32f10x_flash.c ****     }
1420:../Libraries/StdPeripheralDriver/src/stm32f10x_flash.c ****     else
1421:../Libraries/StdPeripheralDriver/src/stm32f10x_flash.c ****     {
1422:../Libraries/StdPeripheralDriver/src/stm32f10x_flash.c ****       bitstatus = RESET;
 1668              		.loc 1 1422 0
 1669 0048 0023     		movs	r3, #0
 1670 004a FB73     		strb	r3, [r7, #15]
 1671              	.L69:
1423:../Libraries/StdPeripheralDriver/src/stm32f10x_flash.c ****     }
1424:../Libraries/StdPeripheralDriver/src/stm32f10x_flash.c ****   }
1425:../Libraries/StdPeripheralDriver/src/stm32f10x_flash.c **** #endif /* STM32F10X_XL */
1426:../Libraries/StdPeripheralDriver/src/stm32f10x_flash.c **** 
1427:../Libraries/StdPeripheralDriver/src/stm32f10x_flash.c ****   /* Return the new state of FLASH_FLAG (SET or RESET) */
1428:../Libraries/StdPeripheralDriver/src/stm32f10x_flash.c ****   return bitstatus;
 1672              		.loc 1 1428 0
 1673 004c FB7B     		ldrb	r3, [r7, #15]	@ zero_extendqisi2
1429:../Libraries/StdPeripheralDriver/src/stm32f10x_flash.c **** }
 1674              		.loc 1 1429 0
 1675 004e 1846     		mov	r0, r3
 1676 0050 1437     		adds	r7, r7, #20
 1677 0052 BD46     		mov	sp, r7
 1678              		@ sp needed
 1679 0054 5DF8047B 		ldr	r7, [sp], #4
 1680 0058 7047     		bx	lr
 1681              		.cfi_endproc
 1682              	.LFE51:
 1684 005a 00BF     		.section	.text.FLASH_ClearFlag,"ax",%progbits
 1685              		.align	2
 1686              		.global	FLASH_ClearFlag
 1687              		.thumb
 1688              		.thumb_func
 1690              	FLASH_ClearFlag:
 1691              	.LFB52:
1430:../Libraries/StdPeripheralDriver/src/stm32f10x_flash.c **** 
1431:../Libraries/StdPeripheralDriver/src/stm32f10x_flash.c **** /**
1432:../Libraries/StdPeripheralDriver/src/stm32f10x_flash.c ****   * @brief  Clears the FLASH's pending flags.
1433:../Libraries/StdPeripheralDriver/src/stm32f10x_flash.c ****   * @note   This function can be used for all STM32F10x devices.
1434:../Libraries/StdPeripheralDriver/src/stm32f10x_flash.c ****   *         - For STM32F10X_XL devices, this function clears Bank1 or Bank2s pending flags
1435:../Libraries/StdPeripheralDriver/src/stm32f10x_flash.c ****   *         - For other devices, it clears Bank1s pending flags.
1436:../Libraries/StdPeripheralDriver/src/stm32f10x_flash.c ****   * @param  FLASH_FLAG: specifies the FLASH flags to clear.
1437:../Libraries/StdPeripheralDriver/src/stm32f10x_flash.c ****   *   This parameter can be any combination of the following values:         
1438:../Libraries/StdPeripheralDriver/src/stm32f10x_flash.c ****   *     @arg FLASH_FLAG_PGERR: FLASH Program error flag       
1439:../Libraries/StdPeripheralDriver/src/stm32f10x_flash.c ****   *     @arg FLASH_FLAG_WRPRTERR: FLASH Write protected error flag      
1440:../Libraries/StdPeripheralDriver/src/stm32f10x_flash.c ****   *     @arg FLASH_FLAG_EOP: FLASH End of Operation flag           
1441:../Libraries/StdPeripheralDriver/src/stm32f10x_flash.c ****   * @retval None
1442:../Libraries/StdPeripheralDriver/src/stm32f10x_flash.c ****   */
1443:../Libraries/StdPeripheralDriver/src/stm32f10x_flash.c **** void FLASH_ClearFlag(uint32_t FLASH_FLAG)
1444:../Libraries/StdPeripheralDriver/src/stm32f10x_flash.c **** {
 1692              		.loc 1 1444 0
 1693              		.cfi_startproc
 1694              		@ args = 0, pretend = 0, frame = 8
 1695              		@ frame_needed = 1, uses_anonymous_args = 0
 1696              		@ link register save eliminated.
 1697 0000 80B4     		push	{r7}
 1698              		.cfi_def_cfa_offset 4
 1699              		.cfi_offset 7, -4
 1700 0002 83B0     		sub	sp, sp, #12
 1701              		.cfi_def_cfa_offset 16
 1702 0004 00AF     		add	r7, sp, #0
 1703              		.cfi_def_cfa_register 7
 1704 0006 7860     		str	r0, [r7, #4]
1445:../Libraries/StdPeripheralDriver/src/stm32f10x_flash.c **** #ifdef STM32F10X_XL
1446:../Libraries/StdPeripheralDriver/src/stm32f10x_flash.c ****   /* Check the parameters */
1447:../Libraries/StdPeripheralDriver/src/stm32f10x_flash.c ****   assert_param(IS_FLASH_CLEAR_FLAG(FLASH_FLAG)) ;
1448:../Libraries/StdPeripheralDriver/src/stm32f10x_flash.c **** 
1449:../Libraries/StdPeripheralDriver/src/stm32f10x_flash.c ****   if((FLASH_FLAG & 0x80000000) != 0x0)
1450:../Libraries/StdPeripheralDriver/src/stm32f10x_flash.c ****   {
1451:../Libraries/StdPeripheralDriver/src/stm32f10x_flash.c ****     /* Clear the flags */
1452:../Libraries/StdPeripheralDriver/src/stm32f10x_flash.c ****     FLASH->SR2 = FLASH_FLAG;
1453:../Libraries/StdPeripheralDriver/src/stm32f10x_flash.c ****   }
1454:../Libraries/StdPeripheralDriver/src/stm32f10x_flash.c ****   else
1455:../Libraries/StdPeripheralDriver/src/stm32f10x_flash.c ****   {
1456:../Libraries/StdPeripheralDriver/src/stm32f10x_flash.c ****     /* Clear the flags */
1457:../Libraries/StdPeripheralDriver/src/stm32f10x_flash.c ****     FLASH->SR = FLASH_FLAG;
1458:../Libraries/StdPeripheralDriver/src/stm32f10x_flash.c ****   }  
1459:../Libraries/StdPeripheralDriver/src/stm32f10x_flash.c **** 
1460:../Libraries/StdPeripheralDriver/src/stm32f10x_flash.c **** #else
1461:../Libraries/StdPeripheralDriver/src/stm32f10x_flash.c ****   /* Check the parameters */
1462:../Libraries/StdPeripheralDriver/src/stm32f10x_flash.c ****   assert_param(IS_FLASH_CLEAR_FLAG(FLASH_FLAG)) ;
1463:../Libraries/StdPeripheralDriver/src/stm32f10x_flash.c ****   
1464:../Libraries/StdPeripheralDriver/src/stm32f10x_flash.c ****   /* Clear the flags */
1465:../Libraries/StdPeripheralDriver/src/stm32f10x_flash.c ****   FLASH->SR = FLASH_FLAG;
 1705              		.loc 1 1465 0
 1706 0008 4FF40053 		mov	r3, #8192
 1707 000c C4F20203 		movt	r3, 16386
 1708 0010 7A68     		ldr	r2, [r7, #4]
 1709 0012 DA60     		str	r2, [r3, #12]
1466:../Libraries/StdPeripheralDriver/src/stm32f10x_flash.c **** #endif /* STM32F10X_XL */
1467:../Libraries/StdPeripheralDriver/src/stm32f10x_flash.c **** }
 1710              		.loc 1 1467 0
 1711 0014 0C37     		adds	r7, r7, #12
 1712 0016 BD46     		mov	sp, r7
 1713              		@ sp needed
 1714 0018 5DF8047B 		ldr	r7, [sp], #4
 1715 001c 7047     		bx	lr
 1716              		.cfi_endproc
 1717              	.LFE52:
 1719 001e 00BF     		.section	.text.FLASH_GetStatus,"ax",%progbits
 1720              		.align	2
 1721              		.global	FLASH_GetStatus
 1722              		.thumb
 1723              		.thumb_func
 1725              	FLASH_GetStatus:
 1726              	.LFB53:
1468:../Libraries/StdPeripheralDriver/src/stm32f10x_flash.c **** 
1469:../Libraries/StdPeripheralDriver/src/stm32f10x_flash.c **** /**
1470:../Libraries/StdPeripheralDriver/src/stm32f10x_flash.c ****   * @brief  Returns the FLASH Status.
1471:../Libraries/StdPeripheralDriver/src/stm32f10x_flash.c ****   * @note   This function can be used for all STM32F10x devices, it is equivalent
1472:../Libraries/StdPeripheralDriver/src/stm32f10x_flash.c ****   *         to FLASH_GetBank1Status function.
1473:../Libraries/StdPeripheralDriver/src/stm32f10x_flash.c ****   * @param  None
1474:../Libraries/StdPeripheralDriver/src/stm32f10x_flash.c ****   * @retval FLASH Status: The returned value can be: FLASH_BUSY, FLASH_ERROR_PG,
1475:../Libraries/StdPeripheralDriver/src/stm32f10x_flash.c ****   *         FLASH_ERROR_WRP or FLASH_COMPLETE
1476:../Libraries/StdPeripheralDriver/src/stm32f10x_flash.c ****   */
1477:../Libraries/StdPeripheralDriver/src/stm32f10x_flash.c **** FLASH_Status FLASH_GetStatus(void)
1478:../Libraries/StdPeripheralDriver/src/stm32f10x_flash.c **** {
 1727              		.loc 1 1478 0
 1728              		.cfi_startproc
 1729              		@ args = 0, pretend = 0, frame = 8
 1730              		@ frame_needed = 1, uses_anonymous_args = 0
 1731              		@ link register save eliminated.
 1732 0000 80B4     		push	{r7}
 1733              		.cfi_def_cfa_offset 4
 1734              		.cfi_offset 7, -4
 1735 0002 83B0     		sub	sp, sp, #12
 1736              		.cfi_def_cfa_offset 16
 1737 0004 00AF     		add	r7, sp, #0
 1738              		.cfi_def_cfa_register 7
1479:../Libraries/StdPeripheralDriver/src/stm32f10x_flash.c ****   FLASH_Status flashstatus = FLASH_COMPLETE;
 1739              		.loc 1 1479 0
 1740 0006 0423     		movs	r3, #4
 1741 0008 FB71     		strb	r3, [r7, #7]
1480:../Libraries/StdPeripheralDriver/src/stm32f10x_flash.c ****   
1481:../Libraries/StdPeripheralDriver/src/stm32f10x_flash.c ****   if((FLASH->SR & FLASH_FLAG_BSY) == FLASH_FLAG_BSY) 
 1742              		.loc 1 1481 0
 1743 000a 4FF40053 		mov	r3, #8192
 1744 000e C4F20203 		movt	r3, 16386
 1745 0012 DB68     		ldr	r3, [r3, #12]
 1746 0014 03F00103 		and	r3, r3, #1
 1747 0018 002B     		cmp	r3, #0
 1748 001a 02D0     		beq	.L74
1482:../Libraries/StdPeripheralDriver/src/stm32f10x_flash.c ****   {
1483:../Libraries/StdPeripheralDriver/src/stm32f10x_flash.c ****     flashstatus = FLASH_BUSY;
 1749              		.loc 1 1483 0
 1750 001c 0123     		movs	r3, #1
 1751 001e FB71     		strb	r3, [r7, #7]
 1752 0020 19E0     		b	.L75
 1753              	.L74:
1484:../Libraries/StdPeripheralDriver/src/stm32f10x_flash.c ****   }
1485:../Libraries/StdPeripheralDriver/src/stm32f10x_flash.c ****   else 
1486:../Libraries/StdPeripheralDriver/src/stm32f10x_flash.c ****   {  
1487:../Libraries/StdPeripheralDriver/src/stm32f10x_flash.c ****     if((FLASH->SR & FLASH_FLAG_PGERR) != 0)
 1754              		.loc 1 1487 0
 1755 0022 4FF40053 		mov	r3, #8192
 1756 0026 C4F20203 		movt	r3, 16386
 1757 002a DB68     		ldr	r3, [r3, #12]
 1758 002c 03F00403 		and	r3, r3, #4
 1759 0030 002B     		cmp	r3, #0
 1760 0032 02D0     		beq	.L76
1488:../Libraries/StdPeripheralDriver/src/stm32f10x_flash.c ****     { 
1489:../Libraries/StdPeripheralDriver/src/stm32f10x_flash.c ****       flashstatus = FLASH_ERROR_PG;
 1761              		.loc 1 1489 0
 1762 0034 0223     		movs	r3, #2
 1763 0036 FB71     		strb	r3, [r7, #7]
 1764 0038 0DE0     		b	.L75
 1765              	.L76:
1490:../Libraries/StdPeripheralDriver/src/stm32f10x_flash.c ****     }
1491:../Libraries/StdPeripheralDriver/src/stm32f10x_flash.c ****     else 
1492:../Libraries/StdPeripheralDriver/src/stm32f10x_flash.c ****     {
1493:../Libraries/StdPeripheralDriver/src/stm32f10x_flash.c ****       if((FLASH->SR & FLASH_FLAG_WRPRTERR) != 0 )
 1766              		.loc 1 1493 0
 1767 003a 4FF40053 		mov	r3, #8192
 1768 003e C4F20203 		movt	r3, 16386
 1769 0042 DB68     		ldr	r3, [r3, #12]
 1770 0044 03F01003 		and	r3, r3, #16
 1771 0048 002B     		cmp	r3, #0
 1772 004a 02D0     		beq	.L77
1494:../Libraries/StdPeripheralDriver/src/stm32f10x_flash.c ****       {
1495:../Libraries/StdPeripheralDriver/src/stm32f10x_flash.c ****         flashstatus = FLASH_ERROR_WRP;
 1773              		.loc 1 1495 0
 1774 004c 0323     		movs	r3, #3
 1775 004e FB71     		strb	r3, [r7, #7]
 1776 0050 01E0     		b	.L75
 1777              	.L77:
1496:../Libraries/StdPeripheralDriver/src/stm32f10x_flash.c ****       }
1497:../Libraries/StdPeripheralDriver/src/stm32f10x_flash.c ****       else
1498:../Libraries/StdPeripheralDriver/src/stm32f10x_flash.c ****       {
1499:../Libraries/StdPeripheralDriver/src/stm32f10x_flash.c ****         flashstatus = FLASH_COMPLETE;
 1778              		.loc 1 1499 0
 1779 0052 0423     		movs	r3, #4
 1780 0054 FB71     		strb	r3, [r7, #7]
 1781              	.L75:
1500:../Libraries/StdPeripheralDriver/src/stm32f10x_flash.c ****       }
1501:../Libraries/StdPeripheralDriver/src/stm32f10x_flash.c ****     }
1502:../Libraries/StdPeripheralDriver/src/stm32f10x_flash.c ****   }
1503:../Libraries/StdPeripheralDriver/src/stm32f10x_flash.c ****   /* Return the Flash Status */
1504:../Libraries/StdPeripheralDriver/src/stm32f10x_flash.c ****   return flashstatus;
 1782              		.loc 1 1504 0
 1783 0056 FB79     		ldrb	r3, [r7, #7]	@ zero_extendqisi2
1505:../Libraries/StdPeripheralDriver/src/stm32f10x_flash.c **** }
 1784              		.loc 1 1505 0
 1785 0058 1846     		mov	r0, r3
 1786 005a 0C37     		adds	r7, r7, #12
 1787 005c BD46     		mov	sp, r7
 1788              		@ sp needed
 1789 005e 5DF8047B 		ldr	r7, [sp], #4
 1790 0062 7047     		bx	lr
 1791              		.cfi_endproc
 1792              	.LFE53:
 1794              		.section	.text.FLASH_GetBank1Status,"ax",%progbits
 1795              		.align	2
 1796              		.global	FLASH_GetBank1Status
 1797              		.thumb
 1798              		.thumb_func
 1800              	FLASH_GetBank1Status:
 1801              	.LFB54:
1506:../Libraries/StdPeripheralDriver/src/stm32f10x_flash.c **** 
1507:../Libraries/StdPeripheralDriver/src/stm32f10x_flash.c **** /**
1508:../Libraries/StdPeripheralDriver/src/stm32f10x_flash.c ****   * @brief  Returns the FLASH Bank1 Status.
1509:../Libraries/StdPeripheralDriver/src/stm32f10x_flash.c ****   * @note   This function can be used for all STM32F10x devices, it is equivalent
1510:../Libraries/StdPeripheralDriver/src/stm32f10x_flash.c ****   *         to FLASH_GetStatus function.
1511:../Libraries/StdPeripheralDriver/src/stm32f10x_flash.c ****   * @param  None
1512:../Libraries/StdPeripheralDriver/src/stm32f10x_flash.c ****   * @retval FLASH Status: The returned value can be: FLASH_BUSY, FLASH_ERROR_PG,
1513:../Libraries/StdPeripheralDriver/src/stm32f10x_flash.c ****   *         FLASH_ERROR_WRP or FLASH_COMPLETE
1514:../Libraries/StdPeripheralDriver/src/stm32f10x_flash.c ****   */
1515:../Libraries/StdPeripheralDriver/src/stm32f10x_flash.c **** FLASH_Status FLASH_GetBank1Status(void)
1516:../Libraries/StdPeripheralDriver/src/stm32f10x_flash.c **** {
 1802              		.loc 1 1516 0
 1803              		.cfi_startproc
 1804              		@ args = 0, pretend = 0, frame = 8
 1805              		@ frame_needed = 1, uses_anonymous_args = 0
 1806              		@ link register save eliminated.
 1807 0000 80B4     		push	{r7}
 1808              		.cfi_def_cfa_offset 4
 1809              		.cfi_offset 7, -4
 1810 0002 83B0     		sub	sp, sp, #12
 1811              		.cfi_def_cfa_offset 16
 1812 0004 00AF     		add	r7, sp, #0
 1813              		.cfi_def_cfa_register 7
1517:../Libraries/StdPeripheralDriver/src/stm32f10x_flash.c ****   FLASH_Status flashstatus = FLASH_COMPLETE;
 1814              		.loc 1 1517 0
 1815 0006 0423     		movs	r3, #4
 1816 0008 FB71     		strb	r3, [r7, #7]
1518:../Libraries/StdPeripheralDriver/src/stm32f10x_flash.c ****   
1519:../Libraries/StdPeripheralDriver/src/stm32f10x_flash.c ****   if((FLASH->SR & FLASH_FLAG_BANK1_BSY) == FLASH_FLAG_BSY) 
 1817              		.loc 1 1519 0
 1818 000a 4FF40053 		mov	r3, #8192
 1819 000e C4F20203 		movt	r3, 16386
 1820 0012 DB68     		ldr	r3, [r3, #12]
 1821 0014 03F00103 		and	r3, r3, #1
 1822 0018 002B     		cmp	r3, #0
 1823 001a 02D0     		beq	.L80
1520:../Libraries/StdPeripheralDriver/src/stm32f10x_flash.c ****   {
1521:../Libraries/StdPeripheralDriver/src/stm32f10x_flash.c ****     flashstatus = FLASH_BUSY;
 1824              		.loc 1 1521 0
 1825 001c 0123     		movs	r3, #1
 1826 001e FB71     		strb	r3, [r7, #7]
 1827 0020 19E0     		b	.L81
 1828              	.L80:
1522:../Libraries/StdPeripheralDriver/src/stm32f10x_flash.c ****   }
1523:../Libraries/StdPeripheralDriver/src/stm32f10x_flash.c ****   else 
1524:../Libraries/StdPeripheralDriver/src/stm32f10x_flash.c ****   {  
1525:../Libraries/StdPeripheralDriver/src/stm32f10x_flash.c ****     if((FLASH->SR & FLASH_FLAG_BANK1_PGERR) != 0)
 1829              		.loc 1 1525 0
 1830 0022 4FF40053 		mov	r3, #8192
 1831 0026 C4F20203 		movt	r3, 16386
 1832 002a DB68     		ldr	r3, [r3, #12]
 1833 002c 03F00403 		and	r3, r3, #4
 1834 0030 002B     		cmp	r3, #0
 1835 0032 02D0     		beq	.L82
1526:../Libraries/StdPeripheralDriver/src/stm32f10x_flash.c ****     { 
1527:../Libraries/StdPeripheralDriver/src/stm32f10x_flash.c ****       flashstatus = FLASH_ERROR_PG;
 1836              		.loc 1 1527 0
 1837 0034 0223     		movs	r3, #2
 1838 0036 FB71     		strb	r3, [r7, #7]
 1839 0038 0DE0     		b	.L81
 1840              	.L82:
1528:../Libraries/StdPeripheralDriver/src/stm32f10x_flash.c ****     }
1529:../Libraries/StdPeripheralDriver/src/stm32f10x_flash.c ****     else 
1530:../Libraries/StdPeripheralDriver/src/stm32f10x_flash.c ****     {
1531:../Libraries/StdPeripheralDriver/src/stm32f10x_flash.c ****       if((FLASH->SR & FLASH_FLAG_BANK1_WRPRTERR) != 0 )
 1841              		.loc 1 1531 0
 1842 003a 4FF40053 		mov	r3, #8192
 1843 003e C4F20203 		movt	r3, 16386
 1844 0042 DB68     		ldr	r3, [r3, #12]
 1845 0044 03F01003 		and	r3, r3, #16
 1846 0048 002B     		cmp	r3, #0
 1847 004a 02D0     		beq	.L83
1532:../Libraries/StdPeripheralDriver/src/stm32f10x_flash.c ****       {
1533:../Libraries/StdPeripheralDriver/src/stm32f10x_flash.c ****         flashstatus = FLASH_ERROR_WRP;
 1848              		.loc 1 1533 0
 1849 004c 0323     		movs	r3, #3
 1850 004e FB71     		strb	r3, [r7, #7]
 1851 0050 01E0     		b	.L81
 1852              	.L83:
1534:../Libraries/StdPeripheralDriver/src/stm32f10x_flash.c ****       }
1535:../Libraries/StdPeripheralDriver/src/stm32f10x_flash.c ****       else
1536:../Libraries/StdPeripheralDriver/src/stm32f10x_flash.c ****       {
1537:../Libraries/StdPeripheralDriver/src/stm32f10x_flash.c ****         flashstatus = FLASH_COMPLETE;
 1853              		.loc 1 1537 0
 1854 0052 0423     		movs	r3, #4
 1855 0054 FB71     		strb	r3, [r7, #7]
 1856              	.L81:
1538:../Libraries/StdPeripheralDriver/src/stm32f10x_flash.c ****       }
1539:../Libraries/StdPeripheralDriver/src/stm32f10x_flash.c ****     }
1540:../Libraries/StdPeripheralDriver/src/stm32f10x_flash.c ****   }
1541:../Libraries/StdPeripheralDriver/src/stm32f10x_flash.c ****   /* Return the Flash Status */
1542:../Libraries/StdPeripheralDriver/src/stm32f10x_flash.c ****   return flashstatus;
 1857              		.loc 1 1542 0
 1858 0056 FB79     		ldrb	r3, [r7, #7]	@ zero_extendqisi2
1543:../Libraries/StdPeripheralDriver/src/stm32f10x_flash.c **** }
 1859              		.loc 1 1543 0
 1860 0058 1846     		mov	r0, r3
 1861 005a 0C37     		adds	r7, r7, #12
 1862 005c BD46     		mov	sp, r7
 1863              		@ sp needed
 1864 005e 5DF8047B 		ldr	r7, [sp], #4
 1865 0062 7047     		bx	lr
 1866              		.cfi_endproc
 1867              	.LFE54:
 1869              		.section	.text.FLASH_WaitForLastOperation,"ax",%progbits
 1870              		.align	2
 1871              		.global	FLASH_WaitForLastOperation
 1872              		.thumb
 1873              		.thumb_func
 1875              	FLASH_WaitForLastOperation:
 1876              	.LFB55:
1544:../Libraries/StdPeripheralDriver/src/stm32f10x_flash.c **** 
1545:../Libraries/StdPeripheralDriver/src/stm32f10x_flash.c **** #ifdef STM32F10X_XL
1546:../Libraries/StdPeripheralDriver/src/stm32f10x_flash.c **** /**
1547:../Libraries/StdPeripheralDriver/src/stm32f10x_flash.c ****   * @brief  Returns the FLASH Bank2 Status.
1548:../Libraries/StdPeripheralDriver/src/stm32f10x_flash.c ****   * @note   This function can be used for STM32F10x_XL density devices.
1549:../Libraries/StdPeripheralDriver/src/stm32f10x_flash.c ****   * @param  None
1550:../Libraries/StdPeripheralDriver/src/stm32f10x_flash.c ****   * @retval FLASH Status: The returned value can be: FLASH_BUSY, FLASH_ERROR_PG,
1551:../Libraries/StdPeripheralDriver/src/stm32f10x_flash.c ****   *        FLASH_ERROR_WRP or FLASH_COMPLETE
1552:../Libraries/StdPeripheralDriver/src/stm32f10x_flash.c ****   */
1553:../Libraries/StdPeripheralDriver/src/stm32f10x_flash.c **** FLASH_Status FLASH_GetBank2Status(void)
1554:../Libraries/StdPeripheralDriver/src/stm32f10x_flash.c **** {
1555:../Libraries/StdPeripheralDriver/src/stm32f10x_flash.c ****   FLASH_Status flashstatus = FLASH_COMPLETE;
1556:../Libraries/StdPeripheralDriver/src/stm32f10x_flash.c ****   
1557:../Libraries/StdPeripheralDriver/src/stm32f10x_flash.c ****   if((FLASH->SR2 & (FLASH_FLAG_BANK2_BSY & 0x7FFFFFFF)) == (FLASH_FLAG_BANK2_BSY & 0x7FFFFFFF)) 
1558:../Libraries/StdPeripheralDriver/src/stm32f10x_flash.c ****   {
1559:../Libraries/StdPeripheralDriver/src/stm32f10x_flash.c ****     flashstatus = FLASH_BUSY;
1560:../Libraries/StdPeripheralDriver/src/stm32f10x_flash.c ****   }
1561:../Libraries/StdPeripheralDriver/src/stm32f10x_flash.c ****   else 
1562:../Libraries/StdPeripheralDriver/src/stm32f10x_flash.c ****   {  
1563:../Libraries/StdPeripheralDriver/src/stm32f10x_flash.c ****     if((FLASH->SR2 & (FLASH_FLAG_BANK2_PGERR & 0x7FFFFFFF)) != 0)
1564:../Libraries/StdPeripheralDriver/src/stm32f10x_flash.c ****     { 
1565:../Libraries/StdPeripheralDriver/src/stm32f10x_flash.c ****       flashstatus = FLASH_ERROR_PG;
1566:../Libraries/StdPeripheralDriver/src/stm32f10x_flash.c ****     }
1567:../Libraries/StdPeripheralDriver/src/stm32f10x_flash.c ****     else 
1568:../Libraries/StdPeripheralDriver/src/stm32f10x_flash.c ****     {
1569:../Libraries/StdPeripheralDriver/src/stm32f10x_flash.c ****       if((FLASH->SR2 & (FLASH_FLAG_BANK2_WRPRTERR & 0x7FFFFFFF)) != 0 )
1570:../Libraries/StdPeripheralDriver/src/stm32f10x_flash.c ****       {
1571:../Libraries/StdPeripheralDriver/src/stm32f10x_flash.c ****         flashstatus = FLASH_ERROR_WRP;
1572:../Libraries/StdPeripheralDriver/src/stm32f10x_flash.c ****       }
1573:../Libraries/StdPeripheralDriver/src/stm32f10x_flash.c ****       else
1574:../Libraries/StdPeripheralDriver/src/stm32f10x_flash.c ****       {
1575:../Libraries/StdPeripheralDriver/src/stm32f10x_flash.c ****         flashstatus = FLASH_COMPLETE;
1576:../Libraries/StdPeripheralDriver/src/stm32f10x_flash.c ****       }
1577:../Libraries/StdPeripheralDriver/src/stm32f10x_flash.c ****     }
1578:../Libraries/StdPeripheralDriver/src/stm32f10x_flash.c ****   }
1579:../Libraries/StdPeripheralDriver/src/stm32f10x_flash.c ****   /* Return the Flash Status */
1580:../Libraries/StdPeripheralDriver/src/stm32f10x_flash.c ****   return flashstatus;
1581:../Libraries/StdPeripheralDriver/src/stm32f10x_flash.c **** }
1582:../Libraries/StdPeripheralDriver/src/stm32f10x_flash.c **** #endif /* STM32F10X_XL */
1583:../Libraries/StdPeripheralDriver/src/stm32f10x_flash.c **** /**
1584:../Libraries/StdPeripheralDriver/src/stm32f10x_flash.c ****   * @brief  Waits for a Flash operation to complete or a TIMEOUT to occur.
1585:../Libraries/StdPeripheralDriver/src/stm32f10x_flash.c ****   * @note   This function can be used for all STM32F10x devices, 
1586:../Libraries/StdPeripheralDriver/src/stm32f10x_flash.c ****   *         it is equivalent to FLASH_WaitForLastBank1Operation.
1587:../Libraries/StdPeripheralDriver/src/stm32f10x_flash.c ****   *         - For STM32F10X_XL devices this function waits for a Bank1 Flash operation
1588:../Libraries/StdPeripheralDriver/src/stm32f10x_flash.c ****   *           to complete or a TIMEOUT to occur.
1589:../Libraries/StdPeripheralDriver/src/stm32f10x_flash.c ****   *         - For all other devices it waits for a Flash operation to complete 
1590:../Libraries/StdPeripheralDriver/src/stm32f10x_flash.c ****   *           or a TIMEOUT to occur.
1591:../Libraries/StdPeripheralDriver/src/stm32f10x_flash.c ****   * @param  Timeout: FLASH programming Timeout
1592:../Libraries/StdPeripheralDriver/src/stm32f10x_flash.c ****   * @retval FLASH Status: The returned value can be: FLASH_ERROR_PG,
1593:../Libraries/StdPeripheralDriver/src/stm32f10x_flash.c ****   *         FLASH_ERROR_WRP, FLASH_COMPLETE or FLASH_TIMEOUT.
1594:../Libraries/StdPeripheralDriver/src/stm32f10x_flash.c ****   */
1595:../Libraries/StdPeripheralDriver/src/stm32f10x_flash.c **** FLASH_Status FLASH_WaitForLastOperation(uint32_t Timeout)
1596:../Libraries/StdPeripheralDriver/src/stm32f10x_flash.c **** { 
 1877              		.loc 1 1596 0
 1878              		.cfi_startproc
 1879              		@ args = 0, pretend = 0, frame = 16
 1880              		@ frame_needed = 1, uses_anonymous_args = 0
 1881 0000 80B5     		push	{r7, lr}
 1882              		.cfi_def_cfa_offset 8
 1883              		.cfi_offset 7, -8
 1884              		.cfi_offset 14, -4
 1885 0002 84B0     		sub	sp, sp, #16
 1886              		.cfi_def_cfa_offset 24
 1887 0004 00AF     		add	r7, sp, #0
 1888              		.cfi_def_cfa_register 7
 1889 0006 7860     		str	r0, [r7, #4]
1597:../Libraries/StdPeripheralDriver/src/stm32f10x_flash.c ****   FLASH_Status status = FLASH_COMPLETE;
 1890              		.loc 1 1597 0
 1891 0008 0423     		movs	r3, #4
 1892 000a FB73     		strb	r3, [r7, #15]
1598:../Libraries/StdPeripheralDriver/src/stm32f10x_flash.c ****    
1599:../Libraries/StdPeripheralDriver/src/stm32f10x_flash.c ****   /* Check for the Flash Status */
1600:../Libraries/StdPeripheralDriver/src/stm32f10x_flash.c ****   status = FLASH_GetBank1Status();
 1893              		.loc 1 1600 0
 1894 000c FFF7FEFF 		bl	FLASH_GetBank1Status
 1895 0010 0346     		mov	r3, r0
 1896 0012 FB73     		strb	r3, [r7, #15]
1601:../Libraries/StdPeripheralDriver/src/stm32f10x_flash.c ****   /* Wait for a Flash operation to complete or a TIMEOUT to occur */
1602:../Libraries/StdPeripheralDriver/src/stm32f10x_flash.c ****   while((status == FLASH_BUSY) && (Timeout != 0x00))
 1897              		.loc 1 1602 0
 1898 0014 06E0     		b	.L86
 1899              	.L88:
1603:../Libraries/StdPeripheralDriver/src/stm32f10x_flash.c ****   {
1604:../Libraries/StdPeripheralDriver/src/stm32f10x_flash.c ****     status = FLASH_GetBank1Status();
 1900              		.loc 1 1604 0
 1901 0016 FFF7FEFF 		bl	FLASH_GetBank1Status
 1902 001a 0346     		mov	r3, r0
 1903 001c FB73     		strb	r3, [r7, #15]
1605:../Libraries/StdPeripheralDriver/src/stm32f10x_flash.c ****     Timeout--;
 1904              		.loc 1 1605 0
 1905 001e 7B68     		ldr	r3, [r7, #4]
 1906 0020 013B     		subs	r3, r3, #1
 1907 0022 7B60     		str	r3, [r7, #4]
 1908              	.L86:
1602:../Libraries/StdPeripheralDriver/src/stm32f10x_flash.c ****   {
 1909              		.loc 1 1602 0 discriminator 1
 1910 0024 FB7B     		ldrb	r3, [r7, #15]	@ zero_extendqisi2
 1911 0026 012B     		cmp	r3, #1
 1912 0028 02D1     		bne	.L87
1602:../Libraries/StdPeripheralDriver/src/stm32f10x_flash.c ****   {
 1913              		.loc 1 1602 0 is_stmt 0 discriminator 2
 1914 002a 7B68     		ldr	r3, [r7, #4]
 1915 002c 002B     		cmp	r3, #0
 1916 002e F2D1     		bne	.L88
 1917              	.L87:
1606:../Libraries/StdPeripheralDriver/src/stm32f10x_flash.c ****   }
1607:../Libraries/StdPeripheralDriver/src/stm32f10x_flash.c ****   if(Timeout == 0x00 )
 1918              		.loc 1 1607 0 is_stmt 1
 1919 0030 7B68     		ldr	r3, [r7, #4]
 1920 0032 002B     		cmp	r3, #0
 1921 0034 01D1     		bne	.L89
1608:../Libraries/StdPeripheralDriver/src/stm32f10x_flash.c ****   {
1609:../Libraries/StdPeripheralDriver/src/stm32f10x_flash.c ****     status = FLASH_TIMEOUT;
 1922              		.loc 1 1609 0
 1923 0036 0523     		movs	r3, #5
 1924 0038 FB73     		strb	r3, [r7, #15]
 1925              	.L89:
1610:../Libraries/StdPeripheralDriver/src/stm32f10x_flash.c ****   }
1611:../Libraries/StdPeripheralDriver/src/stm32f10x_flash.c ****   /* Return the operation status */
1612:../Libraries/StdPeripheralDriver/src/stm32f10x_flash.c ****   return status;
 1926              		.loc 1 1612 0
 1927 003a FB7B     		ldrb	r3, [r7, #15]	@ zero_extendqisi2
1613:../Libraries/StdPeripheralDriver/src/stm32f10x_flash.c **** }
 1928              		.loc 1 1613 0
 1929 003c 1846     		mov	r0, r3
 1930 003e 1037     		adds	r7, r7, #16
 1931 0040 BD46     		mov	sp, r7
 1932              		@ sp needed
 1933 0042 80BD     		pop	{r7, pc}
 1934              		.cfi_endproc
 1935              	.LFE55:
 1937              		.section	.text.FLASH_WaitForLastBank1Operation,"ax",%progbits
 1938              		.align	2
 1939              		.global	FLASH_WaitForLastBank1Operation
 1940              		.thumb
 1941              		.thumb_func
 1943              	FLASH_WaitForLastBank1Operation:
 1944              	.LFB56:
1614:../Libraries/StdPeripheralDriver/src/stm32f10x_flash.c **** 
1615:../Libraries/StdPeripheralDriver/src/stm32f10x_flash.c **** /**
1616:../Libraries/StdPeripheralDriver/src/stm32f10x_flash.c ****   * @brief  Waits for a Flash operation on Bank1 to complete or a TIMEOUT to occur.
1617:../Libraries/StdPeripheralDriver/src/stm32f10x_flash.c ****   * @note   This function can be used for all STM32F10x devices, 
1618:../Libraries/StdPeripheralDriver/src/stm32f10x_flash.c ****   *         it is equivalent to FLASH_WaitForLastOperation.
1619:../Libraries/StdPeripheralDriver/src/stm32f10x_flash.c ****   * @param  Timeout: FLASH programming Timeout
1620:../Libraries/StdPeripheralDriver/src/stm32f10x_flash.c ****   * @retval FLASH Status: The returned value can be: FLASH_ERROR_PG,
1621:../Libraries/StdPeripheralDriver/src/stm32f10x_flash.c ****   *         FLASH_ERROR_WRP, FLASH_COMPLETE or FLASH_TIMEOUT.
1622:../Libraries/StdPeripheralDriver/src/stm32f10x_flash.c ****   */
1623:../Libraries/StdPeripheralDriver/src/stm32f10x_flash.c **** FLASH_Status FLASH_WaitForLastBank1Operation(uint32_t Timeout)
1624:../Libraries/StdPeripheralDriver/src/stm32f10x_flash.c **** { 
 1945              		.loc 1 1624 0
 1946              		.cfi_startproc
 1947              		@ args = 0, pretend = 0, frame = 16
 1948              		@ frame_needed = 1, uses_anonymous_args = 0
 1949 0000 80B5     		push	{r7, lr}
 1950              		.cfi_def_cfa_offset 8
 1951              		.cfi_offset 7, -8
 1952              		.cfi_offset 14, -4
 1953 0002 84B0     		sub	sp, sp, #16
 1954              		.cfi_def_cfa_offset 24
 1955 0004 00AF     		add	r7, sp, #0
 1956              		.cfi_def_cfa_register 7
 1957 0006 7860     		str	r0, [r7, #4]
1625:../Libraries/StdPeripheralDriver/src/stm32f10x_flash.c ****   FLASH_Status status = FLASH_COMPLETE;
 1958              		.loc 1 1625 0
 1959 0008 0423     		movs	r3, #4
 1960 000a FB73     		strb	r3, [r7, #15]
1626:../Libraries/StdPeripheralDriver/src/stm32f10x_flash.c ****    
1627:../Libraries/StdPeripheralDriver/src/stm32f10x_flash.c ****   /* Check for the Flash Status */
1628:../Libraries/StdPeripheralDriver/src/stm32f10x_flash.c ****   status = FLASH_GetBank1Status();
 1961              		.loc 1 1628 0
 1962 000c FFF7FEFF 		bl	FLASH_GetBank1Status
 1963 0010 0346     		mov	r3, r0
 1964 0012 FB73     		strb	r3, [r7, #15]
1629:../Libraries/StdPeripheralDriver/src/stm32f10x_flash.c ****   /* Wait for a Flash operation to complete or a TIMEOUT to occur */
1630:../Libraries/StdPeripheralDriver/src/stm32f10x_flash.c ****   while((status == FLASH_FLAG_BANK1_BSY) && (Timeout != 0x00))
 1965              		.loc 1 1630 0
 1966 0014 06E0     		b	.L92
 1967              	.L94:
1631:../Libraries/StdPeripheralDriver/src/stm32f10x_flash.c ****   {
1632:../Libraries/StdPeripheralDriver/src/stm32f10x_flash.c ****     status = FLASH_GetBank1Status();
 1968              		.loc 1 1632 0
 1969 0016 FFF7FEFF 		bl	FLASH_GetBank1Status
 1970 001a 0346     		mov	r3, r0
 1971 001c FB73     		strb	r3, [r7, #15]
1633:../Libraries/StdPeripheralDriver/src/stm32f10x_flash.c ****     Timeout--;
 1972              		.loc 1 1633 0
 1973 001e 7B68     		ldr	r3, [r7, #4]
 1974 0020 013B     		subs	r3, r3, #1
 1975 0022 7B60     		str	r3, [r7, #4]
 1976              	.L92:
1630:../Libraries/StdPeripheralDriver/src/stm32f10x_flash.c ****   {
 1977              		.loc 1 1630 0 discriminator 1
 1978 0024 FB7B     		ldrb	r3, [r7, #15]	@ zero_extendqisi2
 1979 0026 012B     		cmp	r3, #1
 1980 0028 02D1     		bne	.L93
1630:../Libraries/StdPeripheralDriver/src/stm32f10x_flash.c ****   {
 1981              		.loc 1 1630 0 is_stmt 0 discriminator 2
 1982 002a 7B68     		ldr	r3, [r7, #4]
 1983 002c 002B     		cmp	r3, #0
 1984 002e F2D1     		bne	.L94
 1985              	.L93:
1634:../Libraries/StdPeripheralDriver/src/stm32f10x_flash.c ****   }
1635:../Libraries/StdPeripheralDriver/src/stm32f10x_flash.c ****   if(Timeout == 0x00 )
 1986              		.loc 1 1635 0 is_stmt 1
 1987 0030 7B68     		ldr	r3, [r7, #4]
 1988 0032 002B     		cmp	r3, #0
 1989 0034 01D1     		bne	.L95
1636:../Libraries/StdPeripheralDriver/src/stm32f10x_flash.c ****   {
1637:../Libraries/StdPeripheralDriver/src/stm32f10x_flash.c ****     status = FLASH_TIMEOUT;
 1990              		.loc 1 1637 0
 1991 0036 0523     		movs	r3, #5
 1992 0038 FB73     		strb	r3, [r7, #15]
 1993              	.L95:
1638:../Libraries/StdPeripheralDriver/src/stm32f10x_flash.c ****   }
1639:../Libraries/StdPeripheralDriver/src/stm32f10x_flash.c ****   /* Return the operation status */
1640:../Libraries/StdPeripheralDriver/src/stm32f10x_flash.c ****   return status;
 1994              		.loc 1 1640 0
 1995 003a FB7B     		ldrb	r3, [r7, #15]	@ zero_extendqisi2
1641:../Libraries/StdPeripheralDriver/src/stm32f10x_flash.c **** }
 1996              		.loc 1 1641 0
 1997 003c 1846     		mov	r0, r3
 1998 003e 1037     		adds	r7, r7, #16
 1999 0040 BD46     		mov	sp, r7
 2000              		@ sp needed
 2001 0042 80BD     		pop	{r7, pc}
 2002              		.cfi_endproc
 2003              	.LFE56:
 2005              		.text
 2006              	.Letext0:
 2007              		.file 2 "c:\\tools\\arm-none-eabi\\include\\stdint.h"
 2008              		.file 3 "D:\\pall\\workspace\\Snack_stm32_drv_modbus\\Libraries\\CMSIS/stm32f10x.h"
 2009              		.file 4 "D:\\pall\\workspace\\Snack_stm32_drv_modbus\\Libraries\\StdPeripheralDriver\\inc/stm32f10
 2010              		.file 5 "D:\\pall\\workspace\\Snack_stm32_drv_modbus\\Libraries\\CMSIS/core_cm3.h"