   1              		.syntax unified
   2              		.cpu cortex-m3
   3              		.fpu softvfp
   4              		.eabi_attribute 20, 1
   5              		.eabi_attribute 21, 1
   6              		.eabi_attribute 23, 3
   7              		.eabi_attribute 24, 1
   8              		.eabi_attribute 25, 1
   9              		.eabi_attribute 26, 1
  10              		.eabi_attribute 30, 6
  11              		.eabi_attribute 34, 1
  12              		.eabi_attribute 18, 4
  13              		.thumb
  14              		.file	"uart.c"
  15              		.text
  16              	.Ltext0:
  17              		.cfi_sections	.debug_frame
  18              		.section	.text.Uart1Init,"ax",%progbits
  19              		.align	2
  20              		.global	Uart1Init
  21              		.thumb
  22              		.thumb_func
  24              	Uart1Init:
  25              	.LFB29:
  26              		.file 1 "../PeripheralInit/uart.c"
   1:../PeripheralInit/uart.c **** /*
   2:../PeripheralInit/uart.c **** ***************************************************************************************************
   3:../PeripheralInit/uart.c **** *
   4:../PeripheralInit/uart.c **** *                                            UART INTERFACE
   5:../PeripheralInit/uart.c **** *
   6:../PeripheralInit/uart.c **** * Filename      : uart.c
   7:../PeripheralInit/uart.c **** * Version       : V1.00
   8:../PeripheralInit/uart.c **** * Programmer(s) : Palladin
   9:../PeripheralInit/uart.c **** ***************************************************************************************************
  10:../PeripheralInit/uart.c **** */
  11:../PeripheralInit/uart.c **** 
  12:../PeripheralInit/uart.c **** 
  13:../PeripheralInit/uart.c **** /*
  14:../PeripheralInit/uart.c **** ***************************************************************************************************
  15:../PeripheralInit/uart.c **** *                                             INCLUDE FILES
  16:../PeripheralInit/uart.c **** ***************************************************************************************************
  17:../PeripheralInit/uart.c **** */
  18:../PeripheralInit/uart.c **** #include <stm32f10x.h>
  19:../PeripheralInit/uart.c **** #include "stm32f10x_rcc.h"
  20:../PeripheralInit/uart.c **** #include "stm32f10x_gpio.h"
  21:../PeripheralInit/uart.c **** #include "stm32f10x_usart.h"
  22:../PeripheralInit/uart.c **** #include "uart.h"
  23:../PeripheralInit/uart.c **** 
  24:../PeripheralInit/uart.c **** /*
  25:../PeripheralInit/uart.c **** ***************************************************************************************************
  26:../PeripheralInit/uart.c **** *                                            LOCAL DEFINES
  27:../PeripheralInit/uart.c **** ***************************************************************************************************
  28:../PeripheralInit/uart.c **** */
  29:../PeripheralInit/uart.c **** 
  30:../PeripheralInit/uart.c **** 
  31:../PeripheralInit/uart.c **** /*
  32:../PeripheralInit/uart.c **** ***************************************************************************************************
  33:../PeripheralInit/uart.c **** *                                           LOCAL CONSTANTS
  34:../PeripheralInit/uart.c **** ***************************************************************************************************
  35:../PeripheralInit/uart.c **** */
  36:../PeripheralInit/uart.c **** 
  37:../PeripheralInit/uart.c **** 
  38:../PeripheralInit/uart.c **** /*
  39:../PeripheralInit/uart.c **** ***************************************************************************************************
  40:../PeripheralInit/uart.c **** *                                          LOCAL DATA TYPES
  41:../PeripheralInit/uart.c **** ***************************************************************************************************
  42:../PeripheralInit/uart.c **** */
  43:../PeripheralInit/uart.c **** 
  44:../PeripheralInit/uart.c **** 
  45:../PeripheralInit/uart.c **** /*
  46:../PeripheralInit/uart.c **** ***************************************************************************************************
  47:../PeripheralInit/uart.c **** *                                            LOCAL TABLES
  48:../PeripheralInit/uart.c **** ***************************************************************************************************
  49:../PeripheralInit/uart.c **** */
  50:../PeripheralInit/uart.c **** 
  51:../PeripheralInit/uart.c **** 
  52:../PeripheralInit/uart.c **** /*
  53:../PeripheralInit/uart.c **** ***************************************************************************************************
  54:../PeripheralInit/uart.c **** *                                       LOCAL GLOBAL VARIABLES
  55:../PeripheralInit/uart.c **** ***************************************************************************************************
  56:../PeripheralInit/uart.c **** */
  57:../PeripheralInit/uart.c **** 
  58:../PeripheralInit/uart.c **** 
  59:../PeripheralInit/uart.c **** /*
  60:../PeripheralInit/uart.c **** ***************************************************************************************************
  61:../PeripheralInit/uart.c **** *                                      LOCAL FUNCTION PROTOTYPES
  62:../PeripheralInit/uart.c **** ***************************************************************************************************
  63:../PeripheralInit/uart.c **** */
  64:../PeripheralInit/uart.c **** 
  65:../PeripheralInit/uart.c **** 
  66:../PeripheralInit/uart.c **** /*
  67:../PeripheralInit/uart.c **** ***************************************************************************************************
  68:../PeripheralInit/uart.c **** *                                     LOCAL CONFIGURATION ERRORS
  69:../PeripheralInit/uart.c **** ***************************************************************************************************
  70:../PeripheralInit/uart.c **** */
  71:../PeripheralInit/uart.c **** 
  72:../PeripheralInit/uart.c **** 
  73:../PeripheralInit/uart.c **** /*
  74:../PeripheralInit/uart.c **** ***************************************************************************************************
  75:../PeripheralInit/uart.c **** ***************************************************************************************************
  76:../PeripheralInit/uart.c **** **                                         GLOBAL FUNCTIONS
  77:../PeripheralInit/uart.c **** ***************************************************************************************************
  78:../PeripheralInit/uart.c **** ***************************************************************************************************
  79:../PeripheralInit/uart.c **** */
  80:../PeripheralInit/uart.c **** 
  81:../PeripheralInit/uart.c **** 
  82:../PeripheralInit/uart.c **** /*
  83:../PeripheralInit/uart.c **** ***************************************************************************************************
  84:../PeripheralInit/uart.c **** *                                          UartInit()
  85:../PeripheralInit/uart.c **** *
  86:../PeripheralInit/uart.c **** * Description : Initialize a serial port for communication.
  87:../PeripheralInit/uart.c **** *
  88:../PeripheralInit/uart.c **** * Argument(s) : baud_rate           The desire RS232 baud rate.
  89:../PeripheralInit/uart.c **** *
  90:../PeripheralInit/uart.c **** * Return(s)   : none.
  91:../PeripheralInit/uart.c **** *
  92:../PeripheralInit/uart.c **** * Caller(s)   : Application.
  93:../PeripheralInit/uart.c **** *
  94:../PeripheralInit/uart.c **** * Note(s)     : none.
  95:../PeripheralInit/uart.c **** ***************************************************************************************************
  96:../PeripheralInit/uart.c **** */
  97:../PeripheralInit/uart.c **** 
  98:../PeripheralInit/uart.c **** void  Uart1Init (u32  baud_rate) {
  27              		.loc 1 98 0
  28              		.cfi_startproc
  29              		@ args = 0, pretend = 0, frame = 32
  30              		@ frame_needed = 1, uses_anonymous_args = 0
  31 0000 80B5     		push	{r7, lr}
  32              	.LCFI0:
  33              		.cfi_def_cfa_offset 8
  34              		.cfi_offset 14, -4
  35              		.cfi_offset 7, -8
  36 0002 88B0     		sub	sp, sp, #32
  37              	.LCFI1:
  38              		.cfi_def_cfa_offset 40
  39 0004 00AF     		add	r7, sp, #0
  40              	.LCFI2:
  41              		.cfi_def_cfa_register 7
  42 0006 7860     		str	r0, [r7, #4]
  99:../PeripheralInit/uart.c **** 
 100:../PeripheralInit/uart.c ****     RCC_APB2PeriphClockCmd(RCC_APB2Periph_GPIOA, ENABLE);
  43              		.loc 1 100 0
  44 0008 4FF00400 		mov	r0, #4
  45 000c 4FF00101 		mov	r1, #1
  46 0010 FFF7FEFF 		bl	RCC_APB2PeriphClockCmd
 101:../PeripheralInit/uart.c ****     GPIO_InitTypeDef uart_gpio;
 102:../PeripheralInit/uart.c ****     GPIO_StructInit(&uart_gpio);
  47              		.loc 1 102 0
  48 0014 07F11C03 		add	r3, r7, #28
  49 0018 1846     		mov	r0, r3
  50 001a FFF7FEFF 		bl	GPIO_StructInit
 103:../PeripheralInit/uart.c **** 
 104:../PeripheralInit/uart.c ****     /* TX: выход push-pull */
 105:../PeripheralInit/uart.c ****     uart_gpio.GPIO_Mode = GPIO_Mode_AF_PP;
  51              		.loc 1 105 0
  52 001e 4FF01803 		mov	r3, #24
  53 0022 FB77     		strb	r3, [r7, #31]
 106:../PeripheralInit/uart.c ****     uart_gpio.GPIO_Pin = GPIO_Pin_9;
  54              		.loc 1 106 0
  55 0024 4FF40073 		mov	r3, #512
  56 0028 BB83     		strh	r3, [r7, #28]	@ movhi
 107:../PeripheralInit/uart.c ****     GPIO_Init(GPIOA, &uart_gpio);
  57              		.loc 1 107 0
  58 002a 07F11C03 		add	r3, r7, #28
  59 002e 4FF40060 		mov	r0, #2048
  60 0032 C4F20100 		movt	r0, 16385
  61 0036 1946     		mov	r1, r3
  62 0038 FFF7FEFF 		bl	GPIO_Init
 108:../PeripheralInit/uart.c **** 
 109:../PeripheralInit/uart.c ****     /* RX: высокоимпендансный вход */
 110:../PeripheralInit/uart.c ****     uart_gpio.GPIO_Mode = GPIO_Mode_IN_FLOATING;
  63              		.loc 1 110 0
  64 003c 4FF00403 		mov	r3, #4
  65 0040 FB77     		strb	r3, [r7, #31]
 111:../PeripheralInit/uart.c ****     uart_gpio.GPIO_Pin = GPIO_Pin_10;
  66              		.loc 1 111 0
  67 0042 4FF48063 		mov	r3, #1024
  68 0046 BB83     		strh	r3, [r7, #28]	@ movhi
 112:../PeripheralInit/uart.c ****     GPIO_Init(GPIOA, &uart_gpio);
  69              		.loc 1 112 0
  70 0048 07F11C03 		add	r3, r7, #28
  71 004c 4FF40060 		mov	r0, #2048
  72 0050 C4F20100 		movt	r0, 16385
  73 0054 1946     		mov	r1, r3
  74 0056 FFF7FEFF 		bl	GPIO_Init
 113:../PeripheralInit/uart.c **** 
 114:../PeripheralInit/uart.c ****     RCC_APB2PeriphClockCmd(RCC_APB2Periph_USART1, ENABLE);
  75              		.loc 1 114 0
  76 005a 4FF48040 		mov	r0, #16384
  77 005e 4FF00101 		mov	r1, #1
  78 0062 FFF7FEFF 		bl	RCC_APB2PeriphClockCmd
 115:../PeripheralInit/uart.c ****     USART_InitTypeDef uart1;
 116:../PeripheralInit/uart.c ****     /* Параметры по умолчанию: 9600 бод, 8 бит данных, 1 стоп-бит */
 117:../PeripheralInit/uart.c ****     USART_StructInit(&uart1);
  79              		.loc 1 117 0
  80 0066 07F10C03 		add	r3, r7, #12
  81 006a 1846     		mov	r0, r3
  82 006c FFF7FEFF 		bl	USART_StructInit
 118:../PeripheralInit/uart.c ****     USART_Init(USART1, &uart1);
  83              		.loc 1 118 0
  84 0070 07F10C03 		add	r3, r7, #12
  85 0074 4FF46050 		mov	r0, #14336
  86 0078 C4F20100 		movt	r0, 16385
  87 007c 1946     		mov	r1, r3
  88 007e FFF7FEFF 		bl	USART_Init
 119:../PeripheralInit/uart.c ****     USART_Cmd(USART1, ENABLE);
  89              		.loc 1 119 0
  90 0082 4FF46050 		mov	r0, #14336
  91 0086 C4F20100 		movt	r0, 16385
  92 008a 4FF00101 		mov	r1, #1
  93 008e FFF7FEFF 		bl	USART_Cmd
 120:../PeripheralInit/uart.c **** }
  94              		.loc 1 120 0
  95 0092 07F12007 		add	r7, r7, #32
  96 0096 BD46     		mov	sp, r7
  97 0098 80BD     		pop	{r7, pc}
  98              		.cfi_endproc
  99              	.LFE29:
 101 009a 00BF     		.section	.text.Uart1RdByte,"ax",%progbits
 102              		.align	2
 103              		.global	Uart1RdByte
 104              		.thumb
 105              		.thumb_func
 107              	Uart1RdByte:
 108              	.LFB30:
 121:../PeripheralInit/uart.c **** 
 122:../PeripheralInit/uart.c **** /*
 123:../PeripheralInit/uart.c **** ***************************************************************************************************
 124:../PeripheralInit/uart.c **** *                                                Uart1RdByte()
 125:../PeripheralInit/uart.c **** *
 126:../PeripheralInit/uart.c **** * Description : Receive a single byte.
 127:../PeripheralInit/uart.c **** *
 128:../PeripheralInit/uart.c **** * Argument(s) : none.
 129:../PeripheralInit/uart.c **** *
 130:../PeripheralInit/uart.c **** * Return(s)   : The received byte.
 131:../PeripheralInit/uart.c **** *
 132:../PeripheralInit/uart.c **** * Caller(s)   : Application.
 133:../PeripheralInit/uart.c **** *
 134:../PeripheralInit/uart.c **** * Note(s)     : 
 135:../PeripheralInit/uart.c **** ***************************************************************************************************
 136:../PeripheralInit/uart.c **** */
 137:../PeripheralInit/uart.c **** u8  Uart1RdByte (void) {
 109              		.loc 1 137 0
 110              		.cfi_startproc
 111              		@ args = 0, pretend = 0, frame = 8
 112              		@ frame_needed = 1, uses_anonymous_args = 0
 113 0000 80B5     		push	{r7, lr}
 114              	.LCFI3:
 115              		.cfi_def_cfa_offset 8
 116              		.cfi_offset 14, -4
 117              		.cfi_offset 7, -8
 118 0002 82B0     		sub	sp, sp, #8
 119              	.LCFI4:
 120              		.cfi_def_cfa_offset 16
 121 0004 00AF     		add	r7, sp, #0
 122              	.LCFI5:
 123              		.cfi_def_cfa_register 7
 138:../PeripheralInit/uart.c **** 
 139:../PeripheralInit/uart.c ****     u8 rx_byte;
 140:../PeripheralInit/uart.c ****     rx_byte = USART_ReceiveData(USART1);
 124              		.loc 1 140 0
 125 0006 4FF46050 		mov	r0, #14336
 126 000a C4F20100 		movt	r0, 16385
 127 000e FFF7FEFF 		bl	USART_ReceiveData
 128 0012 0346     		mov	r3, r0
 129 0014 FB71     		strb	r3, [r7, #7]
 141:../PeripheralInit/uart.c ****     
 142:../PeripheralInit/uart.c **** return (rx_byte);
 130              		.loc 1 142 0
 131 0016 FB79     		ldrb	r3, [r7, #7]	@ zero_extendqisi2
 143:../PeripheralInit/uart.c **** }
 132              		.loc 1 143 0
 133 0018 1846     		mov	r0, r3
 134 001a 07F10807 		add	r7, r7, #8
 135 001e BD46     		mov	sp, r7
 136 0020 80BD     		pop	{r7, pc}
 137              		.cfi_endproc
 138              	.LFE30:
 140 0022 00BF     		.section	.text.Uart1WrByte,"ax",%progbits
 141              		.align	2
 142              		.global	Uart1WrByte
 143              		.thumb
 144              		.thumb_func
 146              	Uart1WrByte:
 147              	.LFB31:
 144:../PeripheralInit/uart.c **** 
 145:../PeripheralInit/uart.c **** /*
 146:../PeripheralInit/uart.c **** ***************************************************************************************************
 147:../PeripheralInit/uart.c **** *                                                Uart1WrByte()
 148:../PeripheralInit/uart.c **** *
 149:../PeripheralInit/uart.c **** * Description : Writes a single byte to a serial port.
 150:../PeripheralInit/uart.c **** *
 151:../PeripheralInit/uart.c **** * Argument(s) : tx_byte     The character to output.
 152:../PeripheralInit/uart.c **** *
 153:../PeripheralInit/uart.c **** * Return(s)   : none.
 154:../PeripheralInit/uart.c **** *
 155:../PeripheralInit/uart.c **** * Caller(s)   : Application.
 156:../PeripheralInit/uart.c **** *
 157:../PeripheralInit/uart.c **** * Note(s)     : none.
 158:../PeripheralInit/uart.c **** ***************************************************************************************************
 159:../PeripheralInit/uart.c **** */
 160:../PeripheralInit/uart.c **** void  Uart1WrByte (u8 c) {
 148              		.loc 1 160 0
 149              		.cfi_startproc
 150              		@ args = 0, pretend = 0, frame = 8
 151              		@ frame_needed = 1, uses_anonymous_args = 0
 152 0000 80B5     		push	{r7, lr}
 153              	.LCFI6:
 154              		.cfi_def_cfa_offset 8
 155              		.cfi_offset 14, -4
 156              		.cfi_offset 7, -8
 157 0002 82B0     		sub	sp, sp, #8
 158              	.LCFI7:
 159              		.cfi_def_cfa_offset 16
 160 0004 00AF     		add	r7, sp, #0
 161              	.LCFI8:
 162              		.cfi_def_cfa_register 7
 163 0006 0346     		mov	r3, r0
 164 0008 FB71     		strb	r3, [r7, #7]
 161:../PeripheralInit/uart.c **** 
 162:../PeripheralInit/uart.c ****     USART_SendData(USART1, c);
 165              		.loc 1 162 0
 166 000a FB79     		ldrb	r3, [r7, #7]	@ zero_extendqisi2
 167 000c 9BB2     		uxth	r3, r3
 168 000e 4FF46050 		mov	r0, #14336
 169 0012 C4F20100 		movt	r0, 16385
 170 0016 1946     		mov	r1, r3
 171 0018 FFF7FEFF 		bl	USART_SendData
 163:../PeripheralInit/uart.c ****     while (USART_GetFlagStatus(USART1, USART_FLAG_TXE) == RESET);
 172              		.loc 1 163 0
 173 001c 00BF     		nop
 174              	.L4:
 175              		.loc 1 163 0 is_stmt 0 discriminator 1
 176 001e 4FF46050 		mov	r0, #14336
 177 0022 C4F20100 		movt	r0, 16385
 178 0026 4FF08001 		mov	r1, #128
 179 002a FFF7FEFF 		bl	USART_GetFlagStatus
 180 002e 0346     		mov	r3, r0
 181 0030 002B     		cmp	r3, #0
 182 0032 F4D0     		beq	.L4
 164:../PeripheralInit/uart.c **** }
 183              		.loc 1 164 0 is_stmt 1
 184 0034 07F10807 		add	r7, r7, #8
 185 0038 BD46     		mov	sp, r7
 186 003a 80BD     		pop	{r7, pc}
 187              		.cfi_endproc
 188              	.LFE31:
 190              		.section	.text.Uart1WrStr,"ax",%progbits
 191              		.align	2
 192              		.global	Uart1WrStr
 193              		.thumb
 194              		.thumb_func
 196              	Uart1WrStr:
 197              	.LFB32:
 165:../PeripheralInit/uart.c **** 
 166:../PeripheralInit/uart.c **** 
 167:../PeripheralInit/uart.c **** /*
 168:../PeripheralInit/uart.c **** ***************************************************************************************************
 169:../PeripheralInit/uart.c **** *                                                Uart1WrStr()
 170:../PeripheralInit/uart.c **** *
 171:../PeripheralInit/uart.c **** * Description : Transmits a string.
 172:../PeripheralInit/uart.c **** *
 173:../PeripheralInit/uart.c **** * Argument(s) : p_str       Pointer to the string that will be transmitted.
 174:../PeripheralInit/uart.c **** *
 175:../PeripheralInit/uart.c **** * Caller(s)   : Application.
 176:../PeripheralInit/uart.c **** *
 177:../PeripheralInit/uart.c **** * Return(s)   : none.
 178:../PeripheralInit/uart.c **** *
 179:../PeripheralInit/uart.c **** * Note(s)     : none.
 180:../PeripheralInit/uart.c **** ***************************************************************************************************
 181:../PeripheralInit/uart.c **** */
 182:../PeripheralInit/uart.c **** void  Uart1WrStr (u8  *p_str) {
 198              		.loc 1 182 0
 199              		.cfi_startproc
 200              		@ args = 0, pretend = 0, frame = 8
 201              		@ frame_needed = 1, uses_anonymous_args = 0
 202 0000 80B5     		push	{r7, lr}
 203              	.LCFI9:
 204              		.cfi_def_cfa_offset 8
 205              		.cfi_offset 14, -4
 206              		.cfi_offset 7, -8
 207 0002 82B0     		sub	sp, sp, #8
 208              	.LCFI10:
 209              		.cfi_def_cfa_offset 16
 210 0004 00AF     		add	r7, sp, #0
 211              	.LCFI11:
 212              		.cfi_def_cfa_register 7
 213 0006 7860     		str	r0, [r7, #4]
 214              	.L8:
 183:../PeripheralInit/uart.c ****     
 184:../PeripheralInit/uart.c ****     while (1) {
 185:../PeripheralInit/uart.c ****         if (!(*p_str)) {
 215              		.loc 1 185 0
 216 0008 7B68     		ldr	r3, [r7, #4]
 217 000a 1B78     		ldrb	r3, [r3, #0]	@ zero_extendqisi2
 218 000c 002B     		cmp	r3, #0
 219 000e 09D0     		beq	.L10
 220              	.L6:
 186:../PeripheralInit/uart.c ****             break;
 187:../PeripheralInit/uart.c ****         }
 188:../PeripheralInit/uart.c ****         Uart1WrByte(*(p_str++));
 221              		.loc 1 188 0
 222 0010 7B68     		ldr	r3, [r7, #4]
 223 0012 1B78     		ldrb	r3, [r3, #0]	@ zero_extendqisi2
 224 0014 7A68     		ldr	r2, [r7, #4]
 225 0016 02F10102 		add	r2, r2, #1
 226 001a 7A60     		str	r2, [r7, #4]
 227 001c 1846     		mov	r0, r3
 228 001e FFF7FEFF 		bl	Uart1WrByte
 189:../PeripheralInit/uart.c ****     }
 229              		.loc 1 189 0
 230 0022 F1E7     		b	.L8
 231              	.L10:
 186:../PeripheralInit/uart.c ****             break;
 232              		.loc 1 186 0
 233 0024 00BF     		nop
 234              	.L9:
 190:../PeripheralInit/uart.c ****     
 191:../PeripheralInit/uart.c **** }
 235              		.loc 1 191 0
 236 0026 07F10807 		add	r7, r7, #8
 237 002a BD46     		mov	sp, r7
 238 002c 80BD     		pop	{r7, pc}
 239              		.cfi_endproc
 240              	.LFE32:
 242 002e 00BF     		.text
 243              	.Letext0:
 244              		.file 2 "c:\\tools\\codesourcery\\arm\\29-01-2012\\bin\\../lib/gcc/arm-none-eabi/4.6.1/../../../..
 245              		.file 3 "D:\\PALL\\workspace\\STM32_d\\CMSIS/stm32f10x.h"
 246              		.file 4 "D:\\PALL\\workspace\\STM32_d\\StdPeripheralDriver\\inc/stm32f10x_gpio.h"
 247              		.file 5 "D:\\PALL\\workspace\\STM32_d\\StdPeripheralDriver\\inc/stm32f10x_usart.h"
 248              		.file 6 "D:\\PALL\\workspace\\STM32_d\\CMSIS/core_cm3.h"